
ckernel.out:     file format elf32-i386


Disassembly of section .text:

00280000 <bootmain>:
#define green 2
extern  GUI_CONTEXT        GUI_Context;
TIMERCTL *gtimerctl;//global gtimerctl

void bootmain(void)
{
  280000:	55                   	push   %ebp
  280001:	89 e5                	mov    %esp,%ebp
  280003:	57                   	push   %edi
  280004:	56                   	push   %esi
  280005:	53                   	push   %ebx
  280006:	81 ec 38 01 00 00    	sub    $0x138,%esp

/*进入30os的部分*/
struct boot_info *bootp=(struct boot_info *)ADDR_BOOT;
init_screen((struct boot_info * )bootp);
  28000c:	68 f0 0f 00 00       	push   $0xff0
  280011:	e8 e3 0b 00 00       	call   280bf9 <init_screen>
init_palette();  //color table from 0 to 15
  280016:	e8 39 08 00 00       	call   280854 <init_palette>
clear_screen(2);   	//red
  28001b:	c7 04 24 02 00 00 00 	movl   $0x2,(%esp)
  280022:	e8 c4 07 00 00       	call   2807eb <clear_screen>

static __inline void
cli(void)
{

	__asm __volatile("cli");
  280027:	fa                   	cli    
//while(1);
//draw_window();
int mx,my;//mouse position
cli();
//set gdt idt
init_gdtidt();
  280028:	e8 d0 12 00 00       	call   2812fd <init_gdtidt>
//remap irq 0-15
//函数中：　irq 1(keyboard)对应设置中断号int0x21,    irq　12(mouse)对应的中断号是int0x2c 要写中断服务程序了。
init_pic();
  28002d:	e8 50 14 00 00       	call   281482 <init_pic>
unsigned char s[40];		    //sprintf buffer
unsigned char keybuf[32];	    //keyfifo
unsigned char mousebuf[128];	//mousefifo
unsigned char data;		        //temp variable to get fifo data
int count=0;
fifo8_init(&keyfifo ,32,keybuf);//keyfifo是一个global data defined in int.c
  280032:	83 c4 0c             	add    $0xc,%esp
  280035:	8d 85 20 ff ff ff    	lea    -0xe0(%ebp),%eax
  28003b:	50                   	push   %eax
  28003c:	6a 20                	push   $0x20
  28003e:	68 20 9e 28 00       	push   $0x289e20
  280043:	e8 60 15 00 00       	call   2815a8 <fifo8_init>
fifo8_init(&mousefifo,128,mousebuf);
  280048:	83 c4 0c             	add    $0xc,%esp
  28004b:	8d 85 68 ff ff ff    	lea    -0x98(%ebp),%eax
  280051:	50                   	push   %eax
  280052:	68 80 00 00 00       	push   $0x80
  280057:	68 38 9e 28 00       	push   $0x289e38
  28005c:	e8 47 15 00 00       	call   2815a8 <fifo8_init>
// out:write a data to a port
static __inline void
outb(int port, uint8_t data)
{
  //data是变量0%0 , port是变量word１%w1
	__asm __volatile("outb %0,%w1" : : "a" (data), "d" (port));
  280061:	ba 21 00 00 00       	mov    $0x21,%edx
  280066:	b0 f8                	mov    $0xf8,%al
  280068:	ee                   	out    %al,(%dx)
  280069:	b0 ef                	mov    $0xef,%al
  28006b:	b2 a1                	mov    $0xa1,%dl
  28006d:	ee                   	out    %al,(%dx)
//enable timer ,keyboard and mouse   //1111 1000 后面的三个0代表 accept interrupt request, irq0=timer interrupt
outb(PIC0_IMR, 0xf8);//1111 1000  irq 1 2打开 因为keyboard是irq 1,irq2 enable 8259B 芯片发生的中断请求                                 // enable pic slave and keyboard interrupt
//enable mouse interrupt 1110 1111  irq 12 打开　mouse是irq 12  所以要把pic 1 pic 2的芯片中断响应位打开。
outb(PIC1_IMR, 0xef);
//初始化　鼠标按键控制电路
init_keyboard();
  28006e:	e8 a5 14 00 00       	call   281518 <init_keyboard>


unsigned int memtotal;
//get the total memory
memtotal=memtest(0x400000,0xffffffff);
  280073:	58                   	pop    %eax
  280074:	5a                   	pop    %edx
  280075:	6a ff                	push   $0xffffffff
  280077:	68 00 00 40 00       	push   $0x400000
  28007c:	e8 c4 16 00 00       	call   281745 <memtest>
Memman * memman=(Memman *)0x3c0000;
memman_init(memman);
  280081:	c7 04 24 00 00 3c 00 	movl   $0x3c0000,(%esp)
init_keyboard();


unsigned int memtotal;
//get the total memory
memtotal=memtest(0x400000,0xffffffff);
  280088:	89 c7                	mov    %eax,%edi
Memman * memman=(Memman *)0x3c0000;
memman_init(memman);
  28008a:	e8 04 17 00 00       	call   281793 <memman_init>
//memman_free(memman,0x1000,0x9e000);
memman_free(memman,0x400000,memtotal-0x400000);
  28008f:	89 f8                	mov    %edi,%eax
  280091:	83 c4 0c             	add    $0xc,%esp
  280094:	2d 00 00 40 00       	sub    $0x400000,%eax
  280099:	50                   	push   %eax
  28009a:	68 00 00 40 00       	push   $0x400000
  28009f:	68 00 00 3c 00       	push   $0x3c0000
  2800a4:	89 bd e0 fe ff ff    	mov    %edi,-0x120(%ebp)
  2800aa:	e8 96 17 00 00       	call   281845 <memman_free>
//memman_free(memman,0x600000,0x400000);
//memman_free(memman,0xb00000,0x400000);
char *desktop=(char*)memman_alloc(memman,320*200);
  2800af:	59                   	pop    %ecx
  2800b0:	5b                   	pop    %ebx
  2800b1:	68 00 fa 00 00       	push   $0xfa00
  2800b6:	68 00 00 3c 00       	push   $0x3c0000
  2800bb:	e8 11 17 00 00       	call   2817d1 <memman_alloc>
char *mousepic=(char*)memman_alloc(memman,16*16);
  2800c0:	5e                   	pop    %esi
  2800c1:	5f                   	pop    %edi
  2800c2:	68 00 01 00 00       	push   $0x100
  2800c7:	68 00 00 3c 00       	push   $0x3c0000
memman_init(memman);
//memman_free(memman,0x1000,0x9e000);
memman_free(memman,0x400000,memtotal-0x400000);
//memman_free(memman,0x600000,0x400000);
//memman_free(memman,0xb00000,0x400000);
char *desktop=(char*)memman_alloc(memman,320*200);
  2800cc:	89 85 e4 fe ff ff    	mov    %eax,-0x11c(%ebp)
char *mousepic=(char*)memman_alloc(memman,16*16);
  2800d2:	e8 fa 16 00 00       	call   2817d1 <memman_alloc>
  2800d7:	89 c2                	mov    %eax,%edx
//char mousepic[16*16];
init_mouse(mousepic,99);	//99　means background color
  2800d9:	58                   	pop    %eax
  2800da:	59                   	pop    %ecx
  2800db:	89 95 c8 fe ff ff    	mov    %edx,-0x138(%ebp)
  2800e1:	6a 63                	push   $0x63
  2800e3:	52                   	push   %edx
  2800e4:	e8 2f 0b 00 00       	call   280c18 <init_mouse>
//display_mouse(bootp->vram,bootp->xsize,16,16,mx,my,mousepic,16);
//printdebug(desktop,0);
//while(1);
char *win_buf=( char*)memman_alloc_4K(memman,160*65);
  2800e9:	5b                   	pop    %ebx
  2800ea:	5e                   	pop    %esi

struct FIFO8 timerfifo;
char timerbuf[8];
TIMER *timer,*timer2,*timer3;
//just one fifio
fifo8_init(&timerfifo,8,timerbuf);
  2800eb:	8d 9d 08 ff ff ff    	lea    -0xf8(%ebp),%ebx
//char mousepic[16*16];
init_mouse(mousepic,99);	//99　means background color
//display_mouse(bootp->vram,bootp->xsize,16,16,mx,my,mousepic,16);
//printdebug(desktop,0);
//while(1);
char *win_buf=( char*)memman_alloc_4K(memman,160*65);
  2800f1:	68 a0 28 00 00       	push   $0x28a0
  2800f6:	68 00 00 3c 00       	push   $0x3c0000
  2800fb:	e8 2c 17 00 00       	call   28182c <memman_alloc_4K>
TIMERCTL * timerctl=(TIMERCTL *)memman_alloc_4K(memman,sizeof(TIMERCTL));
  280100:	5f                   	pop    %edi
//char mousepic[16*16];
init_mouse(mousepic,99);	//99　means background color
//display_mouse(bootp->vram,bootp->xsize,16,16,mx,my,mousepic,16);
//printdebug(desktop,0);
//while(1);
char *win_buf=( char*)memman_alloc_4K(memman,160*65);
  280101:	89 85 d4 fe ff ff    	mov    %eax,-0x12c(%ebp)
TIMERCTL * timerctl=(TIMERCTL *)memman_alloc_4K(memman,sizeof(TIMERCTL));
  280107:	58                   	pop    %eax
  280108:	68 48 1f 00 00       	push   $0x1f48
  28010d:	68 00 00 3c 00       	push   $0x3c0000
  280112:	e8 15 17 00 00       	call   28182c <memman_alloc_4K>
  280117:	89 c6                	mov    %eax,%esi
gtimerctl=timerctl;
init_pit(timerctl);//init timerctl
  280119:	89 04 24             	mov    %eax,(%esp)
//display_mouse(bootp->vram,bootp->xsize,16,16,mx,my,mousepic,16);
//printdebug(desktop,0);
//while(1);
char *win_buf=( char*)memman_alloc_4K(memman,160*65);
TIMERCTL * timerctl=(TIMERCTL *)memman_alloc_4K(memman,sizeof(TIMERCTL));
gtimerctl=timerctl;
  28011c:	a3 1c 9e 28 00       	mov    %eax,0x289e1c
init_pit(timerctl);//init timerctl
  280121:	e8 45 0d 00 00       	call   280e6b <init_pit>

struct FIFO8 timerfifo;
char timerbuf[8];
TIMER *timer,*timer2,*timer3;
//just one fifio
fifo8_init(&timerfifo,8,timerbuf);
  280126:	83 c4 0c             	add    $0xc,%esp
  280129:	8d 85 f0 fe ff ff    	lea    -0x110(%ebp),%eax
  28012f:	50                   	push   %eax
  280130:	6a 08                	push   $0x8
  280132:	53                   	push   %ebx
  280133:	e8 70 14 00 00       	call   2815a8 <fifo8_init>
timer=timer_alloc(timerctl,0);
  280138:	58                   	pop    %eax
  280139:	5a                   	pop    %edx
  28013a:	6a 00                	push   $0x0
  28013c:	56                   	push   %esi
  28013d:	e8 b8 0d 00 00       	call   280efa <timer_alloc>
timer2=timer_alloc(timerctl,1);
  280142:	59                   	pop    %ecx
  280143:	89 b5 dc fe ff ff    	mov    %esi,-0x124(%ebp)
struct FIFO8 timerfifo;
char timerbuf[8];
TIMER *timer,*timer2,*timer3;
//just one fifio
fifo8_init(&timerfifo,8,timerbuf);
timer=timer_alloc(timerctl,0);
  280149:	89 c7                	mov    %eax,%edi
timer2=timer_alloc(timerctl,1);
  28014b:	58                   	pop    %eax
  28014c:	6a 01                	push   $0x1
  28014e:	56                   	push   %esi
  28014f:	e8 a6 0d 00 00       	call   280efa <timer_alloc>
  280154:	89 c6                	mov    %eax,%esi
timer3=timer_alloc(timerctl,2);
  280156:	58                   	pop    %eax
  280157:	5a                   	pop    %edx
  280158:	6a 02                	push   $0x2
  28015a:	ff b5 dc fe ff ff    	pushl  -0x124(%ebp)
  280160:	e8 95 0d 00 00       	call   280efa <timer_alloc>

timer_init(timer,&timerfifo,10);//10s
  280165:	83 c4 0c             	add    $0xc,%esp
  280168:	6a 0a                	push   $0xa
  28016a:	53                   	push   %ebx
  28016b:	57                   	push   %edi
TIMER *timer,*timer2,*timer3;
//just one fifio
fifo8_init(&timerfifo,8,timerbuf);
timer=timer_alloc(timerctl,0);
timer2=timer_alloc(timerctl,1);
timer3=timer_alloc(timerctl,2);
  28016c:	89 85 d8 fe ff ff    	mov    %eax,-0x128(%ebp)

timer_init(timer,&timerfifo,10);//10s
  280172:	e8 c4 0d 00 00       	call   280f3b <timer_init>
timer_init(timer2,&timerfifo,3);//3s
  280177:	83 c4 0c             	add    $0xc,%esp
  28017a:	6a 03                	push   $0x3
  28017c:	53                   	push   %ebx
  28017d:	56                   	push   %esi
  28017e:	e8 b8 0d 00 00       	call   280f3b <timer_init>
timer_init(timer3,&timerfifo,1);//50ms
  280183:	83 c4 0c             	add    $0xc,%esp
  280186:	6a 01                	push   $0x1
  280188:	53                   	push   %ebx
  280189:	ff b5 d8 fe ff ff    	pushl  -0x128(%ebp)
  28018f:	e8 a7 0d 00 00       	call   280f3b <timer_init>
//while(1);
timer_settime(timer,1000,timerctl);
  280194:	8b 9d dc fe ff ff    	mov    -0x124(%ebp),%ebx
  28019a:	83 c4 0c             	add    $0xc,%esp
  28019d:	53                   	push   %ebx
  28019e:	68 e8 03 00 00       	push   $0x3e8
  2801a3:	57                   	push   %edi
  2801a4:	e8 a6 0d 00 00       	call   280f4f <timer_settime>
timer_settime(timer2,300,timerctl);
  2801a9:	83 c4 0c             	add    $0xc,%esp
  2801ac:	53                   	push   %ebx
  2801ad:	68 2c 01 00 00       	push   $0x12c
  2801b2:	56                   	push   %esi
  2801b3:	e8 97 0d 00 00       	call   280f4f <timer_settime>
timer_settime(timer3,50,timerctl);
  2801b8:	83 c4 0c             	add    $0xc,%esp
  2801bb:	53                   	push   %ebx
  2801bc:	6a 32                	push   $0x32
  2801be:	ff b5 d8 fe ff ff    	pushl  -0x128(%ebp)
  2801c4:	e8 86 0d 00 00       	call   280f4f <timer_settime>

make_window8(win_buf,160,68,"timer");
  2801c9:	68 62 84 28 00       	push   $0x288462
  2801ce:	6a 44                	push   $0x44
  2801d0:	68 a0 00 00 00       	push   $0xa0
  2801d5:	ff b5 d4 fe ff ff    	pushl  -0x12c(%ebp)
  2801db:	e8 c1 0a 00 00       	call   280ca1 <make_window8>
sprintf(s,"memory:%dMB,free:%dMB,%d",memtotal>>20
,memman_avail(memman)>>20,memman->cellnum);
  2801e0:	83 c4 14             	add    $0x14,%esp
timer_settime(timer,1000,timerctl);
timer_settime(timer2,300,timerctl);
timer_settime(timer3,50,timerctl);

make_window8(win_buf,160,68,"timer");
sprintf(s,"memory:%dMB,free:%dMB,%d",memtotal>>20
  2801e3:	8b 1d 00 00 3c 00    	mov    0x3c0000,%ebx
,memman_avail(memman)>>20,memman->cellnum);
  2801e9:	68 00 00 3c 00       	push   $0x3c0000
  2801ee:	e8 c3 15 00 00       	call   2817b6 <memman_avail>
timer_settime(timer,1000,timerctl);
timer_settime(timer2,300,timerctl);
timer_settime(timer3,50,timerctl);

make_window8(win_buf,160,68,"timer");
sprintf(s,"memory:%dMB,free:%dMB,%d",memtotal>>20
  2801f3:	89 1c 24             	mov    %ebx,(%esp)
  2801f6:	8d 9d 40 ff ff ff    	lea    -0xc0(%ebp),%ebx
  2801fc:	c1 e8 14             	shr    $0x14,%eax
  2801ff:	50                   	push   %eax
  280200:	8b 85 e0 fe ff ff    	mov    -0x120(%ebp),%eax
  280206:	c1 e8 14             	shr    $0x14,%eax
  280209:	50                   	push   %eax
  28020a:	68 68 84 28 00       	push   $0x288468
  28020f:	53                   	push   %ebx
  280210:	e8 17 0e 00 00       	call   28102c <sprintf>
,memman_avail(memman)>>20,memman->cellnum);
puts8(desktop ,bootp->xsize,0,150,0,s);
  280215:	83 c4 18             	add    $0x18,%esp
  280218:	53                   	push   %ebx
  280219:	6a 00                	push   $0x0
  28021b:	68 96 00 00 00       	push   $0x96
  280220:	6a 00                	push   $0x0
  280222:	0f bf 05 f4 0f 00 00 	movswl 0xff4,%eax
  280229:	50                   	push   %eax
  28022a:	ff b5 e4 fe ff ff    	pushl  -0x11c(%ebp)
  280230:	e8 f2 0e 00 00       	call   281127 <puts8>

SHTCTL *shtctl;
shtctl=shtctl_init(memman,bootp->vram,bootp->xsize,bootp->ysize);
  280235:	0f bf 05 f6 0f 00 00 	movswl 0xff6,%eax
  28023c:	83 c4 20             	add    $0x20,%esp
  28023f:	50                   	push   %eax
  280240:	0f bf 05 f4 0f 00 00 	movswl 0xff4,%eax
  280247:	50                   	push   %eax
  280248:	ff 35 f8 0f 00 00    	pushl  0xff8
  28024e:	68 00 00 3c 00       	push   $0x3c0000
  280253:	e8 f0 16 00 00       	call   281948 <shtctl_init>

SHEET *sht_back,*sht_mouse,*sht_win;
//allocate a sheet space from shtctl
sht_back=sheet_alloc(shtctl);
  280258:	89 04 24             	mov    %eax,(%esp)
sprintf(s,"memory:%dMB,free:%dMB,%d",memtotal>>20
,memman_avail(memman)>>20,memman->cellnum);
puts8(desktop ,bootp->xsize,0,150,0,s);

SHTCTL *shtctl;
shtctl=shtctl_init(memman,bootp->vram,bootp->xsize,bootp->ysize);
  28025b:	89 c3                	mov    %eax,%ebx

SHEET *sht_back,*sht_mouse,*sht_win;
//allocate a sheet space from shtctl
sht_back=sheet_alloc(shtctl);
  28025d:	e8 6a 17 00 00       	call   2819cc <sheet_alloc>
sht_mouse=sheet_alloc(shtctl);
  280262:	89 1c 24             	mov    %ebx,(%esp)
SHTCTL *shtctl;
shtctl=shtctl_init(memman,bootp->vram,bootp->xsize,bootp->ysize);

SHEET *sht_back,*sht_mouse,*sht_win;
//allocate a sheet space from shtctl
sht_back=sheet_alloc(shtctl);
  280265:	89 c7                	mov    %eax,%edi
  280267:	89 85 e0 fe ff ff    	mov    %eax,-0x120(%ebp)
sht_mouse=sheet_alloc(shtctl);
  28026d:	e8 5a 17 00 00       	call   2819cc <sheet_alloc>
sht_win=sheet_alloc(shtctl);
  280272:	89 1c 24             	mov    %ebx,(%esp)
shtctl=shtctl_init(memman,bootp->vram,bootp->xsize,bootp->ysize);

SHEET *sht_back,*sht_mouse,*sht_win;
//allocate a sheet space from shtctl
sht_back=sheet_alloc(shtctl);
sht_mouse=sheet_alloc(shtctl);
  280275:	89 85 d0 fe ff ff    	mov    %eax,-0x130(%ebp)
sht_win=sheet_alloc(shtctl);
  28027b:	e8 4c 17 00 00       	call   2819cc <sheet_alloc>

sheet_setbuf(sht_back,desktop,320,200,-1);
  280280:	c7 04 24 ff ff ff ff 	movl   $0xffffffff,(%esp)
  280287:	68 c8 00 00 00       	push   $0xc8
  28028c:	68 40 01 00 00       	push   $0x140
  280291:	ff b5 e4 fe ff ff    	pushl  -0x11c(%ebp)

SHEET *sht_back,*sht_mouse,*sht_win;
//allocate a sheet space from shtctl
sht_back=sheet_alloc(shtctl);
sht_mouse=sheet_alloc(shtctl);
sht_win=sheet_alloc(shtctl);
  280297:	89 c6                	mov    %eax,%esi
  280299:	89 85 cc fe ff ff    	mov    %eax,-0x134(%ebp)

sheet_setbuf(sht_back,desktop,320,200,-1);
  28029f:	57                   	push   %edi
  2802a0:	e8 5a 17 00 00       	call   2819ff <sheet_setbuf>
sheet_setbuf(sht_mouse,mousepic,16,16,99);
  2802a5:	8b 95 c8 fe ff ff    	mov    -0x138(%ebp),%edx
  2802ab:	83 c4 14             	add    $0x14,%esp
  2802ae:	6a 63                	push   $0x63
  2802b0:	8b 9d d0 fe ff ff    	mov    -0x130(%ebp),%ebx
  2802b6:	6a 10                	push   $0x10
  2802b8:	6a 10                	push   $0x10
  2802ba:	52                   	push   %edx
  2802bb:	53                   	push   %ebx
  2802bc:	e8 3e 17 00 00       	call   2819ff <sheet_setbuf>
sheet_setbuf(sht_win,win_buf,160,65,-1);
  2802c1:	83 c4 14             	add    $0x14,%esp
  2802c4:	6a ff                	push   $0xffffffff
  2802c6:	6a 41                	push   $0x41
  2802c8:	68 a0 00 00 00       	push   $0xa0
  2802cd:	ff b5 d4 fe ff ff    	pushl  -0x12c(%ebp)
  2802d3:	56                   	push   %esi
  2802d4:	e8 26 17 00 00       	call   2819ff <sheet_setbuf>
mx=200;my=100;//set mouse initial position
sheet_move(sht_back,0,0);
  2802d9:	83 c4 1c             	add    $0x1c,%esp
  2802dc:	6a 00                	push   $0x0
  2802de:	6a 00                	push   $0x0
  2802e0:	57                   	push   %edi
  2802e1:	e8 4b 1b 00 00       	call   281e31 <sheet_move>
sheet_move(sht_mouse,mx,my);
  2802e6:	83 c4 0c             	add    $0xc,%esp
  2802e9:	6a 64                	push   $0x64
  2802eb:	68 c8 00 00 00       	push   $0xc8
  2802f0:	53                   	push   %ebx
  2802f1:	e8 3b 1b 00 00       	call   281e31 <sheet_move>
sheet_move(sht_win,80,72);
  2802f6:	83 c4 0c             	add    $0xc,%esp
  2802f9:	6a 48                	push   $0x48
  2802fb:	6a 50                	push   $0x50
  2802fd:	56                   	push   %esi
  2802fe:	e8 2e 1b 00 00       	call   281e31 <sheet_move>

//set sht_back to layer0 ;set sht_mouse to layer1
sheet_updown(sht_back,0);
  280303:	59                   	pop    %ecx
  280304:	58                   	pop    %eax
  280305:	6a 00                	push   $0x0
  280307:	57                   	push   %edi
  280308:	e8 67 19 00 00       	call   281c74 <sheet_updown>
sheet_updown(sht_win,1);
  28030d:	58                   	pop    %eax
  28030e:	5a                   	pop    %edx
  28030f:	6a 01                	push   $0x1
  280311:	56                   	push   %esi
  280312:	e8 5d 19 00 00       	call   281c74 <sheet_updown>
sheet_updown(sht_mouse,2);
  280317:	59                   	pop    %ecx
  280318:	5e                   	pop    %esi

GUI_SetBkColorIndex(2);
GUI_SetColorIndex(2);
GUI_SetTextStyle(GUI_TS_NORMAL);//GUI_TS_NORMAL GUI_TS_UNDERLINE GUI_TS_STRIKETHRU
GUI_Clear();
draw_win_buf(desktop);
  280319:	be 19 00 00 00       	mov    $0x19,%esi
sheet_move(sht_win,80,72);

//set sht_back to layer0 ;set sht_mouse to layer1
sheet_updown(sht_back,0);
sheet_updown(sht_win,1);
sheet_updown(sht_mouse,2);
  28031e:	6a 02                	push   $0x2
  280320:	53                   	push   %ebx
  280321:	e8 4e 19 00 00       	call   281c74 <sheet_updown>
//refresh a specific rectangle
sheet_refresh(sht_back,0,0,bootp->xsize,bootp->ysize);
  280326:	0f bf 05 f6 0f 00 00 	movswl 0xff6,%eax
  28032d:	89 04 24             	mov    %eax,(%esp)
  280330:	0f bf 05 f4 0f 00 00 	movswl 0xff4,%eax
  280337:	50                   	push   %eax
  280338:	6a 00                	push   $0x0
  28033a:	6a 00                	push   $0x0
  28033c:	57                   	push   %edi
  28033d:	e8 ef 17 00 00       	call   281b31 <sheet_refresh>
struct MOUSE_DEC mdec;
//enable cpu interruptmak
enable_mouse(&mdec);   //这里会产生一个mouse interrupt
  280342:	83 c4 14             	add    $0x14,%esp
  280345:	8d 85 f8 fe ff ff    	lea    -0x108(%ebp),%eax
  28034b:	50                   	push   %eax
  28034c:	e8 03 13 00 00       	call   281654 <enable_mouse>
//draw_win_buf(desktop);

GUI_Init();
  280351:	e8 e8 26 00 00       	call   282a3e <GUI_Init>


GUI_SetBkColorIndex(2);
  280356:	c7 04 24 02 00 00 00 	movl   $0x2,(%esp)
  28035d:	e8 c0 29 00 00       	call   282d22 <GUI_SetBkColorIndex>
GUI_SetColorIndex(2);
  280362:	c7 04 24 02 00 00 00 	movl   $0x2,(%esp)
  280369:	e8 d1 29 00 00       	call   282d3f <GUI_SetColorIndex>
GUI_SetTextStyle(GUI_TS_NORMAL);//GUI_TS_NORMAL GUI_TS_UNDERLINE GUI_TS_STRIKETHRU
  28036e:	c7 04 24 00 00 00 00 	movl   $0x0,(%esp)
  280375:	e8 6c 2b 00 00       	call   282ee6 <GUI_SetTextStyle>
GUI_Clear();
  28037a:	e8 7f 26 00 00       	call   2829fe <GUI_Clear>
draw_win_buf(desktop);
  28037f:	5f                   	pop    %edi
  280380:	ff b5 e4 fe ff ff    	pushl  -0x11c(%ebp)
  280386:	e8 51 05 00 00       	call   2808dc <draw_win_buf>
  28038b:	83 c4 10             	add    $0x10,%esp
for(yn=0;yn<4;yn++)
{
 for(xn=0;xn<6;xn++)
 {
  GUI_SetColorIndex(15-xn);
  GUI_DrawCircle(xn*50+25,yn*50+25,25);
  28038e:	31 db                	xor    %ebx,%ebx
  280390:	b8 0f 00 00 00       	mov    $0xf,%eax
unsigned yn,xn;
for(yn=0;yn<4;yn++)
{
 for(xn=0;xn<6;xn++)
 {
  GUI_SetColorIndex(15-xn);
  280395:	83 ec 0c             	sub    $0xc,%esp
  280398:	29 d8                	sub    %ebx,%eax
  28039a:	6b fb 32             	imul   $0x32,%ebx,%edi
  28039d:	50                   	push   %eax
  28039e:	e8 9c 29 00 00       	call   282d3f <GUI_SetColorIndex>
  GUI_DrawCircle(xn*50+25,yn*50+25,25);
  2803a3:	83 c4 0c             	add    $0xc,%esp
  2803a6:	6a 19                	push   $0x19
  2803a8:	56                   	push   %esi
  2803a9:	83 c7 19             	add    $0x19,%edi
  2803ac:	57                   	push   %edi
  2803ad:	e8 c1 20 00 00       	call   282473 <GUI_DrawCircle>
   GUI_SetColorIndex(xn);
  2803b2:	89 1c 24             	mov    %ebx,(%esp)
  GUI_FillCircle(xn*50+25,yn*50+25,25);
  GUI_SetColorIndex(xn+1);
  2803b5:	43                   	inc    %ebx
{
 for(xn=0;xn<6;xn++)
 {
  GUI_SetColorIndex(15-xn);
  GUI_DrawCircle(xn*50+25,yn*50+25,25);
   GUI_SetColorIndex(xn);
  2803b6:	e8 84 29 00 00       	call   282d3f <GUI_SetColorIndex>
  GUI_FillCircle(xn*50+25,yn*50+25,25);
  2803bb:	83 c4 0c             	add    $0xc,%esp
  2803be:	6a 19                	push   $0x19
  2803c0:	56                   	push   %esi
  2803c1:	57                   	push   %edi
  2803c2:	e8 38 22 00 00       	call   2825ff <GUI_FillCircle>
  GUI_SetColorIndex(xn+1);
  2803c7:	89 1c 24             	mov    %ebx,(%esp)
  2803ca:	e8 70 29 00 00       	call   282d3f <GUI_SetColorIndex>
  GUI_FillCircle(xn*50+25,yn*50+25,20);
  2803cf:	83 c4 0c             	add    $0xc,%esp
  2803d2:	6a 14                	push   $0x14
  2803d4:	56                   	push   %esi
  2803d5:	57                   	push   %edi
  2803d6:	e8 24 22 00 00       	call   2825ff <GUI_FillCircle>
GUI_Clear();
draw_win_buf(desktop);
unsigned yn,xn;
for(yn=0;yn<4;yn++)
{
 for(xn=0;xn<6;xn++)
  2803db:	83 c4 10             	add    $0x10,%esp
  2803de:	83 fb 06             	cmp    $0x6,%ebx
  2803e1:	75 ad                	jne    280390 <bootmain+0x390>
  2803e3:	83 c6 32             	add    $0x32,%esi
GUI_SetColorIndex(2);
GUI_SetTextStyle(GUI_TS_NORMAL);//GUI_TS_NORMAL GUI_TS_UNDERLINE GUI_TS_STRIKETHRU
GUI_Clear();
draw_win_buf(desktop);
unsigned yn,xn;
for(yn=0;yn<4;yn++)
  2803e6:	81 fe e1 00 00 00    	cmp    $0xe1,%esi
  2803ec:	75 a0                	jne    28038e <bootmain+0x38e>
  GUI_FillCircle(xn*50+25,yn*50+25,25);
  GUI_SetColorIndex(xn+1);
  GUI_FillCircle(xn*50+25,yn*50+25,20);
 }
}
GUI_DispCharAt('b',150,0);
  2803ee:	50                   	push   %eax
sht_win=sheet_alloc(shtctl);

sheet_setbuf(sht_back,desktop,320,200,-1);
sheet_setbuf(sht_mouse,mousepic,16,16,99);
sheet_setbuf(sht_win,win_buf,160,65,-1);
mx=200;my=100;//set mouse initial position
  2803ef:	bf 64 00 00 00       	mov    $0x64,%edi
  GUI_FillCircle(xn*50+25,yn*50+25,25);
  GUI_SetColorIndex(xn+1);
  GUI_FillCircle(xn*50+25,yn*50+25,20);
 }
}
GUI_DispCharAt('b',150,0);
  2803f4:	6a 00                	push   $0x0
sht_win=sheet_alloc(shtctl);

sheet_setbuf(sht_back,desktop,320,200,-1);
sheet_setbuf(sht_mouse,mousepic,16,16,99);
sheet_setbuf(sht_win,win_buf,160,65,-1);
mx=200;my=100;//set mouse initial position
  2803f6:	bb c8 00 00 00       	mov    $0xc8,%ebx
  GUI_FillCircle(xn*50+25,yn*50+25,25);
  GUI_SetColorIndex(xn+1);
  GUI_FillCircle(xn*50+25,yn*50+25,20);
 }
}
GUI_DispCharAt('b',150,0);
  2803fb:	68 96 00 00 00       	push   $0x96
  280400:	6a 62                	push   $0x62
  280402:	e8 78 26 00 00       	call   282a7f <GUI_DispCharAt>



while(1)
 {
    sprintf(s,"%d ",timerctl->count);
  280407:	8d b5 40 ff ff ff    	lea    -0xc0(%ebp),%esi
  GUI_SetColorIndex(xn+1);
  GUI_FillCircle(xn*50+25,yn*50+25,20);
 }
}
GUI_DispCharAt('b',150,0);
GUI_SetFont(&GUI_Font8x8);
  28040d:	c7 04 24 20 7c 28 00 	movl   $0x287c20,(%esp)
  280414:	e8 43 29 00 00       	call   282d5c <GUI_SetFont>
  GUI_Context.TextMode=1;
  GUI_Context.DispPosX = 200;
  GUI_Context.DispPosY = 30;
  GUI_DispString("hello world");
  280419:	c7 04 24 81 84 28 00 	movl   $0x288481,(%esp)
  GUI_FillCircle(xn*50+25,yn*50+25,20);
 }
}
GUI_DispCharAt('b',150,0);
GUI_SetFont(&GUI_Font8x8);
  GUI_Context.TextMode=1;
  280420:	66 c7 05 aa 9e 28 00 	movw   $0x1,0x289eaa
  280427:	01 00 
  GUI_Context.DispPosX = 200;
  280429:	66 c7 05 a2 9e 28 00 	movw   $0xc8,0x289ea2
  280430:	c8 00 
  GUI_Context.DispPosY = 30;
  280432:	66 c7 05 a4 9e 28 00 	movw   $0x1e,0x289ea4
  280439:	1e 00 
  GUI_DispString("hello world");
  28043b:	e8 7c 26 00 00       	call   282abc <GUI_DispString>
  /*
*/
sheet_refresh(sht_back,0,0,bootp->xsize,bootp->ysize);
  280440:	0f bf 05 f6 0f 00 00 	movswl 0xff6,%eax
  280447:	89 04 24             	mov    %eax,(%esp)
  28044a:	0f bf 05 f4 0f 00 00 	movswl 0xff4,%eax
  280451:	50                   	push   %eax
  280452:	6a 00                	push   $0x0
  280454:	6a 00                	push   $0x0
  280456:	ff b5 e0 fe ff ff    	pushl  -0x120(%ebp)
  28045c:	e8 d0 16 00 00       	call   281b31 <sheet_refresh>
  280461:	83 c4 20             	add    $0x20,%esp



while(1)
 {
    sprintf(s,"%d ",timerctl->count);
  280464:	50                   	push   %eax
  280465:	8b 85 dc fe ff ff    	mov    -0x124(%ebp),%eax
  28046b:	ff 30                	pushl  (%eax)
  28046d:	68 8d 84 28 00       	push   $0x28848d
  280472:	56                   	push   %esi
  280473:	e8 b4 0b 00 00       	call   28102c <sprintf>
    wrtrfrsh(sht_win,20,28,0,7,s,7);
  280478:	83 c4 0c             	add    $0xc,%esp
  28047b:	6a 07                	push   $0x7
  28047d:	56                   	push   %esi
  28047e:	6a 07                	push   $0x7
  280480:	6a 00                	push   $0x0
  280482:	6a 1c                	push   $0x1c
  280484:	6a 14                	push   $0x14
  280486:	ff b5 cc fe ff ff    	pushl  -0x134(%ebp)
  28048c:	e8 60 09 00 00       	call   280df1 <wrtrfrsh>

static __inline void
sti(void)
{

	__asm __volatile("sti");
  280491:	fb                   	sti    

   sti();
   if(fifo8_status(&keyfifo) +
  280492:	83 c4 14             	add    $0x14,%esp
  280495:	68 20 9e 28 00       	push   $0x289e20
  28049a:	e8 a7 11 00 00       	call   281646 <fifo8_status>
   fifo8_status(&mousefifo)  +
  28049f:	c7 04 24 38 9e 28 00 	movl   $0x289e38,(%esp)
 {
    sprintf(s,"%d ",timerctl->count);
    wrtrfrsh(sht_win,20,28,0,7,s,7);

   sti();
   if(fifo8_status(&keyfifo) +
  2804a6:	89 85 d4 fe ff ff    	mov    %eax,-0x12c(%ebp)
   fifo8_status(&mousefifo)  +
  2804ac:	e8 95 11 00 00       	call   281646 <fifo8_status>
   fifo8_status(&timerfifo)
  2804b1:	8d 8d 08 ff ff ff    	lea    -0xf8(%ebp),%ecx
  2804b7:	89 0c 24             	mov    %ecx,(%esp)
 {
    sprintf(s,"%d ",timerctl->count);
    wrtrfrsh(sht_win,20,28,0,7,s,7);

   sti();
   if(fifo8_status(&keyfifo) +
  2804ba:	03 85 d4 fe ff ff    	add    -0x12c(%ebp),%eax
  2804c0:	89 85 d4 fe ff ff    	mov    %eax,-0x12c(%ebp)
   fifo8_status(&mousefifo)  +
   fifo8_status(&timerfifo)
  2804c6:	e8 7b 11 00 00       	call   281646 <fifo8_status>
 {
    sprintf(s,"%d ",timerctl->count);
    wrtrfrsh(sht_win,20,28,0,7,s,7);

   sti();
   if(fifo8_status(&keyfifo) +
  2804cb:	83 c4 10             	add    $0x10,%esp
   fifo8_status(&mousefifo)  +
  2804ce:	03 85 d4 fe ff ff    	add    -0x12c(%ebp),%eax
 {
    sprintf(s,"%d ",timerctl->count);
    wrtrfrsh(sht_win,20,28,0,7,s,7);

   sti();
   if(fifo8_status(&keyfifo) +
  2804d4:	85 c0                	test   %eax,%eax
  2804d6:	74 8c                	je     280464 <bootmain+0x464>

   // hlt();//wait for interrupt
   }
   else
   {
      if(fifo8_status(&keyfifo) != 0)
  2804d8:	83 ec 0c             	sub    $0xc,%esp
  2804db:	68 20 9e 28 00       	push   $0x289e20
  2804e0:	e8 61 11 00 00       	call   281646 <fifo8_status>
  2804e5:	83 c4 10             	add    $0x10,%esp
  2804e8:	85 c0                	test   %eax,%eax
  2804ea:	74 13                	je     2804ff <bootmain+0x4ff>
      {
        data=fifo8_read(&keyfifo);
  2804ec:	83 ec 0c             	sub    $0xc,%esp
  2804ef:	68 20 9e 28 00       	push   $0x289e20
  2804f4:	e8 18 11 00 00       	call   281611 <fifo8_read>
  2804f9:	fb                   	sti    
  2804fa:	e9 88 01 00 00       	jmp    280687 <bootmain+0x687>
        sti();
      }//end of keyboard decoder
      else if(fifo8_status(&mousefifo) != 0)//we have mouse interrupt data to process
  2804ff:	83 ec 0c             	sub    $0xc,%esp
  280502:	68 38 9e 28 00       	push   $0x289e38
  280507:	e8 3a 11 00 00       	call   281646 <fifo8_status>
  28050c:	83 c4 10             	add    $0x10,%esp
  28050f:	85 c0                	test   %eax,%eax
  280511:	0f 84 78 01 00 00    	je     28068f <bootmain+0x68f>
      {
        data=fifo8_read(&mousefifo);
  280517:	83 ec 0c             	sub    $0xc,%esp
  28051a:	68 38 9e 28 00       	push   $0x289e38
  28051f:	e8 ed 10 00 00       	call   281611 <fifo8_read>
  280524:	fb                   	sti    
        sti();
        if(mouse_decode(&mdec,data))
  280525:	5a                   	pop    %edx
  280526:	0f b6 c0             	movzbl %al,%eax
  280529:	59                   	pop    %ecx
  28052a:	50                   	push   %eax
  28052b:	8d 85 f8 fe ff ff    	lea    -0x108(%ebp),%eax
  280531:	50                   	push   %eax
  280532:	e8 46 11 00 00       	call   28167d <mouse_decode>
  280537:	83 c4 10             	add    $0x10,%esp
  28053a:	85 c0                	test   %eax,%eax
  28053c:	0f 84 22 ff ff ff    	je     280464 <bootmain+0x464>
        {
              //3个字节都得到了
              switch (mdec.button)
  280542:	8b 85 04 ff ff ff    	mov    -0xfc(%ebp),%eax
  280548:	83 f8 02             	cmp    $0x2,%eax
  28054b:	74 11                	je     28055e <bootmain+0x55e>
  28054d:	83 f8 04             	cmp    $0x4,%eax
  280550:	74 15                	je     280567 <bootmain+0x567>
  280552:	48                   	dec    %eax
  280553:	75 19                	jne    28056e <bootmain+0x56e>
              {
                case 1:s[1]='L';break;
  280555:	c6 85 41 ff ff ff 4c 	movb   $0x4c,-0xbf(%ebp)
  28055c:	eb 10                	jmp    28056e <bootmain+0x56e>
                case 2:s[3]='R';break;
  28055e:	c6 85 43 ff ff ff 52 	movb   $0x52,-0xbd(%ebp)
  280565:	eb 07                	jmp    28056e <bootmain+0x56e>
                case 4:s[2]='M';break;
  280567:	c6 85 42 ff ff ff 4d 	movb   $0x4d,-0xbe(%ebp)
              }
              sprintf(s,"[lmr:%d %d]",mdec.x,mdec.y);
  28056e:	ff b5 00 ff ff ff    	pushl  -0x100(%ebp)
  280574:	ff b5 fc fe ff ff    	pushl  -0x104(%ebp)
  28057a:	68 91 84 28 00       	push   $0x288491
  28057f:	56                   	push   %esi
  280580:	e8 a7 0a 00 00       	call   28102c <sprintf>
              boxfill8(desktop,320,0,32,16,32+15*8-1,33);//一个黑色的小box
  280585:	83 c4 0c             	add    $0xc,%esp
  280588:	6a 21                	push   $0x21
  28058a:	68 97 00 00 00       	push   $0x97
  28058f:	6a 10                	push   $0x10
  280591:	6a 20                	push   $0x20
  280593:	6a 00                	push   $0x0
  280595:	68 40 01 00 00       	push   $0x140
  28059a:	ff b5 e4 fe ff ff    	pushl  -0x11c(%ebp)
  2805a0:	e8 e0 02 00 00       	call   280885 <boxfill8>
              puts8(desktop,bootp->xsize,32,16,7,s);     //display e0
  2805a5:	83 c4 18             	add    $0x18,%esp
  2805a8:	56                   	push   %esi
  2805a9:	6a 07                	push   $0x7
  2805ab:	6a 10                	push   $0x10
  2805ad:	6a 20                	push   $0x20
  2805af:	0f bf 05 f4 0f 00 00 	movswl 0xff4,%eax
  2805b6:	50                   	push   %eax
  2805b7:	ff b5 e4 fe ff ff    	pushl  -0x11c(%ebp)
  2805bd:	e8 65 0b 00 00       	call   281127 <puts8>
              sheet_refresh(sht_back,32,16,32+20*8-1,31);
  2805c2:	83 c4 14             	add    $0x14,%esp
  2805c5:	6a 1f                	push   $0x1f
  2805c7:	68 bf 00 00 00       	push   $0xbf
  2805cc:	6a 10                	push   $0x10
  2805ce:	6a 20                	push   $0x20
  2805d0:	ff b5 e0 fe ff ff    	pushl  -0x120(%ebp)
  2805d6:	e8 56 15 00 00       	call   281b31 <sheet_refresh>
  2805db:	83 c4 20             	add    $0x20,%esp
  2805de:	31 c0                	xor    %eax,%eax
  2805e0:	89 da                	mov    %ebx,%edx
  2805e2:	03 95 fc fe ff ff    	add    -0x104(%ebp),%edx
  2805e8:	0f 48 d0             	cmovs  %eax,%edx
  2805eb:	03 bd 00 ff ff ff    	add    -0x100(%ebp),%edi
  2805f1:	89 d3                	mov    %edx,%ebx
  2805f3:	0f 48 f8             	cmovs  %eax,%edi
              {
                my=0;
              }


              if(mx>bootp->xsize-1)
  2805f6:	0f bf 05 f4 0f 00 00 	movswl 0xff4,%eax
              {
                mx=bootp->xsize-1;
  2805fd:	8d 50 ff             	lea    -0x1(%eax),%edx
  280600:	39 d8                	cmp    %ebx,%eax
              }

              if(my>bootp->ysize-1)
  280602:	0f bf 05 f6 0f 00 00 	movswl 0xff6,%eax
              }


              if(mx>bootp->xsize-1)
              {
                mx=bootp->xsize-1;
  280609:	0f 4e da             	cmovle %edx,%ebx
              }

              if(my>bootp->ysize-1)
              {
                my=bootp->ysize-1;
  28060c:	39 f8                	cmp    %edi,%eax
  28060e:	8d 50 ff             	lea    -0x1(%eax),%edx
  280611:	0f 4e fa             	cmovle %edx,%edi
              }
              sprintf(s,"(%d, %d)",mx,my);
  280614:	57                   	push   %edi
  280615:	53                   	push   %ebx
  280616:	68 9d 84 28 00       	push   $0x28849d
  28061b:	56                   	push   %esi
  28061c:	e8 0b 0a 00 00       	call   28102c <sprintf>
              boxfill8(desktop,320,0,0,0,79,15);//坐标的背景色
  280621:	83 c4 0c             	add    $0xc,%esp
  280624:	6a 0f                	push   $0xf
  280626:	6a 4f                	push   $0x4f
  280628:	6a 00                	push   $0x0
  28062a:	6a 00                	push   $0x0
  28062c:	6a 00                	push   $0x0
  28062e:	68 40 01 00 00       	push   $0x140
  280633:	ff b5 e4 fe ff ff    	pushl  -0x11c(%ebp)
  280639:	e8 47 02 00 00       	call   280885 <boxfill8>
              puts8(desktop ,bootp->xsize,0,0,7,s);//显示坐标
  28063e:	83 c4 18             	add    $0x18,%esp
  280641:	56                   	push   %esi
  280642:	6a 07                	push   $0x7
  280644:	6a 00                	push   $0x0
  280646:	6a 00                	push   $0x0
  280648:	0f bf 05 f4 0f 00 00 	movswl 0xff4,%eax
  28064f:	50                   	push   %eax
  280650:	ff b5 e4 fe ff ff    	pushl  -0x11c(%ebp)
  280656:	e8 cc 0a 00 00       	call   281127 <puts8>
              sheet_refresh(sht_back,0,0,bootp->xsize,15);
  28065b:	83 c4 14             	add    $0x14,%esp
  28065e:	6a 0f                	push   $0xf
  280660:	0f bf 05 f4 0f 00 00 	movswl 0xff4,%eax
  280667:	50                   	push   %eax
  280668:	6a 00                	push   $0x0
  28066a:	6a 00                	push   $0x0
  28066c:	ff b5 e0 fe ff ff    	pushl  -0x120(%ebp)
  280672:	e8 ba 14 00 00       	call   281b31 <sheet_refresh>
              sheet_move(sht_mouse,mx,my);
  280677:	83 c4 1c             	add    $0x1c,%esp
  28067a:	57                   	push   %edi
  28067b:	53                   	push   %ebx
  28067c:	ff b5 d0 fe ff ff    	pushl  -0x130(%ebp)
  280682:	e8 aa 17 00 00       	call   281e31 <sheet_move>
  280687:	83 c4 10             	add    $0x10,%esp
  28068a:	e9 d5 fd ff ff       	jmp    280464 <bootmain+0x464>
        }
      }//end of mouse decoder
      else if(fifo8_status(&timerfifo)!=0)
  28068f:	83 ec 0c             	sub    $0xc,%esp
  280692:	8d 85 08 ff ff ff    	lea    -0xf8(%ebp),%eax
  280698:	50                   	push   %eax
  280699:	e8 a8 0f 00 00       	call   281646 <fifo8_status>
  28069e:	83 c4 10             	add    $0x10,%esp
  2806a1:	85 c0                	test   %eax,%eax
  2806a3:	0f 84 bb fd ff ff    	je     280464 <bootmain+0x464>
  2806a9:	fb                   	sti    
      {
         sti();
        // printdebug(16,250);
         data=fifo8_read(&timerfifo);
  2806aa:	83 ec 0c             	sub    $0xc,%esp
  2806ad:	8d 85 08 ff ff ff    	lea    -0xf8(%ebp),%eax
  2806b3:	50                   	push   %eax
  2806b4:	e8 58 0f 00 00       	call   281611 <fifo8_read>
         if(data==10)
  2806b9:	83 c4 10             	add    $0x10,%esp
  2806bc:	3c 0a                	cmp    $0xa,%al
  2806be:	75 41                	jne    280701 <bootmain+0x701>
         {
            puts8(desktop ,bootp->xsize,0,64,0,"10[sec]");//显示坐标
  2806c0:	50                   	push   %eax
  2806c1:	50                   	push   %eax
  2806c2:	68 a6 84 28 00       	push   $0x2884a6
  2806c7:	6a 00                	push   $0x0
  2806c9:	6a 40                	push   $0x40
  2806cb:	6a 00                	push   $0x0
  2806cd:	0f bf 05 f4 0f 00 00 	movswl 0xff4,%eax
  2806d4:	50                   	push   %eax
  2806d5:	ff b5 e4 fe ff ff    	pushl  -0x11c(%ebp)
  2806db:	e8 47 0a 00 00       	call   281127 <puts8>
            sheet_refresh(sht_back,0,64,bootp->xsize,80);
  2806e0:	83 c4 14             	add    $0x14,%esp
  2806e3:	6a 50                	push   $0x50
  2806e5:	0f bf 05 f4 0f 00 00 	movswl 0xff4,%eax
  2806ec:	50                   	push   %eax
  2806ed:	6a 40                	push   $0x40
  2806ef:	6a 00                	push   $0x0
  2806f1:	ff b5 e0 fe ff ff    	pushl  -0x120(%ebp)
  2806f7:	e8 35 14 00 00       	call   281b31 <sheet_refresh>
  2806fc:	83 c4 20             	add    $0x20,%esp
  2806ff:	eb 3e                	jmp    28073f <bootmain+0x73f>
         }
         if(data==3)
  280701:	3c 03                	cmp    $0x3,%al
  280703:	75 36                	jne    28073b <bootmain+0x73b>
         {
            puts8(desktop ,bootp->xsize,0,80,0,"3[sec]");//显示坐标
  280705:	50                   	push   %eax
  280706:	50                   	push   %eax
  280707:	68 ae 84 28 00       	push   $0x2884ae
  28070c:	6a 00                	push   $0x0
  28070e:	6a 50                	push   $0x50
  280710:	6a 00                	push   $0x0
  280712:	0f bf 05 f4 0f 00 00 	movswl 0xff4,%eax
  280719:	50                   	push   %eax
  28071a:	ff b5 e4 fe ff ff    	pushl  -0x11c(%ebp)
  280720:	e8 02 0a 00 00       	call   281127 <puts8>
            sheet_refresh(sht_back,0,80,bootp->xsize,96);
  280725:	83 c4 14             	add    $0x14,%esp
  280728:	6a 60                	push   $0x60
  28072a:	0f bf 05 f4 0f 00 00 	movswl 0xff4,%eax
  280731:	50                   	push   %eax
  280732:	6a 50                	push   $0x50
  280734:	6a 00                	push   $0x0
  280736:	e9 9d 00 00 00       	jmp    2807d8 <bootmain+0x7d8>
         }
         else
         {
             if(data!=0)
  28073b:	84 c0                	test   %al,%al
  28073d:	74 24                	je     280763 <bootmain+0x763>
             {
                    timer_init(timer3,&timerfifo,0);//50ms
  28073f:	51                   	push   %ecx
  280740:	6a 00                	push   $0x0
  280742:	8d 85 08 ff ff ff    	lea    -0xf8(%ebp),%eax
  280748:	50                   	push   %eax
  280749:	ff b5 d8 fe ff ff    	pushl  -0x128(%ebp)
  28074f:	e8 e7 07 00 00       	call   280f3b <timer_init>
                    boxfill8(desktop,bootp->xsize,7,8,96,15,111);
  280754:	83 c4 0c             	add    $0xc,%esp
  280757:	6a 6f                	push   $0x6f
  280759:	6a 0f                	push   $0xf
  28075b:	6a 60                	push   $0x60
  28075d:	6a 08                	push   $0x8
  28075f:	6a 07                	push   $0x7
  280761:	eb 22                	jmp    280785 <bootmain+0x785>
             }
             else
             {

                    timer_init(timer3,&timerfifo,1);//50ms
  280763:	52                   	push   %edx
  280764:	6a 01                	push   $0x1
  280766:	8d 85 08 ff ff ff    	lea    -0xf8(%ebp),%eax
  28076c:	50                   	push   %eax
  28076d:	ff b5 d8 fe ff ff    	pushl  -0x128(%ebp)
  280773:	e8 c3 07 00 00       	call   280f3b <timer_init>
                    boxfill8(desktop,bootp->xsize,0,8,96,15,111);
  280778:	83 c4 0c             	add    $0xc,%esp
  28077b:	6a 6f                	push   $0x6f
  28077d:	6a 0f                	push   $0xf
  28077f:	6a 60                	push   $0x60
  280781:	6a 08                	push   $0x8
  280783:	6a 00                	push   $0x0
  280785:	0f bf 05 f4 0f 00 00 	movswl 0xff4,%eax
  28078c:	50                   	push   %eax
  28078d:	ff b5 e4 fe ff ff    	pushl  -0x11c(%ebp)
  280793:	e8 ed 00 00 00       	call   280885 <boxfill8>
  280798:	83 c4 20             	add    $0x20,%esp

             }
                timer_settime(timer3,50,timerctl);
  28079b:	50                   	push   %eax
  28079c:	ff b5 dc fe ff ff    	pushl  -0x124(%ebp)
  2807a2:	6a 32                	push   $0x32
  2807a4:	ff b5 d8 fe ff ff    	pushl  -0x128(%ebp)
  2807aa:	e8 a0 07 00 00       	call   280f4f <timer_settime>
                sheet_refresh(sht_back,8,96,15,111);
  2807af:	c7 04 24 6f 00 00 00 	movl   $0x6f,(%esp)
  2807b6:	6a 0f                	push   $0xf
  2807b8:	6a 60                	push   $0x60
  2807ba:	6a 08                	push   $0x8
  2807bc:	ff b5 e0 fe ff ff    	pushl  -0x120(%ebp)
  2807c2:	e8 6a 13 00 00       	call   281b31 <sheet_refresh>
                sheet_refresh(sht_back,250,100,320,108);
  2807c7:	83 c4 14             	add    $0x14,%esp
  2807ca:	6a 6c                	push   $0x6c
  2807cc:	68 40 01 00 00       	push   $0x140
  2807d1:	6a 64                	push   $0x64
  2807d3:	68 fa 00 00 00       	push   $0xfa
  2807d8:	ff b5 e0 fe ff ff    	pushl  -0x120(%ebp)
  2807de:	e8 4e 13 00 00       	call   281b31 <sheet_refresh>
  2807e3:	83 c4 20             	add    $0x20,%esp
  2807e6:	e9 79 fc ff ff       	jmp    280464 <bootmain+0x464>

002807eb <clear_screen>:
#include<header.h>

void clear_screen(char color) //15:pure white
{
  2807eb:	55                   	push   %ebp
  int i;
  for(i=0xa0000;i<0xaffff;i++)
  2807ec:	b8 00 00 0a 00       	mov    $0xa0000,%eax
#include<header.h>

void clear_screen(char color) //15:pure white
{
  2807f1:	89 e5                	mov    %esp,%ebp
  2807f3:	8a 55 08             	mov    0x8(%ebp),%dl
  int i;
  for(i=0xa0000;i<0xaffff;i++)
  {
  write_mem8(i,color);  //if we write 15 ,all pixels color will be white,15 mens pure white ,so the screen changes into white
  2807f6:	88 10                	mov    %dl,(%eax)
#include<header.h>

void clear_screen(char color) //15:pure white
{
  int i;
  for(i=0xa0000;i<0xaffff;i++)
  2807f8:	40                   	inc    %eax
  2807f9:	3d ff ff 0a 00       	cmp    $0xaffff,%eax
  2807fe:	75 f6                	jne    2807f6 <clear_screen+0xb>
  {
  write_mem8(i,color);  //if we write 15 ,all pixels color will be white,15 mens pure white ,so the screen changes into white

  }
}
  280800:	5d                   	pop    %ebp
  280801:	c3                   	ret    

00280802 <color_screen>:

void color_screen(char color) //15:pure white
{
  280802:	55                   	push   %ebp
  int i;
  color=color;
  for(i=0xa0000;i<0xaffff;i++)
  280803:	b8 00 00 0a 00       	mov    $0xa0000,%eax

  }
}

void color_screen(char color) //15:pure white
{
  280808:	89 e5                	mov    %esp,%ebp
  int i;
  color=color;
  for(i=0xa0000;i<0xaffff;i++)
  {
  write_mem8(i,i);  //if we write 15 ,all pixels color will be white,15 mens pure white ,so the screen changes into white
  28080a:	88 00                	mov    %al,(%eax)

void color_screen(char color) //15:pure white
{
  int i;
  color=color;
  for(i=0xa0000;i<0xaffff;i++)
  28080c:	40                   	inc    %eax
  28080d:	3d ff ff 0a 00       	cmp    $0xaffff,%eax
  280812:	75 f6                	jne    28080a <color_screen+0x8>
  {
  write_mem8(i,i);  //if we write 15 ,all pixels color will be white,15 mens pure white ,so the screen changes into white

  }
}
  280814:	5d                   	pop    %ebp
  280815:	c3                   	ret    

00280816 <set_palette>:
   set_palette(0,255,table_rgb);
}

//设置调色板，  只用到了16个color,后面的都没有用到。
void set_palette(int start,int end, unsigned char *rgb)
{
  280816:	55                   	push   %ebp
  280817:	89 e5                	mov    %esp,%ebp
  280819:	56                   	push   %esi
  28081a:	8b 4d 10             	mov    0x10(%ebp),%ecx
  28081d:	53                   	push   %ebx
  28081e:	8b 5d 08             	mov    0x8(%ebp),%ebx
//read eflags and write_eflags
static __inline uint32_t
read_eflags(void)
{
        uint32_t eflags;
        __asm __volatile("pushfl; popl %0" : "=r" (eflags));
  280821:	9c                   	pushf  
  280822:	5e                   	pop    %esi

static __inline void
cli(void)
{

	__asm __volatile("cli");
  280823:	fa                   	cli    
// out:write a data to a port
static __inline void
outb(int port, uint8_t data)
{
  //data是变量0%0 , port是变量word１%w1
	__asm __volatile("outb %0,%w1" : : "a" (data), "d" (port));
  280824:	ba c8 03 00 00       	mov    $0x3c8,%edx

  cli(); // disable interrupt
  //为什么写port 0x03c8

  //rgb=rgb+;
  outb(0x03c8,start);
  280829:	0f b6 c3             	movzbl %bl,%eax
  28082c:	ee                   	out    %al,(%dx)
  28082d:	b2 c9                	mov    $0xc9,%dl
  for(i=start;i<=end;i++)
  28082f:	3b 5d 0c             	cmp    0xc(%ebp),%ebx
  280832:	7f 1a                	jg     28084e <set_palette+0x38>
  {
    outb(0x03c9,*(rgb)/4);    //outb函数是往指定的设备，送数据。
  280834:	8a 01                	mov    (%ecx),%al
  280836:	c0 e8 02             	shr    $0x2,%al
  280839:	ee                   	out    %al,(%dx)
    outb(0x03c9,*(rgb+1)/4);
  28083a:	8a 41 01             	mov    0x1(%ecx),%al
  28083d:	c0 e8 02             	shr    $0x2,%al
  280840:	ee                   	out    %al,(%dx)
    outb(0x03c9,*(rgb+2)/4);
  280841:	8a 41 02             	mov    0x2(%ecx),%al
  280844:	c0 e8 02             	shr    $0x2,%al
  280847:	ee                   	out    %al,(%dx)
    rgb=rgb+3;
  280848:	83 c1 03             	add    $0x3,%ecx
  cli(); // disable interrupt
  //为什么写port 0x03c8

  //rgb=rgb+;
  outb(0x03c8,start);
  for(i=start;i<=end;i++)
  28084b:	43                   	inc    %ebx
  28084c:	eb e1                	jmp    28082f <set_palette+0x19>
}

static __inline void
write_eflags(uint32_t eflags)
{
        __asm __volatile("pushl %0; popfl" : : "r" (eflags));
  28084e:	56                   	push   %esi
  28084f:	9d                   	popf   
  }

write_eflags(eflag);  //恢复从前的cpsr
  return;

}
  280850:	5b                   	pop    %ebx
  280851:	5e                   	pop    %esi
  280852:	5d                   	pop    %ebp
  280853:	c3                   	ret    

00280854 <init_palette>:
}

//初始化调色板，table_rgb[]保存了16种color的编码。
//什么调色板是这样进行设置，这个与x86的port 0x03c8 0x03c9
void init_palette(void)
{
  280854:	55                   	push   %ebp
  //16种color，每个color三个字节。
unsigned char table_rgb[16*3]={
  280855:	b9 0c 00 00 00       	mov    $0xc,%ecx
}

//初始化调色板，table_rgb[]保存了16种color的编码。
//什么调色板是这样进行设置，这个与x86的port 0x03c8 0x03c9
void init_palette(void)
{
  28085a:	89 e5                	mov    %esp,%ebp
  28085c:	57                   	push   %edi
  28085d:	56                   	push   %esi
  //16种color，每个color三个字节。
unsigned char table_rgb[16*3]={
  28085e:	be 10 73 28 00       	mov    $0x287310,%esi
}

//初始化调色板，table_rgb[]保存了16种color的编码。
//什么调色板是这样进行设置，这个与x86的port 0x03c8 0x03c9
void init_palette(void)
{
  280863:	83 ec 30             	sub    $0x30,%esp
    0x00,0x00,0x84,   /*12:dark 青*/
    0x84,0x00,0x84,   /*13:dark purper*/
    0x00,0x84,0x84,   /*14:light blue*/
    0x84,0x84,0x84,   /*15:dark gray*/
  };
   set_palette(0,255,table_rgb);
  280866:	8d 45 c8             	lea    -0x38(%ebp),%eax
//初始化调色板，table_rgb[]保存了16种color的编码。
//什么调色板是这样进行设置，这个与x86的port 0x03c8 0x03c9
void init_palette(void)
{
  //16种color，每个color三个字节。
unsigned char table_rgb[16*3]={
  280869:	8d 7d c8             	lea    -0x38(%ebp),%edi
  28086c:	f3 a5                	rep movsl %ds:(%esi),%es:(%edi)
    0x00,0x00,0x84,   /*12:dark 青*/
    0x84,0x00,0x84,   /*13:dark purper*/
    0x00,0x84,0x84,   /*14:light blue*/
    0x84,0x84,0x84,   /*15:dark gray*/
  };
   set_palette(0,255,table_rgb);
  28086e:	50                   	push   %eax
  28086f:	68 ff 00 00 00       	push   $0xff
  280874:	6a 00                	push   $0x0
  280876:	e8 9b ff ff ff       	call   280816 <set_palette>
  28087b:	83 c4 0c             	add    $0xc,%esp
}
  28087e:	8d 65 f8             	lea    -0x8(%ebp),%esp
  280881:	5e                   	pop    %esi
  280882:	5f                   	pop    %edi
  280883:	5d                   	pop    %ebp
  280884:	c3                   	ret    

00280885 <boxfill8>:
  return;

}

void boxfill8(unsigned char *vram,int xsize,unsigned char color,int x0,int y0,int x1,int y1)
{
  280885:	55                   	push   %ebp
  280886:	89 e5                	mov    %esp,%ebp
  280888:	8b 4d 18             	mov    0x18(%ebp),%ecx
  28088b:	8b 45 0c             	mov    0xc(%ebp),%eax
  28088e:	53                   	push   %ebx
  28088f:	8a 5d 10             	mov    0x10(%ebp),%bl
  280892:	0f af c1             	imul   %ecx,%eax
  280895:	03 45 08             	add    0x8(%ebp),%eax
 int x,y;
 for(y=y0;y<=y1;y++)
  280898:	3b 4d 20             	cmp    0x20(%ebp),%ecx
  28089b:	7f 14                	jg     2808b1 <boxfill8+0x2c>
  28089d:	8b 55 14             	mov    0x14(%ebp),%edx
 {
   for(x=x0;x<=x1;x++)
  2808a0:	3b 55 1c             	cmp    0x1c(%ebp),%edx
  2808a3:	7f 06                	jg     2808ab <boxfill8+0x26>
   {
      vram[y*xsize+x]=color;
  2808a5:	88 1c 10             	mov    %bl,(%eax,%edx,1)
void boxfill8(unsigned char *vram,int xsize,unsigned char color,int x0,int y0,int x1,int y1)
{
 int x,y;
 for(y=y0;y<=y1;y++)
 {
   for(x=x0;x<=x1;x++)
  2808a8:	42                   	inc    %edx
  2808a9:	eb f5                	jmp    2808a0 <boxfill8+0x1b>
}

void boxfill8(unsigned char *vram,int xsize,unsigned char color,int x0,int y0,int x1,int y1)
{
 int x,y;
 for(y=y0;y<=y1;y++)
  2808ab:	41                   	inc    %ecx
  2808ac:	03 45 0c             	add    0xc(%ebp),%eax
  2808af:	eb e7                	jmp    280898 <boxfill8+0x13>
   {
      vram[y*xsize+x]=color;
   }
 }

}
  2808b1:	5b                   	pop    %ebx
  2808b2:	5d                   	pop    %ebp
  2808b3:	c3                   	ret    

002808b4 <boxfill>:
void boxfill(unsigned char color,int x0,int y0,int x1,int y1)
{
  2808b4:	55                   	push   %ebp
  2808b5:	89 e5                	mov    %esp,%ebp
  boxfill8((unsigned char *)VRAM,320,color,x0,y0,x1,y1);
  2808b7:	ff 75 18             	pushl  0x18(%ebp)
  2808ba:	ff 75 14             	pushl  0x14(%ebp)
  2808bd:	ff 75 10             	pushl  0x10(%ebp)
  2808c0:	ff 75 0c             	pushl  0xc(%ebp)
  2808c3:	0f b6 45 08          	movzbl 0x8(%ebp),%eax
  2808c7:	50                   	push   %eax
  2808c8:	68 40 01 00 00       	push   $0x140
  2808cd:	68 00 00 0a 00       	push   $0xa0000
  2808d2:	e8 ae ff ff ff       	call   280885 <boxfill8>
  2808d7:	83 c4 1c             	add    $0x1c,%esp
}
  2808da:	c9                   	leave  
  2808db:	c3                   	ret    

002808dc <draw_win_buf>:


void draw_win_buf(unsigned char *p)
{
  2808dc:	55                   	push   %ebp
  2808dd:	89 e5                	mov    %esp,%ebp
  2808df:	53                   	push   %ebx
  2808e0:	8b 5d 08             	mov    0x8(%ebp),%ebx
  int x=320,y=200;
    //p=(unsigned char*)VRAM;
//     boxfill8(p,320,110,20,20,250,150);

    //draw a window
    boxfill8(p,320,7 ,0, 0   ,x-1,y-29);
  2808e3:	68 ab 00 00 00       	push   $0xab
  2808e8:	68 3f 01 00 00       	push   $0x13f
  2808ed:	6a 00                	push   $0x0
  2808ef:	6a 00                	push   $0x0
  2808f1:	6a 07                	push   $0x7
  2808f3:	68 40 01 00 00       	push   $0x140
  2808f8:	53                   	push   %ebx
  2808f9:	e8 87 ff ff ff       	call   280885 <boxfill8>
//task button
    boxfill8(p,320,8  ,0, y-28,x-1,y-28);
  2808fe:	68 ac 00 00 00       	push   $0xac
  280903:	68 3f 01 00 00       	push   $0x13f
  280908:	68 ac 00 00 00       	push   $0xac
  28090d:	6a 00                	push   $0x0
  28090f:	6a 08                	push   $0x8
  280911:	68 40 01 00 00       	push   $0x140
  280916:	53                   	push   %ebx
  280917:	e8 69 ff ff ff       	call   280885 <boxfill8>
    boxfill8(p,320,7  ,0, y-27,x-1,y-27);
  28091c:	83 c4 38             	add    $0x38,%esp
  28091f:	68 ad 00 00 00       	push   $0xad
  280924:	68 3f 01 00 00       	push   $0x13f
  280929:	68 ad 00 00 00       	push   $0xad
  28092e:	6a 00                	push   $0x0
  280930:	6a 07                	push   $0x7
  280932:	68 40 01 00 00       	push   $0x140
  280937:	53                   	push   %ebx
  280938:	e8 48 ff ff ff       	call   280885 <boxfill8>
    boxfill8(p,320,8  ,0, y-26,x-1,y-1);
  28093d:	68 c7 00 00 00       	push   $0xc7
  280942:	68 3f 01 00 00       	push   $0x13f
  280947:	68 ae 00 00 00       	push   $0xae
  28094c:	6a 00                	push   $0x0
  28094e:	6a 08                	push   $0x8
  280950:	68 40 01 00 00       	push   $0x140
  280955:	53                   	push   %ebx
  280956:	e8 2a ff ff ff       	call   280885 <boxfill8>


//left button
    boxfill8(p,320,7, 3,  y-24, 59,  y-24);
  28095b:	83 c4 38             	add    $0x38,%esp
  28095e:	68 b0 00 00 00       	push   $0xb0
  280963:	6a 3b                	push   $0x3b
  280965:	68 b0 00 00 00       	push   $0xb0
  28096a:	6a 03                	push   $0x3
  28096c:	6a 07                	push   $0x7
  28096e:	68 40 01 00 00       	push   $0x140
  280973:	53                   	push   %ebx
  280974:	e8 0c ff ff ff       	call   280885 <boxfill8>
    boxfill8(p,320,7, 2,  y-24, 2 ,  y-4);
  280979:	68 c4 00 00 00       	push   $0xc4
  28097e:	6a 02                	push   $0x2
  280980:	68 b0 00 00 00       	push   $0xb0
  280985:	6a 02                	push   $0x2
  280987:	6a 07                	push   $0x7
  280989:	68 40 01 00 00       	push   $0x140
  28098e:	53                   	push   %ebx
  28098f:	e8 f1 fe ff ff       	call   280885 <boxfill8>
    boxfill8(p,320,15, 3,  y-4,  59,  y-4);
  280994:	83 c4 38             	add    $0x38,%esp
  280997:	68 c4 00 00 00       	push   $0xc4
  28099c:	6a 3b                	push   $0x3b
  28099e:	68 c4 00 00 00       	push   $0xc4
  2809a3:	6a 03                	push   $0x3
  2809a5:	6a 0f                	push   $0xf
  2809a7:	68 40 01 00 00       	push   $0x140
  2809ac:	53                   	push   %ebx
  2809ad:	e8 d3 fe ff ff       	call   280885 <boxfill8>
    boxfill8(p,320,15, 59, y-23, 59,  y-5);
  2809b2:	68 c3 00 00 00       	push   $0xc3
  2809b7:	6a 3b                	push   $0x3b
  2809b9:	68 b1 00 00 00       	push   $0xb1
  2809be:	6a 3b                	push   $0x3b
  2809c0:	6a 0f                	push   $0xf
  2809c2:	68 40 01 00 00       	push   $0x140
  2809c7:	53                   	push   %ebx
  2809c8:	e8 b8 fe ff ff       	call   280885 <boxfill8>
    boxfill8(p,320,0, 2,  y-3,  59,  y-3);
  2809cd:	83 c4 38             	add    $0x38,%esp
  2809d0:	68 c5 00 00 00       	push   $0xc5
  2809d5:	6a 3b                	push   $0x3b
  2809d7:	68 c5 00 00 00       	push   $0xc5
  2809dc:	6a 02                	push   $0x2
  2809de:	6a 00                	push   $0x0
  2809e0:	68 40 01 00 00       	push   $0x140
  2809e5:	53                   	push   %ebx
  2809e6:	e8 9a fe ff ff       	call   280885 <boxfill8>
    boxfill8(p,320,0, 60, y-24, 60,  y-3);
  2809eb:	68 c5 00 00 00       	push   $0xc5
  2809f0:	6a 3c                	push   $0x3c
  2809f2:	68 b0 00 00 00       	push   $0xb0
  2809f7:	6a 3c                	push   $0x3c
  2809f9:	6a 00                	push   $0x0
  2809fb:	68 40 01 00 00       	push   $0x140
  280a00:	53                   	push   %ebx
  280a01:	e8 7f fe ff ff       	call   280885 <boxfill8>

//
//right button
    boxfill8(p,320,15, x-47, y-24,x-4,y-24);
  280a06:	83 c4 38             	add    $0x38,%esp
  280a09:	68 b0 00 00 00       	push   $0xb0
  280a0e:	68 3c 01 00 00       	push   $0x13c
  280a13:	68 b0 00 00 00       	push   $0xb0
  280a18:	68 11 01 00 00       	push   $0x111
  280a1d:	6a 0f                	push   $0xf
  280a1f:	68 40 01 00 00       	push   $0x140
  280a24:	53                   	push   %ebx
  280a25:	e8 5b fe ff ff       	call   280885 <boxfill8>
    boxfill8(p,320,15, x-47, y-23,x-47,y-4);
  280a2a:	68 c4 00 00 00       	push   $0xc4
  280a2f:	68 11 01 00 00       	push   $0x111
  280a34:	68 b1 00 00 00       	push   $0xb1
  280a39:	68 11 01 00 00       	push   $0x111
  280a3e:	6a 0f                	push   $0xf
  280a40:	68 40 01 00 00       	push   $0x140
  280a45:	53                   	push   %ebx
  280a46:	e8 3a fe ff ff       	call   280885 <boxfill8>
    boxfill8(p,320,7, x-47, y-3,x-4,y-3);
  280a4b:	83 c4 38             	add    $0x38,%esp
  280a4e:	68 c5 00 00 00       	push   $0xc5
  280a53:	68 3c 01 00 00       	push   $0x13c
  280a58:	68 c5 00 00 00       	push   $0xc5
  280a5d:	68 11 01 00 00       	push   $0x111
  280a62:	6a 07                	push   $0x7
  280a64:	68 40 01 00 00       	push   $0x140
  280a69:	53                   	push   %ebx
  280a6a:	e8 16 fe ff ff       	call   280885 <boxfill8>
    boxfill8(p,320,7, x-3, y-24,x-3,y-3);
  280a6f:	68 c5 00 00 00       	push   $0xc5
  280a74:	68 3d 01 00 00       	push   $0x13d
  280a79:	68 b0 00 00 00       	push   $0xb0
  280a7e:	68 3d 01 00 00       	push   $0x13d
  280a83:	6a 07                	push   $0x7
  280a85:	68 40 01 00 00       	push   $0x140
  280a8a:	53                   	push   %ebx
  280a8b:	e8 f5 fd ff ff       	call   280885 <boxfill8>
  280a90:	83 c4 38             	add    $0x38,%esp
}
  280a93:	8b 5d fc             	mov    -0x4(%ebp),%ebx
  280a96:	c9                   	leave  
  280a97:	c3                   	ret    

00280a98 <draw_window>:
void draw_window()
{
  280a98:	55                   	push   %ebp
  280a99:	89 e5                	mov    %esp,%ebp
  int x=320,y=200;
    p=(unsigned char*)VRAM;
//     boxfill8(p,320,110,20,20,250,150);

    //draw a window
    boxfill(7 ,0, 0   ,x-1,y-29);
  280a9b:	68 ab 00 00 00       	push   $0xab
  280aa0:	68 3f 01 00 00       	push   $0x13f
  280aa5:	6a 00                	push   $0x0
  280aa7:	6a 00                	push   $0x0
  280aa9:	6a 07                	push   $0x7
  280aab:	e8 04 fe ff ff       	call   2808b4 <boxfill>
//task button
    boxfill(8  ,0, y-28,x-1,y-28);
  280ab0:	68 ac 00 00 00       	push   $0xac
  280ab5:	68 3f 01 00 00       	push   $0x13f
  280aba:	68 ac 00 00 00       	push   $0xac
  280abf:	6a 00                	push   $0x0
  280ac1:	6a 08                	push   $0x8
  280ac3:	e8 ec fd ff ff       	call   2808b4 <boxfill>
    boxfill(7  ,0, y-27,x-1,y-27);
  280ac8:	83 c4 28             	add    $0x28,%esp
  280acb:	68 ad 00 00 00       	push   $0xad
  280ad0:	68 3f 01 00 00       	push   $0x13f
  280ad5:	68 ad 00 00 00       	push   $0xad
  280ada:	6a 00                	push   $0x0
  280adc:	6a 07                	push   $0x7
  280ade:	e8 d1 fd ff ff       	call   2808b4 <boxfill>
    boxfill(8  ,0, y-26,x-1,y-1);
  280ae3:	68 c7 00 00 00       	push   $0xc7
  280ae8:	68 3f 01 00 00       	push   $0x13f
  280aed:	68 ae 00 00 00       	push   $0xae
  280af2:	6a 00                	push   $0x0
  280af4:	6a 08                	push   $0x8
  280af6:	e8 b9 fd ff ff       	call   2808b4 <boxfill>


//left button
    boxfill(7, 3,  y-24, 59,  y-24);
  280afb:	83 c4 28             	add    $0x28,%esp
  280afe:	68 b0 00 00 00       	push   $0xb0
  280b03:	6a 3b                	push   $0x3b
  280b05:	68 b0 00 00 00       	push   $0xb0
  280b0a:	6a 03                	push   $0x3
  280b0c:	6a 07                	push   $0x7
  280b0e:	e8 a1 fd ff ff       	call   2808b4 <boxfill>
    boxfill(7, 2,  y-24, 2 ,  y-4);
  280b13:	68 c4 00 00 00       	push   $0xc4
  280b18:	6a 02                	push   $0x2
  280b1a:	68 b0 00 00 00       	push   $0xb0
  280b1f:	6a 02                	push   $0x2
  280b21:	6a 07                	push   $0x7
  280b23:	e8 8c fd ff ff       	call   2808b4 <boxfill>
    boxfill(15, 3,  y-4,  59,  y-4);
  280b28:	83 c4 28             	add    $0x28,%esp
  280b2b:	68 c4 00 00 00       	push   $0xc4
  280b30:	6a 3b                	push   $0x3b
  280b32:	68 c4 00 00 00       	push   $0xc4
  280b37:	6a 03                	push   $0x3
  280b39:	6a 0f                	push   $0xf
  280b3b:	e8 74 fd ff ff       	call   2808b4 <boxfill>
    boxfill(15, 59, y-23, 59,  y-5);
  280b40:	68 c3 00 00 00       	push   $0xc3
  280b45:	6a 3b                	push   $0x3b
  280b47:	68 b1 00 00 00       	push   $0xb1
  280b4c:	6a 3b                	push   $0x3b
  280b4e:	6a 0f                	push   $0xf
  280b50:	e8 5f fd ff ff       	call   2808b4 <boxfill>
    boxfill(0, 2,  y-3,  59,  y-3);
  280b55:	83 c4 28             	add    $0x28,%esp
  280b58:	68 c5 00 00 00       	push   $0xc5
  280b5d:	6a 3b                	push   $0x3b
  280b5f:	68 c5 00 00 00       	push   $0xc5
  280b64:	6a 02                	push   $0x2
  280b66:	6a 00                	push   $0x0
  280b68:	e8 47 fd ff ff       	call   2808b4 <boxfill>
    boxfill(0, 60, y-24, 60,  y-3);
  280b6d:	68 c5 00 00 00       	push   $0xc5
  280b72:	6a 3c                	push   $0x3c
  280b74:	68 b0 00 00 00       	push   $0xb0
  280b79:	6a 3c                	push   $0x3c
  280b7b:	6a 00                	push   $0x0
  280b7d:	e8 32 fd ff ff       	call   2808b4 <boxfill>

//
//right button
    boxfill(15, x-47, y-24,x-4,y-24);
  280b82:	83 c4 28             	add    $0x28,%esp
  280b85:	68 b0 00 00 00       	push   $0xb0
  280b8a:	68 3c 01 00 00       	push   $0x13c
  280b8f:	68 b0 00 00 00       	push   $0xb0
  280b94:	68 11 01 00 00       	push   $0x111
  280b99:	6a 0f                	push   $0xf
  280b9b:	e8 14 fd ff ff       	call   2808b4 <boxfill>
    boxfill(15, x-47, y-23,x-47,y-4);
  280ba0:	68 c4 00 00 00       	push   $0xc4
  280ba5:	68 11 01 00 00       	push   $0x111
  280baa:	68 b1 00 00 00       	push   $0xb1
  280baf:	68 11 01 00 00       	push   $0x111
  280bb4:	6a 0f                	push   $0xf
  280bb6:	e8 f9 fc ff ff       	call   2808b4 <boxfill>
    boxfill(7, x-47, y-3,x-4,y-3);
  280bbb:	83 c4 28             	add    $0x28,%esp
  280bbe:	68 c5 00 00 00       	push   $0xc5
  280bc3:	68 3c 01 00 00       	push   $0x13c
  280bc8:	68 c5 00 00 00       	push   $0xc5
  280bcd:	68 11 01 00 00       	push   $0x111
  280bd2:	6a 07                	push   $0x7
  280bd4:	e8 db fc ff ff       	call   2808b4 <boxfill>
    boxfill(7, x-3, y-24,x-3,y-3);
  280bd9:	68 c5 00 00 00       	push   $0xc5
  280bde:	68 3d 01 00 00       	push   $0x13d
  280be3:	68 b0 00 00 00       	push   $0xb0
  280be8:	68 3d 01 00 00       	push   $0x13d
  280bed:	6a 07                	push   $0x7
  280bef:	e8 c0 fc ff ff       	call   2808b4 <boxfill>
  280bf4:	83 c4 28             	add    $0x28,%esp
}
  280bf7:	c9                   	leave  
  280bf8:	c3                   	ret    

00280bf9 <init_screen>:


void init_screen(struct boot_info * bootp)
{
  280bf9:	55                   	push   %ebp
  280bfa:	89 e5                	mov    %esp,%ebp
  280bfc:	8b 45 08             	mov    0x8(%ebp),%eax
  bootp->vram=(char *)VRAM;
  280bff:	c7 40 08 00 00 0a 00 	movl   $0xa0000,0x8(%eax)
  bootp->color_mode=8;
  280c06:	c6 40 02 08          	movb   $0x8,0x2(%eax)
  bootp->xsize=320;
  280c0a:	66 c7 40 04 40 01    	movw   $0x140,0x4(%eax)
  bootp->ysize=200;
  280c10:	66 c7 40 06 c8 00    	movw   $0xc8,0x6(%eax)

}
  280c16:	5d                   	pop    %ebp
  280c17:	c3                   	ret    

00280c18 <init_mouse>:

///关于mouse的函数
void init_mouse(char *mouse,char bg)
{
  280c18:	55                   	push   %ebp
  280c19:	31 c9                	xor    %ecx,%ecx
  280c1b:	89 e5                	mov    %esp,%ebp
  280c1d:	8a 45 0c             	mov    0xc(%ebp),%al
  280c20:	8b 55 08             	mov    0x8(%ebp),%edx
  280c23:	56                   	push   %esi
  280c24:	53                   	push   %ebx
  280c25:	89 c6                	mov    %eax,%esi
  280c27:	31 c0                	xor    %eax,%eax
	int x,y;
	for(y=0;y<16;y++)
	{
	  for(x=0;x<16;x++)
	  {
	    switch (cursor[y][x])
  280c29:	8a 9c 01 20 74 28 00 	mov    0x287420(%ecx,%eax,1),%bl
  280c30:	80 fb 2e             	cmp    $0x2e,%bl
  280c33:	74 10                	je     280c45 <init_mouse+0x2d>
  280c35:	80 fb 4f             	cmp    $0x4f,%bl
  280c38:	74 12                	je     280c4c <init_mouse+0x34>
  280c3a:	80 fb 2a             	cmp    $0x2a,%bl
  280c3d:	75 11                	jne    280c50 <init_mouse+0x38>
	    {
	      case '.':mouse[x+16*y]=bg;break;  //background
	      case '*':mouse[x+16*y]=outline;break;   //outline
  280c3f:	c6 04 02 00          	movb   $0x0,(%edx,%eax,1)
  280c43:	eb 0b                	jmp    280c50 <init_mouse+0x38>
	{
	  for(x=0;x<16;x++)
	  {
	    switch (cursor[y][x])
	    {
	      case '.':mouse[x+16*y]=bg;break;  //background
  280c45:	89 f3                	mov    %esi,%ebx
  280c47:	88 1c 02             	mov    %bl,(%edx,%eax,1)
  280c4a:	eb 04                	jmp    280c50 <init_mouse+0x38>
	      case '*':mouse[x+16*y]=outline;break;   //outline
	      case 'O':mouse[x+16*y]=inside;break;  //inside
  280c4c:	c6 04 02 02          	movb   $0x2,(%edx,%eax,1)
		".............***"
	};
	int x,y;
	for(y=0;y<16;y++)
	{
	  for(x=0;x<16;x++)
  280c50:	40                   	inc    %eax
  280c51:	83 f8 10             	cmp    $0x10,%eax
  280c54:	75 d3                	jne    280c29 <init_mouse+0x11>
  280c56:	83 c1 10             	add    $0x10,%ecx
  280c59:	83 c2 10             	add    $0x10,%edx
		"*..........*OOO*",
		"............*OO*",
		".............***"
	};
	int x,y;
	for(y=0;y<16;y++)
  280c5c:	81 f9 00 01 00 00    	cmp    $0x100,%ecx
  280c62:	75 c3                	jne    280c27 <init_mouse+0xf>

	  }

	}

}
  280c64:	5b                   	pop    %ebx
  280c65:	5e                   	pop    %esi
  280c66:	5d                   	pop    %ebp
  280c67:	c3                   	ret    

00280c68 <display_mouse>:

void display_mouse(char *vram,int xsize,int pxsize,int pysize,int px0,int py0,char *buf,int bxsize)
{
  280c68:	55                   	push   %ebp
  280c69:	89 e5                	mov    %esp,%ebp
  280c6b:	8b 45 1c             	mov    0x1c(%ebp),%eax
  280c6e:	56                   	push   %esi
  int x,y;
  for(y=0;y<pysize;y++)
  280c6f:	31 f6                	xor    %esi,%esi
	}

}

void display_mouse(char *vram,int xsize,int pxsize,int pysize,int px0,int py0,char *buf,int bxsize)
{
  280c71:	53                   	push   %ebx
  280c72:	8b 5d 20             	mov    0x20(%ebp),%ebx
  280c75:	0f af 45 0c          	imul   0xc(%ebp),%eax
  280c79:	03 45 18             	add    0x18(%ebp),%eax
  280c7c:	03 45 08             	add    0x8(%ebp),%eax
  int x,y;
  for(y=0;y<pysize;y++)
  280c7f:	3b 75 14             	cmp    0x14(%ebp),%esi
  280c82:	7d 19                	jge    280c9d <display_mouse+0x35>
  280c84:	31 d2                	xor    %edx,%edx
  {
    for(x=0;x<pxsize;x++)
  280c86:	3b 55 10             	cmp    0x10(%ebp),%edx
  280c89:	7d 09                	jge    280c94 <display_mouse+0x2c>
    {
     vram[(py0+y)*xsize+(px0+x)]=buf[y*bxsize+x];
  280c8b:	8a 0c 13             	mov    (%ebx,%edx,1),%cl
  280c8e:	88 0c 10             	mov    %cl,(%eax,%edx,1)
void display_mouse(char *vram,int xsize,int pxsize,int pysize,int px0,int py0,char *buf,int bxsize)
{
  int x,y;
  for(y=0;y<pysize;y++)
  {
    for(x=0;x<pxsize;x++)
  280c91:	42                   	inc    %edx
  280c92:	eb f2                	jmp    280c86 <display_mouse+0x1e>
}

void display_mouse(char *vram,int xsize,int pxsize,int pysize,int px0,int py0,char *buf,int bxsize)
{
  int x,y;
  for(y=0;y<pysize;y++)
  280c94:	46                   	inc    %esi
  280c95:	03 5d 24             	add    0x24(%ebp),%ebx
  280c98:	03 45 0c             	add    0xc(%ebp),%eax
  280c9b:	eb e2                	jmp    280c7f <display_mouse+0x17>
    {
     vram[(py0+y)*xsize+(px0+x)]=buf[y*bxsize+x];
    }
  }

}
  280c9d:	5b                   	pop    %ebx
  280c9e:	5e                   	pop    %esi
  280c9f:	5d                   	pop    %ebp
  280ca0:	c3                   	ret    

00280ca1 <make_window8>:


*/

void make_window8(unsigned char *buf,int xsize,int ysize,char *title)
{
  280ca1:	55                   	push   %ebp
  280ca2:	89 e5                	mov    %esp,%ebp
  280ca4:	57                   	push   %edi
  280ca5:	56                   	push   %esi
  280ca6:	53                   	push   %ebx
  280ca7:	83 ec 1c             	sub    $0x1c,%esp
  280caa:	8b 5d 0c             	mov    0xc(%ebp),%ebx
		"@@@@@@@@@@@@@@@@"
	};

	int x,y;
	char c;
    boxfill8(buf, xsize, 8, 0,         0,         xsize - 1, 0        );
  280cad:	6a 00                	push   $0x0


*/

void make_window8(unsigned char *buf,int xsize,int ysize,char *title)
{
  280caf:	8b 75 08             	mov    0x8(%ebp),%esi
		"@@@@@@@@@@@@@@@@"
	};

	int x,y;
	char c;
    boxfill8(buf, xsize, 8, 0,         0,         xsize - 1, 0        );
  280cb2:	8d 7b ff             	lea    -0x1(%ebx),%edi
  280cb5:	57                   	push   %edi
  280cb6:	6a 00                	push   $0x0
  280cb8:	6a 00                	push   $0x0
  280cba:	6a 08                	push   $0x8
  280cbc:	53                   	push   %ebx
  280cbd:	56                   	push   %esi
  280cbe:	e8 c2 fb ff ff       	call   280885 <boxfill8>
	boxfill8(buf, xsize, 7, 1,         1,         xsize - 2, 1        );
  280cc3:	8d 53 fe             	lea    -0x2(%ebx),%edx
  280cc6:	6a 01                	push   $0x1
  280cc8:	52                   	push   %edx
  280cc9:	6a 01                	push   $0x1
  280ccb:	6a 01                	push   $0x1
  280ccd:	6a 07                	push   $0x7
  280ccf:	53                   	push   %ebx
  280cd0:	56                   	push   %esi
  280cd1:	89 55 d8             	mov    %edx,-0x28(%ebp)
  280cd4:	e8 ac fb ff ff       	call   280885 <boxfill8>
	boxfill8(buf, xsize, 8, 0,         0,         0,         ysize - 1);
  280cd9:	8b 45 10             	mov    0x10(%ebp),%eax
  280cdc:	83 c4 38             	add    $0x38,%esp
  280cdf:	48                   	dec    %eax
  280ce0:	50                   	push   %eax
  280ce1:	6a 00                	push   $0x0
  280ce3:	6a 00                	push   $0x0
  280ce5:	6a 00                	push   $0x0
  280ce7:	6a 08                	push   $0x8
  280ce9:	53                   	push   %ebx
  280cea:	56                   	push   %esi
  280ceb:	89 45 e4             	mov    %eax,-0x1c(%ebp)
  280cee:	e8 92 fb ff ff       	call   280885 <boxfill8>
	boxfill8(buf, xsize, 7, 1,         1,         1,         ysize - 2);
  280cf3:	8b 55 10             	mov    0x10(%ebp),%edx
  280cf6:	8d 42 fe             	lea    -0x2(%edx),%eax
  280cf9:	50                   	push   %eax
  280cfa:	6a 01                	push   $0x1
  280cfc:	6a 01                	push   $0x1
  280cfe:	6a 01                	push   $0x1
  280d00:	6a 07                	push   $0x7
  280d02:	53                   	push   %ebx
  280d03:	56                   	push   %esi
  280d04:	89 45 e0             	mov    %eax,-0x20(%ebp)
  280d07:	e8 79 fb ff ff       	call   280885 <boxfill8>
	boxfill8(buf, xsize, 15, xsize - 2, 1,         xsize - 2, ysize - 2);
  280d0c:	8b 45 e0             	mov    -0x20(%ebp),%eax
  280d0f:	83 c4 38             	add    $0x38,%esp
  280d12:	8b 55 d8             	mov    -0x28(%ebp),%edx
  280d15:	50                   	push   %eax
  280d16:	52                   	push   %edx
  280d17:	6a 01                	push   $0x1
  280d19:	52                   	push   %edx
  280d1a:	6a 0f                	push   $0xf
  280d1c:	53                   	push   %ebx
  280d1d:	56                   	push   %esi
  280d1e:	89 45 dc             	mov    %eax,-0x24(%ebp)
  280d21:	89 55 e0             	mov    %edx,-0x20(%ebp)
  280d24:	e8 5c fb ff ff       	call   280885 <boxfill8>
	boxfill8(buf, xsize, 0, xsize - 1, 0,         xsize - 1, ysize - 1);
  280d29:	ff 75 e4             	pushl  -0x1c(%ebp)
  280d2c:	57                   	push   %edi
  280d2d:	6a 00                	push   $0x0
  280d2f:	57                   	push   %edi
  280d30:	6a 00                	push   $0x0
  280d32:	53                   	push   %ebx
  280d33:	56                   	push   %esi
  280d34:	e8 4c fb ff ff       	call   280885 <boxfill8>
	boxfill8(buf, xsize, 8, 2,         2,         xsize - 3, ysize - 3);
  280d39:	8b 55 10             	mov    0x10(%ebp),%edx
  280d3c:	83 c4 38             	add    $0x38,%esp
  280d3f:	8d 4a fd             	lea    -0x3(%edx),%ecx
  280d42:	51                   	push   %ecx
  280d43:	8d 4b fd             	lea    -0x3(%ebx),%ecx
  280d46:	51                   	push   %ecx
  280d47:	6a 02                	push   $0x2
  280d49:	6a 02                	push   $0x2
  280d4b:	6a 08                	push   $0x8
  280d4d:	53                   	push   %ebx
  280d4e:	56                   	push   %esi
  280d4f:	e8 31 fb ff ff       	call   280885 <boxfill8>
	boxfill8(buf, xsize, 12, 3,         3,         xsize - 4, 20       );
  280d54:	8d 4b fc             	lea    -0x4(%ebx),%ecx
  280d57:	6a 14                	push   $0x14
  280d59:	51                   	push   %ecx
  280d5a:	6a 03                	push   $0x3
  280d5c:	6a 03                	push   $0x3
  280d5e:	6a 0c                	push   $0xc
  280d60:	53                   	push   %ebx
  280d61:	56                   	push   %esi
  280d62:	e8 1e fb ff ff       	call   280885 <boxfill8>
	boxfill8(buf, xsize, 15, 1,         ysize - 2, xsize - 2, ysize - 2);
  280d67:	8b 45 dc             	mov    -0x24(%ebp),%eax
  280d6a:	83 c4 38             	add    $0x38,%esp
  280d6d:	8b 55 e0             	mov    -0x20(%ebp),%edx
  280d70:	50                   	push   %eax
  280d71:	52                   	push   %edx
  280d72:	50                   	push   %eax
  280d73:	6a 01                	push   $0x1
  280d75:	6a 0f                	push   $0xf
  280d77:	53                   	push   %ebx
  280d78:	56                   	push   %esi
  280d79:	e8 07 fb ff ff       	call   280885 <boxfill8>
	boxfill8(buf, xsize, 0, 0,         ysize - 1, xsize - 1, ysize - 1);
  280d7e:	8b 45 e4             	mov    -0x1c(%ebp),%eax
  280d81:	50                   	push   %eax
  280d82:	57                   	push   %edi


 puts8(buf,xsize,24,4,7,title);
  280d83:	31 ff                	xor    %edi,%edi
	boxfill8(buf, xsize, 15, xsize - 2, 1,         xsize - 2, ysize - 2);
	boxfill8(buf, xsize, 0, xsize - 1, 0,         xsize - 1, ysize - 1);
	boxfill8(buf, xsize, 8, 2,         2,         xsize - 3, ysize - 3);
	boxfill8(buf, xsize, 12, 3,         3,         xsize - 4, 20       );
	boxfill8(buf, xsize, 15, 1,         ysize - 2, xsize - 2, ysize - 2);
	boxfill8(buf, xsize, 0, 0,         ysize - 1, xsize - 1, ysize - 1);
  280d85:	50                   	push   %eax
  280d86:	6a 00                	push   $0x0
  280d88:	6a 00                	push   $0x0
  280d8a:	53                   	push   %ebx
  280d8b:	56                   	push   %esi
  280d8c:	e8 f4 fa ff ff       	call   280885 <boxfill8>


 puts8(buf,xsize,24,4,7,title);
  280d91:	83 c4 30             	add    $0x30,%esp
  280d94:	ff 75 14             	pushl  0x14(%ebp)
  280d97:	6a 07                	push   $0x7
  280d99:	6a 04                	push   $0x4
  280d9b:	6a 18                	push   $0x18
  280d9d:	53                   	push   %ebx
  280d9e:	56                   	push   %esi
  280d9f:	e8 83 03 00 00       	call   281127 <puts8>
  280da4:	6b c3 06             	imul   $0x6,%ebx,%eax
  280da7:	83 c4 20             	add    $0x20,%esp
  280daa:	31 d2                	xor    %edx,%edx
  280dac:	01 c6                	add    %eax,%esi


*/

void make_window8(unsigned char *buf,int xsize,int ysize,char *title)
{
  280dae:	31 c0                	xor    %eax,%eax
 //write the x button to the buf
 for(y=0;y<14;y++)
 {
    for(x=0;x<16;x++)
    {
        c=closebtn[y][x];
  280db0:	8a 8c 02 40 73 28 00 	mov    0x287340(%edx,%eax,1),%cl
        if(c=='@')
  280db7:	80 f9 40             	cmp    $0x40,%cl
  280dba:	74 10                	je     280dcc <make_window8+0x12b>
        c=0;
        else if(c=='$')
  280dbc:	80 f9 24             	cmp    $0x24,%cl
  280dbf:	74 0f                	je     280dd0 <make_window8+0x12f>
        c=15;
        else if(c=='Q')
        c=8;
  280dc1:	80 f9 51             	cmp    $0x51,%cl
  280dc4:	0f 94 c1             	sete   %cl
  280dc7:	83 c1 07             	add    $0x7,%ecx
  280dca:	eb 06                	jmp    280dd2 <make_window8+0x131>
 {
    for(x=0;x<16;x++)
    {
        c=closebtn[y][x];
        if(c=='@')
        c=0;
  280dcc:	31 c9                	xor    %ecx,%ecx
  280dce:	eb 02                	jmp    280dd2 <make_window8+0x131>
        else if(c=='$')
        c=15;
  280dd0:	b1 0f                	mov    $0xf,%cl

 puts8(buf,xsize,24,4,7,title);
 //write the x button to the buf
 for(y=0;y<14;y++)
 {
    for(x=0;x<16;x++)
  280dd2:	40                   	inc    %eax
  280dd3:	83 f8 10             	cmp    $0x10,%eax
  280dd6:	75 d8                	jne    280db0 <make_window8+0x10f>
  280dd8:	83 c2 10             	add    $0x10,%edx
        c=15;
        else if(c=='Q')
        c=8;
        else c=7;
    }
    buf[(5+y)*xsize+(xsize-21+x)]=c;
  280ddb:	88 4c 3e fb          	mov    %cl,-0x5(%esi,%edi,1)
  280ddf:	01 df                	add    %ebx,%edi
	boxfill8(buf, xsize, 0, 0,         ysize - 1, xsize - 1, ysize - 1);


 puts8(buf,xsize,24,4,7,title);
 //write the x button to the buf
 for(y=0;y<14;y++)
  280de1:	81 fa e0 00 00 00    	cmp    $0xe0,%edx
  280de7:	75 c5                	jne    280dae <make_window8+0x10d>
    buf[(5+y)*xsize+(xsize-21+x)]=c;


 }
 return;
}
  280de9:	8d 65 f4             	lea    -0xc(%ebp),%esp
  280dec:	5b                   	pop    %ebx
  280ded:	5e                   	pop    %esi
  280dee:	5f                   	pop    %edi
  280def:	5d                   	pop    %ebp
  280df0:	c3                   	ret    

00280df1 <wrtrfrsh>:

void wrtrfrsh(SHEET * sht,int x,int y,unsigned char fontcolor,unsigned backcolor,char *s,int length)
{
  280df1:	55                   	push   %ebp
  280df2:	89 e5                	mov    %esp,%ebp
  280df4:	57                   	push   %edi
  280df5:	56                   	push   %esi
  280df6:	53                   	push   %ebx
  280df7:	83 ec 1c             	sub    $0x1c,%esp
  280dfa:	8b 45 14             	mov    0x14(%ebp),%eax
  280dfd:	8b 7d 10             	mov    0x10(%ebp),%edi
  280e00:	8b 75 0c             	mov    0xc(%ebp),%esi
  280e03:	8b 4d 1c             	mov    0x1c(%ebp),%ecx
  280e06:	89 45 e4             	mov    %eax,-0x1c(%ebp)
  boxfill8(sht->buf,sht->bxsize,backcolor, x,y,x+length*8-1,y+15);
  280e09:	8b 45 20             	mov    0x20(%ebp),%eax
  280e0c:	8d 57 0f             	lea    0xf(%edi),%edx
 }
 return;
}

void wrtrfrsh(SHEET * sht,int x,int y,unsigned char fontcolor,unsigned backcolor,char *s,int length)
{
  280e0f:	8b 5d 08             	mov    0x8(%ebp),%ebx
  boxfill8(sht->buf,sht->bxsize,backcolor, x,y,x+length*8-1,y+15);
  280e12:	52                   	push   %edx
  280e13:	8d 44 c6 ff          	lea    -0x1(%esi,%eax,8),%eax
 }
 return;
}

void wrtrfrsh(SHEET * sht,int x,int y,unsigned char fontcolor,unsigned backcolor,char *s,int length)
{
  280e17:	89 4d e0             	mov    %ecx,-0x20(%ebp)
  280e1a:	0f b6 4d 18          	movzbl 0x18(%ebp),%ecx
  boxfill8(sht->buf,sht->bxsize,backcolor, x,y,x+length*8-1,y+15);
  280e1e:	50                   	push   %eax
  280e1f:	57                   	push   %edi
  280e20:	56                   	push   %esi
  280e21:	51                   	push   %ecx
  280e22:	ff 73 04             	pushl  0x4(%ebx)
  280e25:	ff 33                	pushl  (%ebx)
  280e27:	89 55 d8             	mov    %edx,-0x28(%ebp)
  280e2a:	89 45 dc             	mov    %eax,-0x24(%ebp)
  280e2d:	e8 53 fa ff ff       	call   280885 <boxfill8>
  puts8(sht->buf ,sht->bxsize,x,y,fontcolor,s);
  280e32:	0f be 4d e4          	movsbl -0x1c(%ebp),%ecx
  280e36:	58                   	pop    %eax
  280e37:	ff 75 e0             	pushl  -0x20(%ebp)
  280e3a:	51                   	push   %ecx
  280e3b:	57                   	push   %edi
  280e3c:	56                   	push   %esi
  280e3d:	ff 73 04             	pushl  0x4(%ebx)
  280e40:	ff 33                	pushl  (%ebx)
  280e42:	e8 e0 02 00 00       	call   281127 <puts8>
  sheet_refresh(sht,x,y,x+length*8-1,y+15);
  280e47:	8b 55 d8             	mov    -0x28(%ebp),%edx
  280e4a:	83 c4 30             	add    $0x30,%esp
  280e4d:	8b 45 dc             	mov    -0x24(%ebp),%eax
  280e50:	89 7d 10             	mov    %edi,0x10(%ebp)
  280e53:	89 75 0c             	mov    %esi,0xc(%ebp)
  280e56:	89 5d 08             	mov    %ebx,0x8(%ebp)
  280e59:	89 55 18             	mov    %edx,0x18(%ebp)
  280e5c:	89 45 14             	mov    %eax,0x14(%ebp)
}
  280e5f:	8d 65 f4             	lea    -0xc(%ebp),%esp
  280e62:	5b                   	pop    %ebx
  280e63:	5e                   	pop    %esi
  280e64:	5f                   	pop    %edi
  280e65:	5d                   	pop    %ebp

void wrtrfrsh(SHEET * sht,int x,int y,unsigned char fontcolor,unsigned backcolor,char *s,int length)
{
  boxfill8(sht->buf,sht->bxsize,backcolor, x,y,x+length*8-1,y+15);
  puts8(sht->buf ,sht->bxsize,x,y,fontcolor,s);
  sheet_refresh(sht,x,y,x+length*8-1,y+15);
  280e66:	e9 c6 0c 00 00       	jmp    281b31 <sheet_refresh>

00280e6b <init_pit>:
#include<x86.h>
#include<timer.h>

extern TIMERCTL *gtimerctl;
void init_pit(TIMERCTL *timerctl)
{
  280e6b:	55                   	push   %ebp
// out:write a data to a port
static __inline void
outb(int port, uint8_t data)
{
  //data是变量0%0 , port是变量word１%w1
	__asm __volatile("outb %0,%w1" : : "a" (data), "d" (port));
  280e6c:	ba 43 00 00 00       	mov    $0x43,%edx
  280e71:	89 e5                	mov    %esp,%ebp
  280e73:	b0 34                	mov    $0x34,%al
  280e75:	8b 4d 08             	mov    0x8(%ebp),%ecx
  280e78:	ee                   	out    %al,(%dx)
  280e79:	b0 9c                	mov    $0x9c,%al
  280e7b:	b2 40                	mov    $0x40,%dl
  280e7d:	ee                   	out    %al,(%dx)
  280e7e:	b0 2e                	mov    $0x2e,%al
  280e80:	ee                   	out    %al,(%dx)
  280e81:	31 c0                	xor    %eax,%eax
 outb(0x40,0x9c);//0x9c 11932%256
 outb(0x40,0x2e);//0x2e  set interrupt cycle=10ms
 int i;
 for(i=0;i<MAX_TIMER;i++)
 {
  timerctl->timer[i].flag=0;//not used
  280e83:	c7 44 01 08 00 00 00 	movl   $0x0,0x8(%ecx,%eax,1)
  280e8a:	00 
  280e8b:	83 c0 10             	add    $0x10,%eax

 outb(0x43,0x34);//port(0x43)=0x34
 outb(0x40,0x9c);//0x9c 11932%256
 outb(0x40,0x2e);//0x2e  set interrupt cycle=10ms
 int i;
 for(i=0;i<MAX_TIMER;i++)
  280e8e:	3d 40 1f 00 00       	cmp    $0x1f40,%eax
  280e93:	75 ee                	jne    280e83 <init_pit+0x18>
 {
  timerctl->timer[i].flag=0;//not used
 }
  timerctl->number=0;
  280e95:	c7 41 04 00 00 00 00 	movl   $0x0,0x4(%ecx)
  timerctl->count=0;
  280e9c:	c7 01 00 00 00 00    	movl   $0x0,(%ecx)
 return;
}
  280ea2:	5d                   	pop    %ebp
  280ea3:	c3                   	ret    

00280ea4 <inthandler20>:


void inthandler20(int* esp)
{
  280ea4:	55                   	push   %ebp
  280ea5:	ba 20 00 00 00       	mov    $0x20,%edx
  280eaa:	89 e5                	mov    %esp,%ebp
  280eac:	b0 60                	mov    $0x60,%al
  280eae:	53                   	push   %ebx
  280eaf:	51                   	push   %ecx
  280eb0:	ee                   	out    %al,(%dx)
#define PIC0_OCW2		0x0020
    outb(PIC0_OCW2,0x60);
    gtimerctl->count++;
  280eb1:	a1 1c 9e 28 00       	mov    0x289e1c,%eax
    int i;
     //printdebug(timerctl.timer[0].flag,80);
    for(i=0;i<gtimerctl->number;i++)
  280eb6:	31 db                	xor    %ebx,%ebx

void inthandler20(int* esp)
{
#define PIC0_OCW2		0x0020
    outb(PIC0_OCW2,0x60);
    gtimerctl->count++;
  280eb8:	ff 00                	incl   (%eax)
    int i;
     //printdebug(timerctl.timer[0].flag,80);
    for(i=0;i<gtimerctl->number;i++)
  280eba:	8b 15 1c 9e 28 00    	mov    0x289e1c,%edx
  280ec0:	3b 5a 04             	cmp    0x4(%edx),%ebx
  280ec3:	73 30                	jae    280ef5 <inthandler20+0x51>
  280ec5:	89 d8                	mov    %ebx,%eax
  280ec7:	c1 e0 04             	shl    $0x4,%eax
  280eca:	01 d0                	add    %edx,%eax
    {
        if(gtimerctl->timer[i].flag==RUNNING)
  280ecc:	83 78 08 02          	cmpl   $0x2,0x8(%eax)
  280ed0:	75 20                	jne    280ef2 <inthandler20+0x4e>
        {

            if(gtimerctl->timer[i].timeout<=gtimerctl->count)
  280ed2:	8b 0a                	mov    (%edx),%ecx
  280ed4:	39 48 0c             	cmp    %ecx,0xc(%eax)
  280ed7:	77 19                	ja     280ef2 <inthandler20+0x4e>
            {

                gtimerctl->timer[i].flag=ALLOC;
  280ed9:	c7 40 08 01 00 00 00 	movl   $0x1,0x8(%eax)
                fifo8_write(gtimerctl->timer[i].fifo,gtimerctl->timer[i].data);
  280ee0:	52                   	push   %edx
  280ee1:	52                   	push   %edx
  280ee2:	0f b6 50 14          	movzbl 0x14(%eax),%edx
  280ee6:	52                   	push   %edx
  280ee7:	ff 70 10             	pushl  0x10(%eax)
  280eea:	e8 e4 06 00 00       	call   2815d3 <fifo8_write>
  280eef:	83 c4 10             	add    $0x10,%esp
#define PIC0_OCW2		0x0020
    outb(PIC0_OCW2,0x60);
    gtimerctl->count++;
    int i;
     //printdebug(timerctl.timer[0].flag,80);
    for(i=0;i<gtimerctl->number;i++)
  280ef2:	43                   	inc    %ebx
  280ef3:	eb c5                	jmp    280eba <inthandler20+0x16>
            }
        }
    }

  return;
}
  280ef5:	8b 5d fc             	mov    -0x4(%ebp),%ebx
  280ef8:	c9                   	leave  
  280ef9:	c3                   	ret    

00280efa <timer_alloc>:

TIMER * timer_alloc(TIMERCTL * timerctl,unsigned i)
{
  280efa:	55                   	push   %ebp

    //int i;
    for(i=0;i<MAX_TIMER;i++)
  280efb:	31 c0                	xor    %eax,%eax

  return;
}

TIMER * timer_alloc(TIMERCTL * timerctl,unsigned i)
{
  280efd:	89 e5                	mov    %esp,%ebp
  280eff:	8b 55 08             	mov    0x8(%ebp),%edx
  280f02:	89 c1                	mov    %eax,%ecx
  280f04:	c1 e1 04             	shl    $0x4,%ecx

    //int i;
    for(i=0;i<MAX_TIMER;i++)
    {
      if((timerctl->timer[i].flag)==0)//not used
  280f07:	83 7c 0a 08 00       	cmpl   $0x0,0x8(%edx,%ecx,1)
  280f0c:	75 12                	jne    280f20 <timer_alloc+0x26>
      {
       // printdebug(i,0);
        timerctl->timer[i].flag=1;
  280f0e:	8d 04 0a             	lea    (%edx,%ecx,1),%eax
  280f11:	c7 40 08 01 00 00 00 	movl   $0x1,0x8(%eax)
       // printdebug(i,150);
        timerctl->number++;
        return &(timerctl->timer[i]);
  280f18:	83 c0 08             	add    $0x8,%eax
      if((timerctl->timer[i].flag)==0)//not used
      {
       // printdebug(i,0);
        timerctl->timer[i].flag=1;
       // printdebug(i,150);
        timerctl->number++;
  280f1b:	ff 42 04             	incl   0x4(%edx)
        return &(timerctl->timer[i]);
  280f1e:	eb 0b                	jmp    280f2b <timer_alloc+0x31>

TIMER * timer_alloc(TIMERCTL * timerctl,unsigned i)
{

    //int i;
    for(i=0;i<MAX_TIMER;i++)
  280f20:	40                   	inc    %eax
  280f21:	3d f4 01 00 00       	cmp    $0x1f4,%eax
  280f26:	75 da                	jne    280f02 <timer_alloc+0x8>
     timerctl->number++;
      timerctl->timer[i].flag=ALLOC;
           return &(timerctl->timer[i]);
 */

     return 0;
  280f28:	66 31 c0             	xor    %ax,%ax
}
  280f2b:	5d                   	pop    %ebp
  280f2c:	c3                   	ret    

00280f2d <timer_free>:


void timer_free(TIMER *timer)
{
  280f2d:	55                   	push   %ebp
  280f2e:	89 e5                	mov    %esp,%ebp
  timer->flag=0;
  280f30:	8b 45 08             	mov    0x8(%ebp),%eax
  280f33:	c7 00 00 00 00 00    	movl   $0x0,(%eax)
  return;
}
  280f39:	5d                   	pop    %ebp
  280f3a:	c3                   	ret    

00280f3b <timer_init>:

void timer_init(TIMER *timer,struct FIFO8 *fifo,unsigned char data)
{
  280f3b:	55                   	push   %ebp
  280f3c:	89 e5                	mov    %esp,%ebp
  280f3e:	8b 45 08             	mov    0x8(%ebp),%eax
 timer->fifo=fifo;
  280f41:	8b 55 0c             	mov    0xc(%ebp),%edx
  280f44:	89 50 08             	mov    %edx,0x8(%eax)
 timer->data=data;
  280f47:	8b 55 10             	mov    0x10(%ebp),%edx
  280f4a:	88 50 0c             	mov    %dl,0xc(%eax)
 return;
}
  280f4d:	5d                   	pop    %ebp
  280f4e:	c3                   	ret    

00280f4f <timer_settime>:

void timer_settime(TIMER *timer,unsigned timeout,TIMERCTL * timerctl)
{
  280f4f:	55                   	push   %ebp
  280f50:	89 e5                	mov    %esp,%ebp
    timer->timeout=timeout+timerctl->count;//只是比当前的colock点多了timeout,记录的是时刻点
  280f52:	8b 45 10             	mov    0x10(%ebp),%eax
 timer->data=data;
 return;
}

void timer_settime(TIMER *timer,unsigned timeout,TIMERCTL * timerctl)
{
  280f55:	8b 55 08             	mov    0x8(%ebp),%edx
    timer->timeout=timeout+timerctl->count;//只是比当前的colock点多了timeout,记录的是时刻点
  280f58:	8b 00                	mov    (%eax),%eax
  280f5a:	03 45 0c             	add    0xc(%ebp),%eax
    timer->flag=RUNNING;
  280f5d:	c7 02 02 00 00 00    	movl   $0x2,(%edx)
 return;
}

void timer_settime(TIMER *timer,unsigned timeout,TIMERCTL * timerctl)
{
    timer->timeout=timeout+timerctl->count;//只是比当前的colock点多了timeout,记录的是时刻点
  280f63:	89 42 04             	mov    %eax,0x4(%edx)
    timer->flag=RUNNING;
    return;
}
  280f66:	5d                   	pop    %ebp
  280f67:	c3                   	ret    

00280f68 <itoa>:
boxfill(7,x,150,320,166);
puts8((char *)VRAM ,320,x,150,1,font);

}

void itoa(int value,unsigned char *buf){
  280f68:	55                   	push   %ebp
   unsigned char tmp_buf[10] = {0};
  280f69:	31 c0                	xor    %eax,%eax
boxfill(7,x,150,320,166);
puts8((char *)VRAM ,320,x,150,1,font);

}

void itoa(int value,unsigned char *buf){
  280f6b:	89 e5                	mov    %esp,%ebp
   unsigned char tmp_buf[10] = {0};
  280f6d:	b9 0a 00 00 00       	mov    $0xa,%ecx
boxfill(7,x,150,320,166);
puts8((char *)VRAM ,320,x,150,1,font);

}

void itoa(int value,unsigned char *buf){
  280f72:	57                   	push   %edi
  280f73:	56                   	push   %esi
  280f74:	53                   	push   %ebx
  280f75:	83 ec 10             	sub    $0x10,%esp
  280f78:	8b 55 08             	mov    0x8(%ebp),%edx
   unsigned char tmp_buf[10] = {0};
  280f7b:	8d 7d ea             	lea    -0x16(%ebp),%edi
boxfill(7,x,150,320,166);
puts8((char *)VRAM ,320,x,150,1,font);

}

void itoa(int value,unsigned char *buf){
  280f7e:	8b 5d 0c             	mov    0xc(%ebp),%ebx
   unsigned char tmp_buf[10] = {0};
  280f81:	f3 aa                	rep stos %al,%es:(%edi)
  280f83:	8d 7d ea             	lea    -0x16(%ebp),%edi
    unsigned char *tbp = tmp_buf;
    if((value >> 31) & 0x1)
  280f86:	85 d2                	test   %edx,%edx
  280f88:	79 06                	jns    280f90 <itoa+0x28>
    { /* neg num */
        *buf++ = '-';//得到负号
  280f8a:	c6 03 2d             	movb   $0x2d,(%ebx)
        value = ~value + 1; //将负数变为正数
  280f8d:	f7 da                	neg    %edx
void itoa(int value,unsigned char *buf){
   unsigned char tmp_buf[10] = {0};
    unsigned char *tbp = tmp_buf;
    if((value >> 31) & 0x1)
    { /* neg num */
        *buf++ = '-';//得到负号
  280f8f:	43                   	inc    %ebx
  280f90:	89 f9                	mov    %edi,%ecx



    do
    {
        *tbp++ = ('0' + (char)(value % 10));//得到低位数字
  280f92:	be 0a 00 00 00       	mov    $0xa,%esi
  280f97:	89 d0                	mov    %edx,%eax
  280f99:	41                   	inc    %ecx
  280f9a:	99                   	cltd   
  280f9b:	f7 fe                	idiv   %esi
  280f9d:	83 c2 30             	add    $0x30,%edx
        value /= 10;
    }while(value);
  280fa0:	85 c0                	test   %eax,%eax



    do
    {
        *tbp++ = ('0' + (char)(value % 10));//得到低位数字
  280fa2:	88 51 ff             	mov    %dl,-0x1(%ecx)
        value /= 10;
  280fa5:	89 c2                	mov    %eax,%edx
    }while(value);
  280fa7:	75 ee                	jne    280f97 <itoa+0x2f>



    do
    {
        *tbp++ = ('0' + (char)(value % 10));//得到低位数字
  280fa9:	89 ce                	mov    %ecx,%esi
  280fab:	89 d8                	mov    %ebx,%eax
        value /= 10;
    }while(value);


    while(tmp_buf != tbp)
  280fad:	39 f9                	cmp    %edi,%ecx
  280faf:	74 09                	je     280fba <itoa+0x52>
    {
      tbp--;
  280fb1:	49                   	dec    %ecx
      *buf++ = *tbp;
  280fb2:	8a 11                	mov    (%ecx),%dl
  280fb4:	40                   	inc    %eax
  280fb5:	88 50 ff             	mov    %dl,-0x1(%eax)
  280fb8:	eb f3                	jmp    280fad <itoa+0x45>
  280fba:	89 f0                	mov    %esi,%eax
  280fbc:	29 c8                	sub    %ecx,%eax

    }
    *buf='\0';
  280fbe:	c6 04 03 00          	movb   $0x0,(%ebx,%eax,1)


}
  280fc2:	83 c4 10             	add    $0x10,%esp
  280fc5:	5b                   	pop    %ebx
  280fc6:	5e                   	pop    %esi
  280fc7:	5f                   	pop    %edi
  280fc8:	5d                   	pop    %ebp
  280fc9:	c3                   	ret    

00280fca <xtoa>:
    else
        value = value + 48;
    return value;
}

void xtoa(unsigned int value,unsigned char *buf){
  280fca:	55                   	push   %ebp
   unsigned char tmp_buf[30] = {0};
  280fcb:	31 c0                	xor    %eax,%eax
    else
        value = value + 48;
    return value;
}

void xtoa(unsigned int value,unsigned char *buf){
  280fcd:	89 e5                	mov    %esp,%ebp
   unsigned char tmp_buf[30] = {0};
  280fcf:	b9 1e 00 00 00       	mov    $0x1e,%ecx
    else
        value = value + 48;
    return value;
}

void xtoa(unsigned int value,unsigned char *buf){
  280fd4:	57                   	push   %edi
  280fd5:	56                   	push   %esi
  280fd6:	53                   	push   %ebx
  280fd7:	83 ec 20             	sub    $0x20,%esp
  280fda:	8b 55 0c             	mov    0xc(%ebp),%edx
   unsigned char tmp_buf[30] = {0};
  280fdd:	8d 7d d6             	lea    -0x2a(%ebp),%edi
  280fe0:	f3 aa                	rep stos %al,%es:(%edi)
   unsigned char *tbp = tmp_buf;
  280fe2:	8d 45 d6             	lea    -0x2a(%ebp),%eax

    *buf++='0';
  280fe5:	c6 02 30             	movb   $0x30,(%edx)
    *buf++='x';
  280fe8:	8d 72 02             	lea    0x2(%edx),%esi
  280feb:	c6 42 01 78          	movb   $0x78,0x1(%edx)

    do
    {
        // *tbp++ = ('0' + (char)(value % 16));//得到低位数字
	*tbp++=fourbtoc(value&0x0000000f);
  280fef:	8b 5d 08             	mov    0x8(%ebp),%ebx
  280ff2:	40                   	inc    %eax
  280ff3:	83 e3 0f             	and    $0xf,%ebx


}
static  inline unsigned char fourbtoc(int value){
    if(value >= 10)
        value = value - 10 + 65;
  280ff6:	83 fb 0a             	cmp    $0xa,%ebx
  280ff9:	8d 4b 37             	lea    0x37(%ebx),%ecx
  280ffc:	8d 7b 30             	lea    0x30(%ebx),%edi
  280fff:	0f 4c cf             	cmovl  %edi,%ecx
        // *tbp++ = ('0' + (char)(value % 16));//得到低位数字
	*tbp++=fourbtoc(value&0x0000000f);

        //*tbp++ = ((value % 16)>9)?('A' + (char)(value % 16-10)):('0' + (char)(value % 16));//得到低位数字
        value >>= 4;
    }while(value);
  281002:	c1 6d 08 04          	shrl   $0x4,0x8(%ebp)
static  inline unsigned char fourbtoc(int value){
    if(value >= 10)
        value = value - 10 + 65;
    else
        value = value + 48;
    return value;
  281006:	88 48 ff             	mov    %cl,-0x1(%eax)
        // *tbp++ = ('0' + (char)(value % 16));//得到低位数字
	*tbp++=fourbtoc(value&0x0000000f);

        //*tbp++ = ((value % 16)>9)?('A' + (char)(value % 16-10)):('0' + (char)(value % 16));//得到低位数字
        value >>= 4;
    }while(value);
  281009:	75 e4                	jne    280fef <xtoa+0x25>
    *buf++='x';

    do
    {
        // *tbp++ = ('0' + (char)(value % 16));//得到低位数字
	*tbp++=fourbtoc(value&0x0000000f);
  28100b:	89 c3                	mov    %eax,%ebx
        //*tbp++ = ((value % 16)>9)?('A' + (char)(value % 16-10)):('0' + (char)(value % 16));//得到低位数字
        value >>= 4;
    }while(value);


    while(tmp_buf != tbp)
  28100d:	8d 7d d6             	lea    -0x2a(%ebp),%edi
  281010:	39 f8                	cmp    %edi,%eax
  281012:	74 09                	je     28101d <xtoa+0x53>
    {
      tbp--;
  281014:	48                   	dec    %eax
      *buf++ = *tbp;
  281015:	8a 08                	mov    (%eax),%cl
  281017:	46                   	inc    %esi
  281018:	88 4e ff             	mov    %cl,-0x1(%esi)
  28101b:	eb f0                	jmp    28100d <xtoa+0x43>
  28101d:	29 c3                	sub    %eax,%ebx

    }
    *buf='\0';
  28101f:	c6 44 1a 02 00       	movb   $0x0,0x2(%edx,%ebx,1)


}
  281024:	83 c4 20             	add    $0x20,%esp
  281027:	5b                   	pop    %ebx
  281028:	5e                   	pop    %esi
  281029:	5f                   	pop    %edi
  28102a:	5d                   	pop    %ebp
  28102b:	c3                   	ret    

0028102c <sprintf>:



//实现可变参数的打印，主要是为了观察打印的变量。
void sprintf( char *str, char *format ,...)
{
  28102c:	55                   	push   %ebp
  28102d:	89 e5                	mov    %esp,%ebp
  28102f:	57                   	push   %edi
  281030:	56                   	push   %esi
  281031:	53                   	push   %ebx
  281032:	83 ec 10             	sub    $0x10,%esp
  281035:	8b 5d 08             	mov    0x8(%ebp),%ebx

   int *var=(int *)(&format)+1; //得到第一个可变参数的地址
  281038:	8d 75 10             	lea    0x10(%ebp),%esi
    char buffer[10];
    char *buf=buffer;
  while(*format)
  28103b:	8b 7d 0c             	mov    0xc(%ebp),%edi
  28103e:	8a 07                	mov    (%edi),%al
  281040:	84 c0                	test   %al,%al
  281042:	0f 84 83 00 00 00    	je     2810cb <sprintf+0x9f>
  281048:	8d 4f 01             	lea    0x1(%edi),%ecx
  {
      if(*format!='%')
  28104b:	3c 25                	cmp    $0x25,%al
      {
	*str++=*format++;
  28104d:	89 4d 0c             	mov    %ecx,0xc(%ebp)
   int *var=(int *)(&format)+1; //得到第一个可变参数的地址
    char buffer[10];
    char *buf=buffer;
  while(*format)
  {
      if(*format!='%')
  281050:	74 05                	je     281057 <sprintf+0x2b>
      {
	*str++=*format++;
  281052:	88 03                	mov    %al,(%ebx)
  281054:	43                   	inc    %ebx
	continue;
  281055:	eb e4                	jmp    28103b <sprintf+0xf>
      }
      else
      {
	format++;
	switch (*format)
  281057:	8a 47 01             	mov    0x1(%edi),%al
  28105a:	3c 73                	cmp    $0x73,%al
  28105c:	74 46                	je     2810a4 <sprintf+0x78>
  28105e:	3c 78                	cmp    $0x78,%al
  281060:	74 23                	je     281085 <sprintf+0x59>
  281062:	3c 64                	cmp    $0x64,%al
  281064:	75 53                	jne    2810b9 <sprintf+0x8d>
	{
	  case 'd':itoa(*var,buf);while(*buf){*str++=*buf++;};break;
  281066:	8d 45 ea             	lea    -0x16(%ebp),%eax
  281069:	50                   	push   %eax
  28106a:	ff 36                	pushl  (%esi)
  28106c:	e8 f7 fe ff ff       	call   280f68 <itoa>
  281071:	59                   	pop    %ecx
  281072:	8d 4d ea             	lea    -0x16(%ebp),%ecx
  281075:	58                   	pop    %eax
  281076:	89 d8                	mov    %ebx,%eax
  281078:	8a 19                	mov    (%ecx),%bl
  28107a:	84 db                	test   %bl,%bl
  28107c:	74 3d                	je     2810bb <sprintf+0x8f>
  28107e:	40                   	inc    %eax
  28107f:	41                   	inc    %ecx
  281080:	88 58 ff             	mov    %bl,-0x1(%eax)
  281083:	eb f3                	jmp    281078 <sprintf+0x4c>
	  case 'x':xtoa(*var,buf);while(*buf){*str++=*buf++;};break;
  281085:	8d 45 ea             	lea    -0x16(%ebp),%eax
  281088:	50                   	push   %eax
  281089:	ff 36                	pushl  (%esi)
  28108b:	e8 3a ff ff ff       	call   280fca <xtoa>
  281090:	8d 4d ea             	lea    -0x16(%ebp),%ecx
  281093:	58                   	pop    %eax
  281094:	89 d8                	mov    %ebx,%eax
  281096:	5a                   	pop    %edx
  281097:	8a 19                	mov    (%ecx),%bl
  281099:	84 db                	test   %bl,%bl
  28109b:	74 1e                	je     2810bb <sprintf+0x8f>
  28109d:	40                   	inc    %eax
  28109e:	41                   	inc    %ecx
  28109f:	88 58 ff             	mov    %bl,-0x1(%eax)
  2810a2:	eb f3                	jmp    281097 <sprintf+0x6b>
	  case 's':buf=(char*)(*var);while(*buf){*str++=*buf++;};break;
  2810a4:	8b 16                	mov    (%esi),%edx
  2810a6:	89 d8                	mov    %ebx,%eax
  2810a8:	89 c1                	mov    %eax,%ecx
  2810aa:	29 d9                	sub    %ebx,%ecx
  2810ac:	8a 0c 11             	mov    (%ecx,%edx,1),%cl
  2810af:	84 c9                	test   %cl,%cl
  2810b1:	74 08                	je     2810bb <sprintf+0x8f>
  2810b3:	40                   	inc    %eax
  2810b4:	88 48 ff             	mov    %cl,-0x1(%eax)
  2810b7:	eb ef                	jmp    2810a8 <sprintf+0x7c>
	continue;
      }
      else
      {
	format++;
	switch (*format)
  2810b9:	89 d8                	mov    %ebx,%eax
	  case 's':buf=(char*)(*var);while(*buf){*str++=*buf++;};break;

	}
	buf=buffer;
	var++;
	format++;
  2810bb:	83 c7 02             	add    $0x2,%edi
	  case 'x':xtoa(*var,buf);while(*buf){*str++=*buf++;};break;
	  case 's':buf=(char*)(*var);while(*buf){*str++=*buf++;};break;

	}
	buf=buffer;
	var++;
  2810be:	83 c6 04             	add    $0x4,%esi
	format++;
  2810c1:	89 7d 0c             	mov    %edi,0xc(%ebp)
  2810c4:	89 c3                	mov    %eax,%ebx
  2810c6:	e9 70 ff ff ff       	jmp    28103b <sprintf+0xf>

      }

  }
  *str='\0';
  2810cb:	c6 03 00             	movb   $0x0,(%ebx)

}
  2810ce:	8d 65 f4             	lea    -0xc(%ebp),%esp
  2810d1:	5b                   	pop    %ebx
  2810d2:	5e                   	pop    %esi
  2810d3:	5f                   	pop    %edi
  2810d4:	5d                   	pop    %ebp
  2810d5:	c3                   	ret    

002810d6 <putfont8>:
}

}

void putfont8(char *vram ,int xsize,int x,int y,char color,char *font)//x=0 311 y=0 183
{
  2810d6:	55                   	push   %ebp
  int row,col;
  char d;
  for(row=0;row<16;row++)
  2810d7:	31 d2                	xor    %edx,%edx
}

}

void putfont8(char *vram ,int xsize,int x,int y,char color,char *font)//x=0 311 y=0 183
{
  2810d9:	89 e5                	mov    %esp,%ebp
  2810db:	57                   	push   %edi
  for(row=0;row<16;row++)
  {
    d=font[row];
    for(col=0;col<8;col++)
    {
      if(d&(0x80>>col))
  2810dc:	bf 80 00 00 00       	mov    $0x80,%edi
}

}

void putfont8(char *vram ,int xsize,int x,int y,char color,char *font)//x=0 311 y=0 183
{
  2810e1:	56                   	push   %esi
  2810e2:	53                   	push   %ebx
  2810e3:	83 ec 01             	sub    $0x1,%esp
  2810e6:	8a 45 18             	mov    0x18(%ebp),%al
  2810e9:	88 45 f3             	mov    %al,-0xd(%ebp)
  2810ec:	8b 45 14             	mov    0x14(%ebp),%eax
  2810ef:	0f af 45 0c          	imul   0xc(%ebp),%eax
  2810f3:	03 45 10             	add    0x10(%ebp),%eax
  2810f6:	03 45 08             	add    0x8(%ebp),%eax
  for(row=0;row<16;row++)
  {
    d=font[row];
    for(col=0;col<8;col++)
    {
      if(d&(0x80>>col))
  2810f9:	8b 75 1c             	mov    0x1c(%ebp),%esi
  int row,col;
  char d;
  for(row=0;row<16;row++)
  {
    d=font[row];
    for(col=0;col<8;col++)
  2810fc:	31 c9                	xor    %ecx,%ecx
    {
      if(d&(0x80>>col))
  2810fe:	0f be 34 16          	movsbl (%esi,%edx,1),%esi
  281102:	89 fb                	mov    %edi,%ebx
  281104:	d3 fb                	sar    %cl,%ebx
  281106:	85 f3                	test   %esi,%ebx
  281108:	74 06                	je     281110 <putfont8+0x3a>
      {
	vram[(y+row)*xsize+x+col]=color;
  28110a:	8a 5d f3             	mov    -0xd(%ebp),%bl
  28110d:	88 1c 08             	mov    %bl,(%eax,%ecx,1)
  int row,col;
  char d;
  for(row=0;row<16;row++)
  {
    d=font[row];
    for(col=0;col<8;col++)
  281110:	41                   	inc    %ecx
  281111:	83 f9 08             	cmp    $0x8,%ecx
  281114:	75 ec                	jne    281102 <putfont8+0x2c>

void putfont8(char *vram ,int xsize,int x,int y,char color,char *font)//x=0 311 y=0 183
{
  int row,col;
  char d;
  for(row=0;row<16;row++)
  281116:	42                   	inc    %edx
  281117:	03 45 0c             	add    0xc(%ebp),%eax
  28111a:	83 fa 10             	cmp    $0x10,%edx
  28111d:	75 da                	jne    2810f9 <putfont8+0x23>
    }

  }
  return;

}
  28111f:	83 c4 01             	add    $0x1,%esp
  281122:	5b                   	pop    %ebx
  281123:	5e                   	pop    %esi
  281124:	5f                   	pop    %edi
  281125:	5d                   	pop    %ebp
  281126:	c3                   	ret    

00281127 <puts8>:
  *str='\0';

}

void puts8(char *vram ,int xsize,int x,int y,char color, char *font)//x=0 311 y=0 183
{
  281127:	55                   	push   %ebp
  281128:	89 e5                	mov    %esp,%ebp
  28112a:	57                   	push   %edi
  28112b:	8b 7d 14             	mov    0x14(%ebp),%edi
  28112e:	56                   	push   %esi
      y=y+16;

    }
    else
    {
    putfont8((char *)vram ,xsize,x,y,color,(char *)(Font8x16+(*font)*16));
  28112f:	0f be 75 18          	movsbl 0x18(%ebp),%esi
  *str='\0';

}

void puts8(char *vram ,int xsize,int x,int y,char color, char *font)//x=0 311 y=0 183
{
  281133:	53                   	push   %ebx
  281134:	8b 5d 10             	mov    0x10(%ebp),%ebx

 while(*font)
  281137:	8b 45 1c             	mov    0x1c(%ebp),%eax
  28113a:	0f be 00             	movsbl (%eax),%eax
  28113d:	84 c0                	test   %al,%al
  28113f:	74 3f                	je     281180 <puts8+0x59>
 {
    if(*font=='\n')
  281141:	3c 0a                	cmp    $0xa,%al
  281143:	75 05                	jne    28114a <puts8+0x23>
    {
      x=0;
      y=y+16;
  281145:	83 c7 10             	add    $0x10,%edi
  281148:	eb 2f                	jmp    281179 <puts8+0x52>

    }
    else
    {
    putfont8((char *)vram ,xsize,x,y,color,(char *)(Font8x16+(*font)*16));
  28114a:	c1 e0 04             	shl    $0x4,%eax
  28114d:	05 40 59 28 00       	add    $0x285940,%eax
  281152:	50                   	push   %eax
  281153:	56                   	push   %esi
  281154:	57                   	push   %edi
  281155:	53                   	push   %ebx
    x+=8;
  281156:	83 c3 08             	add    $0x8,%ebx
      y=y+16;

    }
    else
    {
    putfont8((char *)vram ,xsize,x,y,color,(char *)(Font8x16+(*font)*16));
  281159:	ff 75 0c             	pushl  0xc(%ebp)
  28115c:	ff 75 08             	pushl  0x8(%ebp)
  28115f:	e8 72 ff ff ff       	call   2810d6 <putfont8>
    x+=8;
    if(x>xsize)
  281164:	83 c4 18             	add    $0x18,%esp
  281167:	3b 5d 0c             	cmp    0xc(%ebp),%ebx
  28116a:	7e 0f                	jle    28117b <puts8+0x54>
       {
	  x=0;
	  y+=16;
  28116c:	83 c7 10             	add    $0x10,%edi
	  if(y>183)
  28116f:	81 ff b7 00 00 00    	cmp    $0xb7,%edi
  281175:	7e 02                	jle    281179 <puts8+0x52>
	  {
	    x=0;
	    y=0;
  281177:	31 ff                	xor    %edi,%edi
       {
	  x=0;
	  y+=16;
	  if(y>183)
	  {
	    x=0;
  281179:	31 db                	xor    %ebx,%ebx

	  }
        }
    }

    font++;
  28117b:	ff 45 1c             	incl   0x1c(%ebp)
  28117e:	eb b7                	jmp    281137 <puts8+0x10>
}

}
  281180:	8d 65 f4             	lea    -0xc(%ebp),%esp
  281183:	5b                   	pop    %ebx
  281184:	5e                   	pop    %esi
  281185:	5f                   	pop    %edi
  281186:	5d                   	pop    %ebp
  281187:	c3                   	ret    

00281188 <printdebug>:
#include<header.h>


void printdebug(unsigned int i,unsigned int x)
{
  281188:	55                   	push   %ebp
  281189:	89 e5                	mov    %esp,%ebp
  28118b:	56                   	push   %esi
  28118c:	53                   	push   %ebx
  28118d:	83 ec 20             	sub    $0x20,%esp
  281190:	8b 5d 0c             	mov    0xc(%ebp),%ebx
char font[30];
sprintf(font,"Debug:var=%x" ,i);
  281193:	ff 75 08             	pushl  0x8(%ebp)
  281196:	8d 75 da             	lea    -0x26(%ebp),%esi
  281199:	68 b5 84 28 00       	push   $0x2884b5
  28119e:	56                   	push   %esi
  28119f:	e8 88 fe ff ff       	call   28102c <sprintf>
boxfill(7,x,150,320,166);
  2811a4:	68 a6 00 00 00       	push   $0xa6
  2811a9:	68 40 01 00 00       	push   $0x140
  2811ae:	68 96 00 00 00       	push   $0x96
  2811b3:	53                   	push   %ebx
  2811b4:	6a 07                	push   $0x7
  2811b6:	e8 f9 f6 ff ff       	call   2808b4 <boxfill>
puts8((char *)VRAM ,320,x,150,1,font);
  2811bb:	83 c4 18             	add    $0x18,%esp
  2811be:	56                   	push   %esi
  2811bf:	6a 01                	push   $0x1
  2811c1:	68 96 00 00 00       	push   $0x96
  2811c6:	53                   	push   %ebx
  2811c7:	68 40 01 00 00       	push   $0x140
  2811cc:	68 00 00 0a 00       	push   $0xa0000
  2811d1:	e8 51 ff ff ff       	call   281127 <puts8>
  2811d6:	83 c4 20             	add    $0x20,%esp

}
  2811d9:	8d 65 f8             	lea    -0x8(%ebp),%esp
  2811dc:	5b                   	pop    %ebx
  2811dd:	5e                   	pop    %esi
  2811de:	5d                   	pop    %ebp
  2811df:	c3                   	ret    

002811e0 <putfont16>:

  }

}
void putfont16(char *vram ,int xsize,int x,int y,char color,unsigned short *font)//x=0 311 y=0 183
{
  2811e0:	55                   	push   %ebp
  2811e1:	31 c9                	xor    %ecx,%ecx
  2811e3:	89 e5                	mov    %esp,%ebp
  2811e5:	57                   	push   %edi
  2811e6:	56                   	push   %esi
  2811e7:	53                   	push   %ebx
  2811e8:	52                   	push   %edx
  2811e9:	8b 55 14             	mov    0x14(%ebp),%edx
  2811ec:	0f af 55 0c          	imul   0xc(%ebp),%edx
  2811f0:	8b 45 10             	mov    0x10(%ebp),%eax
  2811f3:	03 45 08             	add    0x8(%ebp),%eax
  2811f6:	8a 5d 18             	mov    0x18(%ebp),%bl
  2811f9:	01 d0                	add    %edx,%eax
  int row,col;
  unsigned short  d;
  unsigned short *pt=(unsigned short *)(font-32*24);
  for(row=0;row<24;row++)
  2811fb:	31 d2                	xor    %edx,%edx
  2811fd:	89 45 f0             	mov    %eax,-0x10(%ebp)
  {
    d=pt[row];
    for(col=0;col<16;col++)
    {
       if( (d&(1 << col) ))
  281200:	8b 7d 1c             	mov    0x1c(%ebp),%edi
  281203:	8b 45 f0             	mov    -0x10(%ebp),%eax
  281206:	0f b7 bc 57 00 fa ff 	movzwl -0x600(%edi,%edx,2),%edi
  28120d:	ff 
  28120e:	8d 34 01             	lea    (%ecx,%eax,1),%esi
  unsigned short  d;
  unsigned short *pt=(unsigned short *)(font-32*24);
  for(row=0;row<24;row++)
  {
    d=pt[row];
    for(col=0;col<16;col++)
  281211:	31 c0                	xor    %eax,%eax
    {
       if( (d&(1 << col) ))
  281213:	0f a3 c7             	bt     %eax,%edi
  281216:	73 03                	jae    28121b <putfont16+0x3b>
     // if((d<<col)&0x0001)
      {
	vram[(y+row)*xsize+x+col]=color;
  281218:	88 1c 06             	mov    %bl,(%esi,%eax,1)
  unsigned short  d;
  unsigned short *pt=(unsigned short *)(font-32*24);
  for(row=0;row<24;row++)
  {
    d=pt[row];
    for(col=0;col<16;col++)
  28121b:	40                   	inc    %eax
  28121c:	83 f8 10             	cmp    $0x10,%eax
  28121f:	75 f2                	jne    281213 <putfont16+0x33>
void putfont16(char *vram ,int xsize,int x,int y,char color,unsigned short *font)//x=0 311 y=0 183
{
  int row,col;
  unsigned short  d;
  unsigned short *pt=(unsigned short *)(font-32*24);
  for(row=0;row<24;row++)
  281221:	42                   	inc    %edx
  281222:	03 4d 0c             	add    0xc(%ebp),%ecx
  281225:	83 fa 18             	cmp    $0x18,%edx
  281228:	75 d6                	jne    281200 <putfont16+0x20>
    }

  }
  return;

}
  28122a:	58                   	pop    %eax
  28122b:	5b                   	pop    %ebx
  28122c:	5e                   	pop    %esi
  28122d:	5f                   	pop    %edi
  28122e:	5d                   	pop    %ebp
  28122f:	c3                   	ret    

00281230 <puts16>:
  return;

}
//print string: big string
void puts16(char *vram ,int xsize,int x,int y,char color,char *font)
{
  281230:	55                   	push   %ebp
  281231:	89 e5                	mov    %esp,%ebp
  281233:	57                   	push   %edi
  281234:	8b 7d 10             	mov    0x10(%ebp),%edi
  281237:	56                   	push   %esi
  281238:	8b 75 14             	mov    0x14(%ebp),%esi
  28123b:	53                   	push   %ebx

    }
    else
    {
	pt=(unsigned short *)((*font)*24+ASCII_Table);
	putfont16(vram ,xsize,x,y,color,pt);
  28123c:	0f be 5d 18          	movsbl 0x18(%ebp),%ebx
}
//print string: big string
void puts16(char *vram ,int xsize,int x,int y,char color,char *font)
{
  unsigned short  *pt;
  while(*font)
  281240:	8b 45 1c             	mov    0x1c(%ebp),%eax
  281243:	0f be 00             	movsbl (%eax),%eax
  281246:	84 c0                	test   %al,%al
  281248:	74 2d                	je     281277 <puts16+0x47>
  {
    if(*font=='\n')
  28124a:	3c 0a                	cmp    $0xa,%al
  28124c:	75 07                	jne    281255 <puts16+0x25>
    {
      x=0;
      y=y+24;
  28124e:	83 c6 18             	add    $0x18,%esi
  unsigned short  *pt;
  while(*font)
  {
    if(*font=='\n')
    {
      x=0;
  281251:	31 ff                	xor    %edi,%edi
  281253:	eb 1d                	jmp    281272 <puts16+0x42>
      y=y+24;

    }
    else
    {
	pt=(unsigned short *)((*font)*24+ASCII_Table);
  281255:	6b c0 30             	imul   $0x30,%eax,%eax
  281258:	05 40 61 28 00       	add    $0x286140,%eax
	putfont16(vram ,xsize,x,y,color,pt);
  28125d:	50                   	push   %eax
  28125e:	53                   	push   %ebx
  28125f:	56                   	push   %esi
  281260:	57                   	push   %edi
	x=x+16;
  281261:	83 c7 10             	add    $0x10,%edi

    }
    else
    {
	pt=(unsigned short *)((*font)*24+ASCII_Table);
	putfont16(vram ,xsize,x,y,color,pt);
  281264:	ff 75 0c             	pushl  0xc(%ebp)
  281267:	ff 75 08             	pushl  0x8(%ebp)
  28126a:	e8 71 ff ff ff       	call   2811e0 <putfont16>
	x=x+16;
  28126f:	83 c4 18             	add    $0x18,%esp


    }

     font++;
  281272:	ff 45 1c             	incl   0x1c(%ebp)
  281275:	eb c9                	jmp    281240 <puts16+0x10>

  }

}
  281277:	8d 65 f4             	lea    -0xc(%ebp),%esp
  28127a:	5b                   	pop    %ebx
  28127b:	5e                   	pop    %esi
  28127c:	5f                   	pop    %edi
  28127d:	5d                   	pop    %ebp
  28127e:	c3                   	ret    

0028127f <setgdt>:
#include<header.h>



void setgdt(struct GDT *sd ,unsigned int limit,int base,int access)//sd: selector describe
{
  28127f:	55                   	push   %ebp
  281280:	89 e5                	mov    %esp,%ebp
  281282:	8b 55 0c             	mov    0xc(%ebp),%edx
  281285:	57                   	push   %edi
  281286:	8b 45 08             	mov    0x8(%ebp),%eax
  281289:	56                   	push   %esi
  28128a:	8b 7d 14             	mov    0x14(%ebp),%edi
  28128d:	53                   	push   %ebx
  28128e:	8b 5d 10             	mov    0x10(%ebp),%ebx
  if(limit>0xffff)
  281291:	81 fa ff ff 00 00    	cmp    $0xffff,%edx
  281297:	76 09                	jbe    2812a2 <setgdt+0x23>
  {
    access|=0x8000;
  281299:	81 cf 00 80 00 00    	or     $0x8000,%edi
    limit /=0x1000;
  28129f:	c1 ea 0c             	shr    $0xc,%edx
  }
  sd->limit_low=limit&0xffff;
  sd->base_low=base &0xffff;
  sd->base_mid=(base>>16)&0xff;
  2812a2:	89 de                	mov    %ebx,%esi
  2812a4:	c1 fe 10             	sar    $0x10,%esi
  2812a7:	89 f1                	mov    %esi,%ecx
  2812a9:	88 48 04             	mov    %cl,0x4(%eax)
  sd->access_right=access&0xff;
  2812ac:	89 f9                	mov    %edi,%ecx
  sd->limit_high=((limit>>16)&0x0f)|((access>>8)&0xf0);//低４位是limt的高位，高４位是访问的权限设置。
  2812ae:	c1 ff 08             	sar    $0x8,%edi
    limit /=0x1000;
  }
  sd->limit_low=limit&0xffff;
  sd->base_low=base &0xffff;
  sd->base_mid=(base>>16)&0xff;
  sd->access_right=access&0xff;
  2812b1:	88 48 05             	mov    %cl,0x5(%eax)
  sd->limit_high=((limit>>16)&0x0f)|((access>>8)&0xf0);//低４位是limt的高位，高４位是访问的权限设置。
  2812b4:	89 f9                	mov    %edi,%ecx
  if(limit>0xffff)
  {
    access|=0x8000;
    limit /=0x1000;
  }
  sd->limit_low=limit&0xffff;
  2812b6:	66 89 10             	mov    %dx,(%eax)
  sd->base_low=base &0xffff;
  sd->base_mid=(base>>16)&0xff;
  sd->access_right=access&0xff;
  sd->limit_high=((limit>>16)&0x0f)|((access>>8)&0xf0);//低４位是limt的高位，高４位是访问的权限设置。
  2812b9:	83 e1 f0             	and    $0xfffffff0,%ecx
  2812bc:	c1 ea 10             	shr    $0x10,%edx
  {
    access|=0x8000;
    limit /=0x1000;
  }
  sd->limit_low=limit&0xffff;
  sd->base_low=base &0xffff;
  2812bf:	66 89 58 02          	mov    %bx,0x2(%eax)
  sd->base_mid=(base>>16)&0xff;
  sd->access_right=access&0xff;
  sd->limit_high=((limit>>16)&0x0f)|((access>>8)&0xf0);//低４位是limt的高位，高４位是访问的权限设置。
  2812c3:	09 d1                	or     %edx,%ecx
  sd->base_high=(base>>24)&0xff;
  2812c5:	c1 eb 18             	shr    $0x18,%ebx
  }
  sd->limit_low=limit&0xffff;
  sd->base_low=base &0xffff;
  sd->base_mid=(base>>16)&0xff;
  sd->access_right=access&0xff;
  sd->limit_high=((limit>>16)&0x0f)|((access>>8)&0xf0);//低４位是limt的高位，高４位是访问的权限设置。
  2812c8:	88 48 06             	mov    %cl,0x6(%eax)
  sd->base_high=(base>>24)&0xff;
  2812cb:	88 58 07             	mov    %bl,0x7(%eax)

}
  2812ce:	5b                   	pop    %ebx
  2812cf:	5e                   	pop    %esi
  2812d0:	5f                   	pop    %edi
  2812d1:	5d                   	pop    %ebp
  2812d2:	c3                   	ret    

002812d3 <setidt>:

void setidt(struct IDT *gd,int offset,int selector,int access)//gd: gate describe
{
  2812d3:	55                   	push   %ebp
  2812d4:	89 e5                	mov    %esp,%ebp
  2812d6:	8b 45 08             	mov    0x8(%ebp),%eax
  2812d9:	8b 4d 0c             	mov    0xc(%ebp),%ecx
  2812dc:	8b 55 14             	mov    0x14(%ebp),%edx
  //idt中有32位的offset address
  gd->offset_low=offset & 0xffff;
  2812df:	66 89 08             	mov    %cx,(%eax)
  gd->offset_high=(offset>>16)&0xffff;
  2812e2:	c1 e9 10             	shr    $0x10,%ecx
  2812e5:	66 89 48 06          	mov    %cx,0x6(%eax)

  //16位的selector决定了base address
  gd->selector=selector;
  2812e9:	8b 4d 10             	mov    0x10(%ebp),%ecx

  gd->dw_count=(access>>8)&0xff;
  gd->access_right=(char)(access&0xff);//晕倒啊，是不是啊，天啊，访问权限是一个非常重要的量，错一点都不行的
  2812ec:	88 50 05             	mov    %dl,0x5(%eax)
  //idt中有32位的offset address
  gd->offset_low=offset & 0xffff;
  gd->offset_high=(offset>>16)&0xffff;

  //16位的selector决定了base address
  gd->selector=selector;
  2812ef:	66 89 48 02          	mov    %cx,0x2(%eax)

  gd->dw_count=(access>>8)&0xff;
  2812f3:	89 d1                	mov    %edx,%ecx
  2812f5:	c1 f9 08             	sar    $0x8,%ecx
  2812f8:	88 48 04             	mov    %cl,0x4(%eax)
  gd->access_right=(char)(access&0xff);//晕倒啊，是不是啊，天啊，访问权限是一个非常重要的量，错一点都不行的


}
  2812fb:	5d                   	pop    %ebp
  2812fc:	c3                   	ret    

002812fd <init_gdtidt>:



void  init_gdtidt()
{
  2812fd:	55                   	push   %ebp
  2812fe:	89 e5                	mov    %esp,%ebp
  281300:	53                   	push   %ebx
  281301:	53                   	push   %ebx
  281302:	bb 00 00 27 00       	mov    $0x270000,%ebx
  struct GDT *gdt=(struct GDT *)(0x00270000);
  struct IDT *idt=(struct IDT *)(0x0026f800);
  int i;
  for(i=0;i<8192;i++)
  {
    setgdt(gdt+i,0,0,0);
  281307:	6a 00                	push   $0x0
  281309:	6a 00                	push   $0x0
  28130b:	6a 00                	push   $0x0
  28130d:	53                   	push   %ebx
  28130e:	83 c3 08             	add    $0x8,%ebx
  281311:	e8 69 ff ff ff       	call   28127f <setgdt>
void  init_gdtidt()
{
  struct GDT *gdt=(struct GDT *)(0x00270000);
  struct IDT *idt=(struct IDT *)(0x0026f800);
  int i;
  for(i=0;i<8192;i++)
  281316:	83 c4 10             	add    $0x10,%esp
  281319:	81 fb 00 00 28 00    	cmp    $0x280000,%ebx
  28131f:	75 e6                	jne    281307 <init_gdtidt+0xa>
  {
    setgdt(gdt+i,0,0,0);
  }
  setgdt(gdt+1,0xffffffff   ,0x00000000,0x4092);//entry.s main.c data 4GB空间的数据都能访问
  281321:	68 92 40 00 00       	push   $0x4092
  281326:	6a 00                	push   $0x0
  281328:	6a ff                	push   $0xffffffff
  28132a:	68 08 00 27 00       	push   $0x270008
  28132f:	e8 4b ff ff ff       	call   28127f <setgdt>
  setgdt(gdt+2,0x000fffff   ,0x00000000,0xc09a);//entry.S code
  281334:	68 9a c0 00 00       	push   $0xc09a
  281339:	6a 00                	push   $0x0
  28133b:	68 ff ff 0f 00       	push   $0xfffff
  281340:	68 10 00 27 00       	push   $0x270010
  281345:	e8 35 ff ff ff       	call   28127f <setgdt>
  //setgdt(gdt+3,0x000fffff   ,0x00280000,0x409a);  //main.c code　 0x7ffff=512kB
  setgdt(gdt+3,0xffffffff   ,0x00000000,0x409a);//entry.S code
  28134a:	83 c4 20             	add    $0x20,%esp
  28134d:	68 9a 40 00 00       	push   $0x409a
  281352:	6a 00                	push   $0x0
  281354:	6a ff                	push   $0xffffffff
  281356:	68 18 00 27 00       	push   $0x270018
  28135b:	e8 1f ff ff ff       	call   28127f <setgdt>
   load_gdtr(0xfff,0X00270000);//this is right
  281360:	5a                   	pop    %edx
  281361:	59                   	pop    %ecx
  281362:	68 00 00 27 00       	push   $0x270000
  281367:	68 ff 0f 00 00       	push   $0xfff
  28136c:	e8 17 02 00 00       	call   281588 <load_gdtr>
  281371:	83 c4 10             	add    $0x10,%esp
  281374:	31 c0                	xor    %eax,%eax
}

void setidt(struct IDT *gd,int offset,int selector,int access)//gd: gate describe
{
  //idt中有32位的offset address
  gd->offset_low=offset & 0xffff;
  281376:	66 c7 80 00 f8 26 00 	movw   $0x0,0x26f800(%eax)
  28137d:	00 00 
  28137f:	83 c0 08             	add    $0x8,%eax
  gd->offset_high=(offset>>16)&0xffff;
  281382:	66 c7 80 fe f7 26 00 	movw   $0x0,0x26f7fe(%eax)
  281389:	00 00 

  //16位的selector决定了base address
  gd->selector=selector;
  28138b:	66 c7 80 fa f7 26 00 	movw   $0x0,0x26f7fa(%eax)
  281392:	00 00 

  gd->dw_count=(access>>8)&0xff;
  281394:	c6 80 fc f7 26 00 00 	movb   $0x0,0x26f7fc(%eax)
  gd->access_right=(char)(access&0xff);//晕倒啊，是不是啊，天啊，访问权限是一个非常重要的量，错一点都不行的
  28139b:	c6 80 fd f7 26 00 00 	movb   $0x0,0x26f7fd(%eax)
  setgdt(gdt+2,0x000fffff   ,0x00000000,0xc09a);//entry.S code
  //setgdt(gdt+3,0x000fffff   ,0x00280000,0x409a);  //main.c code　 0x7ffff=512kB
  setgdt(gdt+3,0xffffffff   ,0x00000000,0x409a);//entry.S code
   load_gdtr(0xfff,0X00270000);//this is right

  for(i=0;i<256;i++)
  2813a2:	3d 00 08 00 00       	cmp    $0x800,%eax
  2813a7:	75 cd                	jne    281376 <init_gdtidt+0x79>

void setidt(struct IDT *gd,int offset,int selector,int access)//gd: gate describe
{
  //idt中有32位的offset address
  gd->offset_low=offset & 0xffff;
  gd->offset_high=(offset>>16)&0xffff;
  2813a9:	ba 52 15 28 00       	mov    $0x281552,%edx
  2813ae:	66 31 c0             	xor    %ax,%ax
  2813b1:	c1 ea 10             	shr    $0x10,%edx
}

void setidt(struct IDT *gd,int offset,int selector,int access)//gd: gate describe
{
  //idt中有32位的offset address
  gd->offset_low=offset & 0xffff;
  2813b4:	bb 52 15 28 00       	mov    $0x281552,%ebx
  gd->offset_high=(offset>>16)&0xffff;
  2813b9:	89 d1                	mov    %edx,%ecx
}

void setidt(struct IDT *gd,int offset,int selector,int access)//gd: gate describe
{
  //idt中有32位的offset address
  gd->offset_low=offset & 0xffff;
  2813bb:	66 89 98 00 f8 26 00 	mov    %bx,0x26f800(%eax)
  2813c2:	83 c0 08             	add    $0x8,%eax
  gd->offset_high=(offset>>16)&0xffff;
  2813c5:	66 89 88 fe f7 26 00 	mov    %cx,0x26f7fe(%eax)

  //16位的selector决定了base address
  gd->selector=selector;
  2813cc:	66 c7 80 fa f7 26 00 	movw   $0x10,0x26f7fa(%eax)
  2813d3:	10 00 

  gd->dw_count=(access>>8)&0xff;
  2813d5:	c6 80 fc f7 26 00 00 	movb   $0x0,0x26f7fc(%eax)
  gd->access_right=(char)(access&0xff);//晕倒啊，是不是啊，天啊，访问权限是一个非常重要的量，错一点都不行的
  2813dc:	c6 80 fd f7 26 00 8e 	movb   $0x8e,0x26f7fd(%eax)
  for(i=0;i<256;i++)
  {
    setidt(idt+i,0,0,0);
  }

  for(i=0;i<256;i++)
  2813e3:	3d 00 08 00 00       	cmp    $0x800,%eax
  2813e8:	75 d1                	jne    2813bb <init_gdtidt+0xbe>
}

void setidt(struct IDT *gd,int offset,int selector,int access)//gd: gate describe
{
  //idt中有32位的offset address
  gd->offset_low=offset & 0xffff;
  2813ea:	b8 37 15 28 00       	mov    $0x281537,%eax
  2813ef:	66 a3 00 f9 26 00    	mov    %ax,0x26f900
  gd->offset_high=(offset>>16)&0xffff;
  2813f5:	c1 e8 10             	shr    $0x10,%eax
  2813f8:	66 a3 06 f9 26 00    	mov    %ax,0x26f906
}

void setidt(struct IDT *gd,int offset,int selector,int access)//gd: gate describe
{
  //idt中有32位的offset address
  gd->offset_low=offset & 0xffff;
  2813fe:	b8 52 15 28 00       	mov    $0x281552,%eax
  281403:	66 a3 08 f9 26 00    	mov    %ax,0x26f908
  281409:	b8 6d 15 28 00       	mov    $0x28156d,%eax
  28140e:	66 a3 60 f9 26 00    	mov    %ax,0x26f960
  gd->offset_high=(offset>>16)&0xffff;
  281414:	c1 e8 10             	shr    $0x10,%eax
  281417:	66 a3 66 f9 26 00    	mov    %ax,0x26f966

  //16位的selector决定了base address
  gd->selector=selector;
  28141d:	66 c7 05 02 f9 26 00 	movw   $0x10,0x26f902
  281424:	10 00 

  gd->dw_count=(access>>8)&0xff;
  281426:	c6 05 04 f9 26 00 00 	movb   $0x0,0x26f904
  gd->access_right=(char)(access&0xff);//晕倒啊，是不是啊，天啊，访问权限是一个非常重要的量，错一点都不行的
  28142d:	c6 05 05 f9 26 00 8e 	movb   $0x8e,0x26f905

void setidt(struct IDT *gd,int offset,int selector,int access)//gd: gate describe
{
  //idt中有32位的offset address
  gd->offset_low=offset & 0xffff;
  gd->offset_high=(offset>>16)&0xffff;
  281434:	66 89 15 0e f9 26 00 	mov    %dx,0x26f90e

  //16位的selector决定了base address
  gd->selector=selector;
  28143b:	66 c7 05 0a f9 26 00 	movw   $0x10,0x26f90a
  281442:	10 00 

  gd->dw_count=(access>>8)&0xff;
  281444:	c6 05 0c f9 26 00 00 	movb   $0x0,0x26f90c
  gd->access_right=(char)(access&0xff);//晕倒啊，是不是啊，天啊，访问权限是一个非常重要的量，错一点都不行的
  28144b:	c6 05 0d f9 26 00 8e 	movb   $0x8e,0x26f90d
  //idt中有32位的offset address
  gd->offset_low=offset & 0xffff;
  gd->offset_high=(offset>>16)&0xffff;

  //16位的selector决定了base address
  gd->selector=selector;
  281452:	66 c7 05 62 f9 26 00 	movw   $0x10,0x26f962
  281459:	10 00 

  gd->dw_count=(access>>8)&0xff;
  28145b:	c6 05 64 f9 26 00 00 	movb   $0x0,0x26f964
  gd->access_right=(char)(access&0xff);//晕倒啊，是不是啊，天啊，访问权限是一个非常重要的量，错一点都不行的
  281462:	c6 05 65 f9 26 00 8e 	movb   $0x8e,0x26f965

 // setidt(idt+0x21,(int)asm_inthandler21,2*8,0x008e);//挂载keyboard interrupt service
 // setidt(idt+0x2c,(int)asm_inthandler2c,2*8,0x008e);//挂载mouse 　　interrupt serv
  //printdebug(asm_inthandler2c,0);

  load_idtr(0x7ff,0x0026f800);//this is right
  281469:	50                   	push   %eax
  28146a:	50                   	push   %eax
  28146b:	68 00 f8 26 00       	push   $0x26f800
  281470:	68 ff 07 00 00       	push   $0x7ff
  281475:	e8 1e 01 00 00       	call   281598 <load_idtr>
  28147a:	83 c4 10             	add    $0x10,%esp



  return;

}
  28147d:	8b 5d fc             	mov    -0x4(%ebp),%ebx
  281480:	c9                   	leave  
  281481:	c3                   	ret    

00281482 <init_pic>:
#define PIC1_ICW4		0x00a1
*/

//remap irq0-irq15到int 0x20到int 0x2f
void init_pic()
{
  281482:	55                   	push   %ebp
  281483:	ba 21 00 00 00       	mov    $0x21,%edx
  281488:	89 e5                	mov    %esp,%ebp
  28148a:	b0 ff                	mov    $0xff,%al
  28148c:	ee                   	out    %al,(%dx)
  28148d:	b2 a1                	mov    $0xa1,%dl
  28148f:	ee                   	out    %al,(%dx)
  281490:	b0 11                	mov    $0x11,%al
  281492:	b2 20                	mov    $0x20,%dl
  281494:	ee                   	out    %al,(%dx)
  281495:	b0 20                	mov    $0x20,%al
  281497:	b2 21                	mov    $0x21,%dl
  281499:	ee                   	out    %al,(%dx)
  28149a:	b0 04                	mov    $0x4,%al
  28149c:	ee                   	out    %al,(%dx)
  28149d:	b0 01                	mov    $0x1,%al
  28149f:	ee                   	out    %al,(%dx)
  2814a0:	b0 11                	mov    $0x11,%al
  2814a2:	b2 a0                	mov    $0xa0,%dl
  2814a4:	ee                   	out    %al,(%dx)
  2814a5:	b0 28                	mov    $0x28,%al
  2814a7:	b2 a1                	mov    $0xa1,%dl
  2814a9:	ee                   	out    %al,(%dx)
  2814aa:	b0 02                	mov    $0x2,%al
  2814ac:	ee                   	out    %al,(%dx)
  2814ad:	b0 01                	mov    $0x1,%al
  2814af:	ee                   	out    %al,(%dx)
  2814b0:	b0 fb                	mov    $0xfb,%al
  2814b2:	b2 21                	mov    $0x21,%dl
  2814b4:	ee                   	out    %al,(%dx)
  2814b5:	b0 ff                	mov    $0xff,%al
  2814b7:	b2 a1                	mov    $0xa1,%dl
  2814b9:	ee                   	out    %al,(%dx)

所以cpu发现是产生了int 0到int0x1f时，就知道是非常重要的中断产生了，是不可mask的，一定要执行的。

   */

}
  2814ba:	5d                   	pop    %ebp
  2814bb:	c3                   	ret    

002814bc <inthandler21>:
struct FIFO8 keyfifo;//a global data
//上面是一个全局变量

//interrupt service procedure for keyboard  中断服务程序，读取按键的键值。
void inthandler21(int *esp)
{
  2814bc:	55                   	push   %ebp
  2814bd:	ba 20 00 00 00       	mov    $0x20,%edx
  2814c2:	89 e5                	mov    %esp,%ebp
  2814c4:	b0 61                	mov    $0x61,%al
  2814c6:	83 ec 10             	sub    $0x10,%esp
  2814c9:	ee                   	out    %al,(%dx)
static __inline uint8_t
inb(int port)
{
  //read a byte from port
	uint8_t data;
	__asm __volatile("inb %w1,%0" : "=a" (data) : "d" (port));
  2814ca:	b2 60                	mov    $0x60,%dl
  2814cc:	ec                   	in     (%dx),%al
  //struct  boot_info *binfo=(struct boot_info *)ADDR_BOOT;
  unsigned char data;
  outb(PIC0_OCW2,0X61);//0X61-->PIC0_OCW2 　告之pic0这个芯片，irq1中断(就是keyboard产生的中断)cpu已经处理，这样pic0才会响应　下一次的irq1中断
  //如果不告之pic0已经处理了这次中断，pico对已后的irq1中断就会响应了。这种cpu处理完了中断，对pic0的反馈机制是非常好的，不会漏掉任何数据。
  data=inb(PORT_KEYDAT);
  fifo8_write(&keyfifo,data);
  2814cd:	0f b6 c0             	movzbl %al,%eax
  2814d0:	50                   	push   %eax
  2814d1:	68 20 9e 28 00       	push   $0x289e20
  2814d6:	e8 f8 00 00 00       	call   2815d3 <fifo8_write>
  2814db:	83 c4 10             	add    $0x10,%esp
  //puts8((char *)binfo->vram ,binfo->xsize,0,0,7,s);

  //while(1)
  //io_halt();
  
}
  2814de:	c9                   	leave  
  2814df:	c3                   	ret    

002814e0 <inthandler2c>:
//中断处理程序不应该有大量的处理部分，应该得到数据后，马上回去，在主函数中处理信息才是对的，与５１中是一个道理。isr尽量短小。

//interrupt service for mouse 
struct FIFO8 mousefifo;
void inthandler2c(int *esp)//可以看到一运行enable_后就，就产生了中断，进入了这个中断服务函数。
{
  2814e0:	55                   	push   %ebp
// out:write a data to a port
static __inline void
outb(int port, uint8_t data)
{
  //data是变量0%0 , port是变量word１%w1
	__asm __volatile("outb %0,%w1" : : "a" (data), "d" (port));
  2814e1:	ba a0 00 00 00       	mov    $0xa0,%edx
  2814e6:	89 e5                	mov    %esp,%ebp
  2814e8:	b0 64                	mov    $0x64,%al
  2814ea:	83 ec 10             	sub    $0x10,%esp
  2814ed:	ee                   	out    %al,(%dx)
  2814ee:	b0 62                	mov    $0x62,%al
  2814f0:	b2 20                	mov    $0x20,%dl
  2814f2:	ee                   	out    %al,(%dx)
static __inline uint8_t
inb(int port)
{
  //read a byte from port
	uint8_t data;
	__asm __volatile("inb %w1,%0" : "=a" (data) : "d" (port));
  2814f3:	b2 60                	mov    $0x60,%dl
  2814f5:	ec                   	in     (%dx),%al
  
  unsigned char data;
  outb(PIC1_OCW2,0X64);//cpu tell pic1　that I got IRQ12 
  outb(PIC0_OCW2,0X62);//cpu tell pic0  that I got IRQ2
  data = inb(PORT_KEYDAT);
  fifo8_write(&mousefifo,data);
  2814f6:	0f b6 c0             	movzbl %al,%eax
  2814f9:	50                   	push   %eax
  2814fa:	68 38 9e 28 00       	push   $0x289e38
  2814ff:	e8 cf 00 00 00       	call   2815d3 <fifo8_write>
  281504:	83 c4 10             	add    $0x10,%esp
  puts8((char *)binfo->vram ,binfo->xsize,0,0,7,"int2c(IRQ-12):PS2/mouse");

 // while(1)
 // hlt();
 */
}
  281507:	c9                   	leave  
  281508:	c3                   	ret    

00281509 <wait_KBC_sendready>:
//for mouse and keyboard control circuit,鼠标，键盘控制电路的初始化。
//#define PORT_KEYDAT 		0X0060


void wait_KBC_sendready(void)				//send ready and wait keyboard control ready
{
  281509:	55                   	push   %ebp
  28150a:	ba 64 00 00 00       	mov    $0x64,%edx
  28150f:	89 e5                	mov    %esp,%ebp
  281511:	ec                   	in     (%dx),%al
  while(1)
  {
    /*等待按键控制电路准备完毕*/
    if( (inb(PORT_KEYSTA) & KEYSTA_SEND_NOTREADY) == 0)	//读port 0x0064 看bit1是否是为０/if 0 ready ,if 1 not ready　
  281512:	a8 02                	test   $0x2,%al
  281514:	75 fb                	jne    281511 <wait_KBC_sendready+0x8>
    {							//bit 1是０说明键盘控制电路是准备好的，可以接受cpu的指令了。
      break;
    }
  }
  
}
  281516:	5d                   	pop    %ebp
  281517:	c3                   	ret    

00281518 <init_keyboard>:

void init_keyboard(void)
{
  281518:	55                   	push   %ebp
  281519:	89 e5                	mov    %esp,%ebp
  /*这里才是真正的初始化按键电路*/
  wait_KBC_sendready();				//wait ready
  28151b:	e8 e9 ff ff ff       	call   281509 <wait_KBC_sendready>
// out:write a data to a port
static __inline void
outb(int port, uint8_t data)
{
  //data是变量0%0 , port是变量word１%w1
	__asm __volatile("outb %0,%w1" : : "a" (data), "d" (port));
  281520:	ba 64 00 00 00       	mov    $0x64,%edx
  281525:	b0 60                	mov    $0x60,%al
  281527:	ee                   	out    %al,(%dx)
  outb(PORT_KEYCMD,KEYCMD_WRITE_MODE);		//向port 0x0064写　0x60
  wait_KBC_sendready();				//保证能写入有效的数据到　port 0x0064
  281528:	e8 dc ff ff ff       	call   281509 <wait_KBC_sendready>
  28152d:	ba 60 00 00 00       	mov    $0x60,%edx
  281532:	b0 47                	mov    $0x47,%al
  281534:	ee                   	out    %al,(%dx)
  outb(PORT_KEYDAT,KBC_MODE);			//向port 0x0060 写数据0x47
  return;
  
}
  281535:	5d                   	pop    %ebp
  281536:	c3                   	ret    

00281537 <asm_inthandler20>:
.global load_idtr

.code32
#interrupt service about timer irq0
asm_inthandler20:
  pushw %es
  281537:	66 06                	pushw  %es
  pushw %ds
  281539:	66 1e                	pushw  %ds
  pushal
  28153b:	60                   	pusha  
  movl %esp,%eax
  28153c:	89 e0                	mov    %esp,%eax
  pushl %eax
  28153e:	50                   	push   %eax
  movw %ss,%ax
  28153f:	66 8c d0             	mov    %ss,%ax
  movw %ax,%ds
  281542:	8e d8                	mov    %eax,%ds
  movw %ax,%es
  281544:	8e c0                	mov    %eax,%es
  call inthandler20
  281546:	e8 59 f9 ff ff       	call   280ea4 <inthandler20>

  popl %eax
  28154b:	58                   	pop    %eax
  popal
  28154c:	61                   	popa   
  popw %ds
  28154d:	66 1f                	popw   %ds
  popW %es
  28154f:	66 07                	popw   %es
  iretl
  281551:	cf                   	iret   

00281552 <asm_inthandler21>:


#interrupt service about keyboad irq1
asm_inthandler21:
  pushw %es
  281552:	66 06                	pushw  %es
  pushw %ds
  281554:	66 1e                	pushw  %ds
  pushal
  281556:	60                   	pusha  
  movl %esp,%eax
  281557:	89 e0                	mov    %esp,%eax
  pushl %eax
  281559:	50                   	push   %eax
  movw %ss,%ax
  28155a:	66 8c d0             	mov    %ss,%ax
  movw %ax,%ds
  28155d:	8e d8                	mov    %eax,%ds
  movw %ax,%es
  28155f:	8e c0                	mov    %eax,%es
  call inthandler21
  281561:	e8 56 ff ff ff       	call   2814bc <inthandler21>

  popl %eax
  281566:	58                   	pop    %eax
  popal
  281567:	61                   	popa   
  popw %ds
  281568:	66 1f                	popw   %ds
  popW %es
  28156a:	66 07                	popw   %es
  iretl
  28156c:	cf                   	iret   

0028156d <asm_inthandler2c>:

#interrupt service about mouse irq 0xc
asm_inthandler2c:
  pushw %es
  28156d:	66 06                	pushw  %es
  pushw %ds
  28156f:	66 1e                	pushw  %ds
  pushal
  281571:	60                   	pusha  
  movl %esp,%eax
  281572:	89 e0                	mov    %esp,%eax
  pushl %eax
  281574:	50                   	push   %eax
  movw %ss,%ax
  281575:	66 8c d0             	mov    %ss,%ax
  movw %ax,%ds
  281578:	8e d8                	mov    %eax,%ds
  movw %ax,%es
  28157a:	8e c0                	mov    %eax,%es
  call inthandler2c
  28157c:	e8 5f ff ff ff       	call   2814e0 <inthandler2c>

  popl %eax
  281581:	58                   	pop    %eax
  popal
  281582:	61                   	popa   
  popw %ds
  281583:	66 1f                	popw   %ds
  popW %es
  281585:	66 07                	popw   %es
  iretl
  281587:	cf                   	iret   

00281588 <load_gdtr>:
  #iret 与iretl有什么区别？？？
load_gdtr:		#; void load_gdtr(int limit, int addr);
  mov 4(%esp) ,%ax
  281588:	66 8b 44 24 04       	mov    0x4(%esp),%ax
  mov %ax,6(%esp)
  28158d:	66 89 44 24 06       	mov    %ax,0x6(%esp)
  lgdt 6(%esp)
  281592:	0f 01 54 24 06       	lgdtl  0x6(%esp)
  ret
  281597:	c3                   	ret    

00281598 <load_idtr>:


load_idtr:		#; void load_idtr(int limit, int addr);
  mov 4(%esp) ,%ax
  281598:	66 8b 44 24 04       	mov    0x4(%esp),%ax
  mov %ax,6(%esp)
  28159d:	66 89 44 24 06       	mov    %ax,0x6(%esp)
  lidt 6(%esp)
  2815a2:	0f 01 5c 24 06       	lidtl  0x6(%esp)
  ret
  2815a7:	c3                   	ret    

002815a8 <fifo8_init>:
#include<header.h>

//初始化fifo8,是对一个结构体类型的变量进行初始化，这个结构体类型的变量就是一个fifo对象。
void fifo8_init(struct FIFO8 *fifo,int size ,unsigned char *buf)
{
  2815a8:	55                   	push   %ebp
  2815a9:	89 e5                	mov    %esp,%ebp
  2815ab:	8b 45 08             	mov    0x8(%ebp),%eax
  2815ae:	8b 55 0c             	mov    0xc(%ebp),%edx
  fifo->buf=buf;
  2815b1:	8b 4d 10             	mov    0x10(%ebp),%ecx
  fifo->size=size;
  fifo->free=size;
  fifo->nr=0;
  2815b4:	c7 40 08 00 00 00 00 	movl   $0x0,0x8(%eax)

//初始化fifo8,是对一个结构体类型的变量进行初始化，这个结构体类型的变量就是一个fifo对象。
void fifo8_init(struct FIFO8 *fifo,int size ,unsigned char *buf)
{
  fifo->buf=buf;
  fifo->size=size;
  2815bb:	89 50 0c             	mov    %edx,0xc(%eax)
#include<header.h>

//初始化fifo8,是对一个结构体类型的变量进行初始化，这个结构体类型的变量就是一个fifo对象。
void fifo8_init(struct FIFO8 *fifo,int size ,unsigned char *buf)
{
  fifo->buf=buf;
  2815be:	89 08                	mov    %ecx,(%eax)
  fifo->size=size;
  fifo->free=size;
  2815c0:	89 50 10             	mov    %edx,0x10(%eax)
  fifo->nr=0;
  fifo->nw=0;
  2815c3:	c7 40 04 00 00 00 00 	movl   $0x0,0x4(%eax)
  fifo->flags=0;
  2815ca:	c7 40 14 00 00 00 00 	movl   $0x0,0x14(%eax)
}
  2815d1:	5d                   	pop    %ebp
  2815d2:	c3                   	ret    

002815d3 <fifo8_write>:


#define FLAGS_OVERRUN 0X0001
//下面的函数是对fifo类型的变量，写入数据。
int fifo8_write(struct FIFO8 *fifo,unsigned char data)
{
  2815d3:	55                   	push   %ebp
  2815d4:	89 e5                	mov    %esp,%ebp
  2815d6:	8b 45 08             	mov    0x8(%ebp),%eax
  2815d9:	53                   	push   %ebx
  2815da:	8b 5d 0c             	mov    0xc(%ebp),%ebx
  if(fifo->free==0)//fifo is full ,no room for any data
  2815dd:	83 78 10 00          	cmpl   $0x0,0x10(%eax)
  2815e1:	75 09                	jne    2815ec <fifo8_write+0x19>
  {
    fifo->flags|=FLAGS_OVERRUN;//if fifo->flags is TRUE, fifo已经满了，不能再写了。
  2815e3:	83 48 14 01          	orl    $0x1,0x14(%eax)
    return -1; //write error
  2815e7:	83 c8 ff             	or     $0xffffffff,%eax
  2815ea:	eb 22                	jmp    28160e <fifo8_write+0x3b>
  }
  
  
 fifo->buf[fifo->nw]=data;
  2815ec:	8b 50 04             	mov    0x4(%eax),%edx
  2815ef:	8b 08                	mov    (%eax),%ecx
  2815f1:	88 1c 11             	mov    %bl,(%ecx,%edx,1)
 fifo->nw++;
  2815f4:	8b 48 04             	mov    0x4(%eax),%ecx
  2815f7:	8d 51 01             	lea    0x1(%ecx),%edx
 if(fifo->nw==fifo->size)
  2815fa:	3b 50 0c             	cmp    0xc(%eax),%edx
    return -1; //write error
  }
  
  
 fifo->buf[fifo->nw]=data;
 fifo->nw++;
  2815fd:	89 50 04             	mov    %edx,0x4(%eax)
 if(fifo->nw==fifo->size)
  281600:	75 07                	jne    281609 <fifo8_write+0x36>
 {
  fifo->nw=0;  
  281602:	c7 40 04 00 00 00 00 	movl   $0x0,0x4(%eax)
 }
 fifo->free--;
  281609:	ff 48 10             	decl   0x10(%eax)
 return 0;//write sucessful
  28160c:	31 c0                	xor    %eax,%eax
 
}
  28160e:	5b                   	pop    %ebx
  28160f:	5d                   	pop    %ebp
  281610:	c3                   	ret    

00281611 <fifo8_read>:
//只有写fifo 会有fifo full的情况，
//读fifo时，会有empty的情况。
int fifo8_read(struct FIFO8 *fifo)
{
  281611:	55                   	push   %ebp
  281612:	89 e5                	mov    %esp,%ebp
  281614:	8b 55 08             	mov    0x8(%ebp),%edx
  281617:	57                   	push   %edi
  281618:	56                   	push   %esi
  281619:	53                   	push   %ebx
  int data;
  if(fifo->free==fifo->size)//fifo is empty ,no data is useful
  28161a:	8b 5a 10             	mov    0x10(%edx),%ebx
  28161d:	8b 7a 0c             	mov    0xc(%edx),%edi
  281620:	39 fb                	cmp    %edi,%ebx
  281622:	74 1a                	je     28163e <fifo8_read+0x2d>
  {
    return -1;
  }
  
  data=fifo->buf[fifo->nr];
  281624:	8b 72 08             	mov    0x8(%edx),%esi
  fifo->nr++;
  281627:	31 c9                	xor    %ecx,%ecx
  if(fifo->free==fifo->size)//fifo is empty ,no data is useful
  {
    return -1;
  }
  
  data=fifo->buf[fifo->nr];
  281629:	8b 02                	mov    (%edx),%eax
  28162b:	0f b6 04 30          	movzbl (%eax,%esi,1),%eax
  fifo->nr++;
  28162f:	46                   	inc    %esi
  281630:	39 fe                	cmp    %edi,%esi
  281632:	0f 45 ce             	cmovne %esi,%ecx
  if(fifo->nr==fifo->size)
  {
    fifo->nr=0;
  }
  fifo->free++;
  281635:	43                   	inc    %ebx
  {
    return -1;
  }
  
  data=fifo->buf[fifo->nr];
  fifo->nr++;
  281636:	89 4a 08             	mov    %ecx,0x8(%edx)
  if(fifo->nr==fifo->size)
  {
    fifo->nr=0;
  }
  fifo->free++;
  281639:	89 5a 10             	mov    %ebx,0x10(%edx)
  
  return data;
  28163c:	eb 03                	jmp    281641 <fifo8_read+0x30>
int fifo8_read(struct FIFO8 *fifo)
{
  int data;
  if(fifo->free==fifo->size)//fifo is empty ,no data is useful
  {
    return -1;
  28163e:	83 c8 ff             	or     $0xffffffff,%eax
  fifo->free++;
  
  return data;
  
  
}
  281641:	5b                   	pop    %ebx
  281642:	5e                   	pop    %esi
  281643:	5f                   	pop    %edi
  281644:	5d                   	pop    %ebp
  281645:	c3                   	ret    

00281646 <fifo8_status>:

int fifo8_status(struct FIFO8 *fifo)
{
  281646:	55                   	push   %ebp
  281647:	89 e5                	mov    %esp,%ebp
  281649:	8b 55 08             	mov    0x8(%ebp),%edx
  return fifo->size-fifo->free;//总数－空的＝有多个data在fifo中。
  28164c:	5d                   	pop    %ebp
  
}

int fifo8_status(struct FIFO8 *fifo)
{
  return fifo->size-fifo->free;//总数－空的＝有多个data在fifo中。
  28164d:	8b 42 0c             	mov    0xc(%edx),%eax
  281650:	2b 42 10             	sub    0x10(%edx),%eax
  281653:	c3                   	ret    

00281654 <enable_mouse>:
#include<header.h>
//激活鼠标的指令　还是向键盘控制器发送指令
#define KEYCMD_SENDTO_MOUSE 	0XD4
#define MOUSECMD_ENABLE     	0XF4
void enable_mouse(struct MOUSE_DEC *mdec)
{
  281654:	55                   	push   %ebp
  281655:	89 e5                	mov    %esp,%ebp
  281657:	83 ec 08             	sub    $0x8,%esp
  wait_KBC_sendready();			//等待port 0x0060,0x0064可用
  28165a:	e8 aa fe ff ff       	call   281509 <wait_KBC_sendready>
  28165f:	ba 64 00 00 00       	mov    $0x64,%edx
  281664:	b0 d4                	mov    $0xd4,%al
  281666:	ee                   	out    %al,(%dx)
  outb(PORT_KEYCMD,KEYCMD_SENDTO_MOUSE);//向port 0x0064　写　0XD4命令  下面的命令发给mouse
  wait_KBC_sendready();			//等待port 0x0060,0x0064可用
  281667:	e8 9d fe ff ff       	call   281509 <wait_KBC_sendready>
  28166c:	ba 60 00 00 00       	mov    $0x60,%edx
  281671:	b0 f4                	mov    $0xf4,%al
  281673:	ee                   	out    %al,(%dx)
  outb(PORT_KEYDAT,MOUSECMD_ENABLE); 	//向port 0x0060　写　0Xf4命令  给mouse发送enable命令
  
  mdec->phase=0;
  281674:	8b 45 08             	mov    0x8(%ebp),%eax
  281677:	c6 40 03 00          	movb   $0x0,0x3(%eax)
  return ; 				//if sucessful ,will create an interrupt ,and return ０xfa(ACK),产生的这个0xfa是给cpu的答复信号
					//就算鼠标不动，也会产生这个中断，所以我们一调用enable_mouse，就会产生鼠标中断，必须有这个服务函数。  
}
  28167b:	c9                   	leave  
  28167c:	c3                   	ret    

0028167d <mouse_decode>:


int mouse_decode(struct MOUSE_DEC *mdec,unsigned char data)
{
  28167d:	55                   	push   %ebp
  28167e:	89 e5                	mov    %esp,%ebp
  281680:	8b 55 08             	mov    0x8(%ebp),%edx
  281683:	53                   	push   %ebx
  281684:	8b 4d 0c             	mov    0xc(%ebp),%ecx
  if(mdec->phase==0)
  281687:	8a 42 03             	mov    0x3(%edx),%al
  28168a:	84 c0                	test   %al,%al
  28168c:	75 0d                	jne    28169b <mouse_decode+0x1e>
    if(data==0xfa)
    {
      mdec->phase = 1;
      
    }   
    return 0;
  28168e:	31 c0                	xor    %eax,%eax

int mouse_decode(struct MOUSE_DEC *mdec,unsigned char data)
{
  if(mdec->phase==0)
  {
    if(data==0xfa)
  281690:	80 f9 fa             	cmp    $0xfa,%cl
  281693:	75 73                	jne    281708 <mouse_decode+0x8b>
    {
      mdec->phase = 1;
  281695:	c6 42 03 01          	movb   $0x1,0x3(%edx)
  281699:	eb 6d                	jmp    281708 <mouse_decode+0x8b>
      
    }   
    return 0;
  }
  else if(mdec->phase==1) 
  28169b:	3c 01                	cmp    $0x1,%al
  28169d:	75 11                	jne    2816b0 <mouse_decode+0x33>
  {
    //鼠标的第一字节的数据
    if( (data & 0xc8) == 0x08 )//如果第一个字节的数据正确  ,只要第一个字节的数据是正确的，后面两个phase的数据就是关于左移 和右移的数据
  28169f:	88 c8                	mov    %cl,%al
  2816a1:	83 e0 c8             	and    $0xffffffc8,%eax
  2816a4:	3c 08                	cmp    $0x8,%al
  2816a6:	75 5d                	jne    281705 <mouse_decode+0x88>
    {
    mdec->buf[0] = data;
  2816a8:	88 0a                	mov    %cl,(%edx)
    mdec->phase  = 2;
  2816aa:	c6 42 03 02          	movb   $0x2,0x3(%edx)
  2816ae:	eb 0b                	jmp    2816bb <mouse_decode+0x3e>
    return 0;
    }
  }
  else if(mdec->phase==2) 
  2816b0:	3c 02                	cmp    $0x2,%al
  2816b2:	75 0b                	jne    2816bf <mouse_decode+0x42>
  {
    mdec->buf[1] = data;
  2816b4:	88 4a 01             	mov    %cl,0x1(%edx)
    mdec->phase  = 3;
  2816b7:	c6 42 03 03          	movb   $0x3,0x3(%edx)
    return 0;
  2816bb:	31 c0                	xor    %eax,%eax
  2816bd:	eb 49                	jmp    281708 <mouse_decode+0x8b>
  }
  else if(mdec->phase==3) 
  2816bf:	3c 03                	cmp    $0x3,%al
  2816c1:	75 42                	jne    281705 <mouse_decode+0x88>
  {
    mdec->buf[2] = data;
    mdec->phase  = 1;
    
    
    mdec->button =mdec->buf[0] & 0x07;//0x07=0000 0111  没有按键时为8（1000）左按键是9(1001)，右按键是10(1010) 从buf0解读出lrbutton是否按下，left=1,right=2;
  2816c3:	8a 02                	mov    (%edx),%al
    mdec->phase  = 3;
    return 0;
  }
  else if(mdec->phase==3) 
  {
    mdec->buf[2] = data;
  2816c5:	88 4a 02             	mov    %cl,0x2(%edx)
    mdec->phase  = 1;
    
    
    mdec->button =mdec->buf[0] & 0x07;//0x07=0000 0111  没有按键时为8（1000）左按键是9(1001)，右按键是10(1010) 从buf0解读出lrbutton是否按下，left=1,right=2;
    mdec->x =mdec->buf[1];
    mdec->y =mdec->buf[2];
  2816c8:	0f b6 c9             	movzbl %cl,%ecx
    return 0;
  }
  else if(mdec->phase==3) 
  {
    mdec->buf[2] = data;
    mdec->phase  = 1;
  2816cb:	c6 42 03 01          	movb   $0x1,0x3(%edx)
    
    
    mdec->button =mdec->buf[0] & 0x07;//0x07=0000 0111  没有按键时为8（1000）左按键是9(1001)，右按键是10(1010) 从buf0解读出lrbutton是否按下，left=1,right=2;
    mdec->x =mdec->buf[1];
    mdec->y =mdec->buf[2];
  2816cf:	89 4a 08             	mov    %ecx,0x8(%edx)
  {
    mdec->buf[2] = data;
    mdec->phase  = 1;
    
    
    mdec->button =mdec->buf[0] & 0x07;//0x07=0000 0111  没有按键时为8（1000）左按键是9(1001)，右按键是10(1010) 从buf0解读出lrbutton是否按下，left=1,right=2;
  2816d2:	89 c3                	mov    %eax,%ebx
  2816d4:	83 e3 07             	and    $0x7,%ebx
    mdec->x =mdec->buf[1];
    mdec->y =mdec->buf[2];
    
    //why do this 
    if( (mdec->buf[0] & 0x10) != 0)//bit4为1时 1
  2816d7:	a8 10                	test   $0x10,%al
  {
    mdec->buf[2] = data;
    mdec->phase  = 1;
    
    
    mdec->button =mdec->buf[0] & 0x07;//0x07=0000 0111  没有按键时为8（1000）左按键是9(1001)，右按键是10(1010) 从buf0解读出lrbutton是否按下，left=1,right=2;
  2816d9:	89 5a 0c             	mov    %ebx,0xc(%edx)
    mdec->x =mdec->buf[1];
  2816dc:	0f b6 5a 01          	movzbl 0x1(%edx),%ebx
  2816e0:	89 5a 04             	mov    %ebx,0x4(%edx)
    mdec->y =mdec->buf[2];
    
    //why do this 
    if( (mdec->buf[0] & 0x10) != 0)//bit4为1时 1
  2816e3:	74 09                	je     2816ee <mouse_decode+0x71>
    {
      mdec->x |=0xffffff00;//-x 根据buf[0]的bit4为1时，确定鼠标的移动方向是负方向。
  2816e5:	81 cb 00 ff ff ff    	or     $0xffffff00,%ebx
  2816eb:	89 5a 04             	mov    %ebx,0x4(%edx)
    }
    if( (mdec->buf[0] & 0x20) != 0)//bit5为1时 2
  2816ee:	a8 20                	test   $0x20,%al
  2816f0:	74 09                	je     2816fb <mouse_decode+0x7e>
    {
      mdec->y |=0xffffff00;//-y
  2816f2:	81 c9 00 ff ff ff    	or     $0xffffff00,%ecx
  2816f8:	89 4a 08             	mov    %ecx,0x8(%edx)
    }
    
    mdec->y= - mdec->y;//鼠标的移动方向与屏幕的方向是相反的。
  2816fb:	f7 5a 08             	negl   0x8(%edx)


    return 1;
  2816fe:	b8 01 00 00 00       	mov    $0x1,%eax
  281703:	eb 03                	jmp    281708 <mouse_decode+0x8b>
  }
  //buf0中的数据非常的重要，低四位与左右按键有关，高四位与方向有关。
  //高四位0－1－2－3，低四位8 9(left) a(right) b(both) c(middle)
   return -1;
  281705:	83 c8 ff             	or     $0xffffffff,%eax
}
  281708:	5b                   	pop    %ebx
  281709:	5d                   	pop    %ebp
  28170a:	c3                   	ret    

0028170b <getmemorysize>:
#include<mm.h>

 //下面的程序只能检测小于4GB的内存，而且 4GB的内存也只能检测为2488MB
unsigned int getmemorysize(unsigned int start,unsigned int end)
{
  28170b:	55                   	push   %ebp
  28170c:	89 e5                	mov    %esp,%ebp
  28170e:	8b 45 08             	mov    0x8(%ebp),%eax
  281711:	53                   	push   %ebx
 unsigned int old;


 unsigned int pat0=0xaa55aa55;
 volatile unsigned int *p;//注意这里的volatile关键字,
 for(i=start;i<=end;i+=0x1000)
  281712:	3b 45 0c             	cmp    0xc(%ebp),%eax
  281715:	77 2b                	ja     281742 <getmemorysize+0x37>
 {
  p=(unsigned int *)i+0x200;
  old=*p;
  281717:	8b 90 00 08 00 00    	mov    0x800(%eax),%edx
  *p=pat0;
  28171d:	c7 80 00 08 00 00 55 	movl   $0xaa55aa55,0x800(%eax)
  281724:	aa 55 aa 
  if(*p!=pat0)
  281727:	8b 98 00 08 00 00    	mov    0x800(%eax),%ebx
  {
   *p=old;
  28172d:	89 90 00 08 00 00    	mov    %edx,0x800(%eax)
 for(i=start;i<=end;i+=0x1000)
 {
  p=(unsigned int *)i+0x200;
  old=*p;
  *p=pat0;
  if(*p!=pat0)
  281733:	81 fb 55 aa 55 aa    	cmp    $0xaa55aa55,%ebx
  281739:	75 07                	jne    281742 <getmemorysize+0x37>
 unsigned int old;


 unsigned int pat0=0xaa55aa55;
 volatile unsigned int *p;//注意这里的volatile关键字,
 for(i=start;i<=end;i+=0x1000)
  28173b:	05 00 10 00 00       	add    $0x1000,%eax
  281740:	eb d0                	jmp    281712 <getmemorysize+0x7>
 }
 return i;//i就是得到的memory size



}
  281742:	5b                   	pop    %ebx
  281743:	5d                   	pop    %ebp
  281744:	c3                   	ret    

00281745 <memtest>:

unsigned int memtest(unsigned int start,unsigned int end)
{
  281745:	55                   	push   %ebp
  281746:	89 e5                	mov    %esp,%ebp
  281748:	53                   	push   %ebx
//read eflags and write_eflags
static __inline uint32_t
read_eflags(void)
{
        uint32_t eflags;
        __asm __volatile("pushfl; popl %0" : "=r" (eflags));
  281749:	9c                   	pushf  
  28174a:	58                   	pop    %eax
 char flg486=0;
 unsigned int eflg,cr0,i;
 eflg=read_eflags();
 eflg|=EFLAGS_AC_BIT;
  28174b:	0d 00 00 04 00       	or     $0x40000,%eax
}

static __inline void
write_eflags(uint32_t eflags)
{
        __asm __volatile("pushl %0; popfl" : : "r" (eflags));
  281750:	50                   	push   %eax
  281751:	9d                   	popf   
//read eflags and write_eflags
static __inline uint32_t
read_eflags(void)
{
        uint32_t eflags;
        __asm __volatile("pushfl; popl %0" : "=r" (eflags));
  281752:	9c                   	pushf  
  281753:	58                   	pop    %eax

}

unsigned int memtest(unsigned int start,unsigned int end)
{
 char flg486=0;
  281754:	31 db                	xor    %ebx,%ebx
 eflg=read_eflags();
 eflg|=EFLAGS_AC_BIT;
 write_eflags(eflg);

 eflg=read_eflags();
 if((eflg&EFLAGS_AC_BIT)!=0)
  281756:	a9 00 00 04 00       	test   $0x40000,%eax
  28175b:	74 14                	je     281771 <memtest+0x2c>
 {
  flg486=1;
  eflg&=~EFLAGS_AC_BIT;
  28175d:	25 ff ff fb ff       	and    $0xfffbffff,%eax
}

static __inline void
write_eflags(uint32_t eflags)
{
        __asm __volatile("pushl %0; popfl" : : "r" (eflags));
  281762:	50                   	push   %eax
  281763:	9d                   	popf   

static __inline uint32_t
rcr0(void)
{
	uint32_t val;
	__asm __volatile("movl %%cr0,%0" : "=r" (val));
  281764:	0f 20 c0             	mov    %cr0,%eax
  write_eflags(eflg);
 }
 if(flg486)
 {
  cr0=rcr0();
  cr0|=CR0_CACHE_DISABLE;
  281767:	0d 00 00 00 60       	or     $0x60000000,%eax
}

static __inline void
lcr0(uint32_t val)
{
	__asm __volatile("movl %0,%%cr0" : : "r" (val));
  28176c:	0f 22 c0             	mov    %eax,%cr0
 write_eflags(eflg);

 eflg=read_eflags();
 if((eflg&EFLAGS_AC_BIT)!=0)
 {
  flg486=1;
  28176f:	b3 01                	mov    $0x1,%bl
  cr0|=CR0_CACHE_DISABLE;
  lcr0(cr0);
 }


i=getmemorysize(start,end);
  281771:	ff 75 0c             	pushl  0xc(%ebp)
  281774:	ff 75 08             	pushl  0x8(%ebp)
  281777:	e8 8f ff ff ff       	call   28170b <getmemorysize>
//i=0x100000;

  if(flg486)
  28177c:	84 db                	test   %bl,%bl
  28177e:	5a                   	pop    %edx
  28177f:	59                   	pop    %ecx
  281780:	74 0c                	je     28178e <memtest+0x49>

static __inline uint32_t
rcr0(void)
{
	uint32_t val;
	__asm __volatile("movl %%cr0,%0" : "=r" (val));
  281782:	0f 20 c2             	mov    %cr0,%edx
  {
  cr0=rcr0();
  cr0&=~CR0_CACHE_DISABLE;
  281785:	81 e2 ff ff ff 9f    	and    $0x9fffffff,%edx
}

static __inline void
lcr0(uint32_t val)
{
	__asm __volatile("movl %0,%%cr0" : : "r" (val));
  28178b:	0f 22 c2             	mov    %edx,%cr0
  lcr0(cr0);

  }

  return i;
}
  28178e:	8b 5d fc             	mov    -0x4(%ebp),%ebx
  281791:	c9                   	leave  
  281792:	c3                   	ret    

00281793 <memman_init>:


void memman_init(Memman * man)
{
  281793:	55                   	push   %ebp
  281794:	89 e5                	mov    %esp,%ebp
  281796:	8b 45 08             	mov    0x8(%ebp),%eax
 man->cellnum=0;
  281799:	c7 00 00 00 00 00    	movl   $0x0,(%eax)
 man->maxcell=0;
  28179f:	c7 40 04 00 00 00 00 	movl   $0x0,0x4(%eax)
 man->lostsize=0;
  2817a6:	c7 40 08 00 00 00 00 	movl   $0x0,0x8(%eax)
 man->losts=0;
  2817ad:	c7 40 0c 00 00 00 00 	movl   $0x0,0xc(%eax)
}
  2817b4:	5d                   	pop    %ebp
  2817b5:	c3                   	ret    

002817b6 <memman_avail>:
//get available memory
unsigned int memman_avail(Memman *man)
{
  2817b6:	55                   	push   %ebp
 unsigned int i;
 unsigned int freemem=0;
  2817b7:	31 c0                	xor    %eax,%eax
 man->lostsize=0;
 man->losts=0;
}
//get available memory
unsigned int memman_avail(Memman *man)
{
  2817b9:	89 e5                	mov    %esp,%ebp
 unsigned int i;
 unsigned int freemem=0;
 for (i=0;i<man->cellnum;i++)
  2817bb:	31 d2                	xor    %edx,%edx
 man->lostsize=0;
 man->losts=0;
}
//get available memory
unsigned int memman_avail(Memman *man)
{
  2817bd:	8b 4d 08             	mov    0x8(%ebp),%ecx
  2817c0:	53                   	push   %ebx
 unsigned int i;
 unsigned int freemem=0;
 for (i=0;i<man->cellnum;i++)
  2817c1:	8b 19                	mov    (%ecx),%ebx
  2817c3:	39 da                	cmp    %ebx,%edx
  2817c5:	74 07                	je     2817ce <memman_avail+0x18>
 {
   freemem+=man->cell[i].size;
  2817c7:	03 44 d1 14          	add    0x14(%ecx,%edx,8),%eax
//get available memory
unsigned int memman_avail(Memman *man)
{
 unsigned int i;
 unsigned int freemem=0;
 for (i=0;i<man->cellnum;i++)
  2817cb:	42                   	inc    %edx
  2817cc:	eb f5                	jmp    2817c3 <memman_avail+0xd>
 {
   freemem+=man->cell[i].size;
 }
 return freemem;
}
  2817ce:	5b                   	pop    %ebx
  2817cf:	5d                   	pop    %ebp
  2817d0:	c3                   	ret    

002817d1 <memman_alloc>:
  size=(size+0xfff)&0xfffff000;
  return memman_alloc(man,size);
}
//allocate some memory for you
 int memman_alloc(Memman *man,unsigned int size)
{
  2817d1:	55                   	push   %ebp
    unsigned int i,a;
    for (i=0;i<man->cellnum;i++)
  2817d2:	31 d2                	xor    %edx,%edx
  size=(size+0xfff)&0xfffff000;
  return memman_alloc(man,size);
}
//allocate some memory for you
 int memman_alloc(Memman *man,unsigned int size)
{
  2817d4:	89 e5                	mov    %esp,%ebp
  2817d6:	8b 4d 08             	mov    0x8(%ebp),%ecx
  2817d9:	57                   	push   %edi
  2817da:	56                   	push   %esi
  2817db:	53                   	push   %ebx
    unsigned int i,a;
    for (i=0;i<man->cellnum;i++)
  2817dc:	8b 39                	mov    (%ecx),%edi
  2817de:	39 fa                	cmp    %edi,%edx
  2817e0:	74 43                	je     281825 <memman_alloc+0x54>
    {
        if(man->cell[i].size>size)
  2817e2:	8b 45 0c             	mov    0xc(%ebp),%eax
  2817e5:	39 44 d1 14          	cmp    %eax,0x14(%ecx,%edx,8)
  2817e9:	76 37                	jbe    281822 <memman_alloc+0x51>
  2817eb:	8d 34 d1             	lea    (%ecx,%edx,8),%esi
        {
            a=man->cell[i].address;
            man->cell[i].address+=size;
  2817ee:	8b 5d 0c             	mov    0xc(%ebp),%ebx
    unsigned int i,a;
    for (i=0;i<man->cellnum;i++)
    {
        if(man->cell[i].size>size)
        {
            a=man->cell[i].address;
  2817f1:	8b 46 10             	mov    0x10(%esi),%eax
            man->cell[i].address+=size;
  2817f4:	01 c3                	add    %eax,%ebx
  2817f6:	89 5e 10             	mov    %ebx,0x10(%esi)
            man->cell[i].size-=size;
  2817f9:	8b 5e 14             	mov    0x14(%esi),%ebx
  2817fc:	2b 5d 0c             	sub    0xc(%ebp),%ebx
            if(man->cell[i].size==0)
  2817ff:	85 db                	test   %ebx,%ebx
    {
        if(man->cell[i].size>size)
        {
            a=man->cell[i].address;
            man->cell[i].address+=size;
            man->cell[i].size-=size;
  281801:	89 5e 14             	mov    %ebx,0x14(%esi)
            if(man->cell[i].size==0)
  281804:	75 21                	jne    281827 <memman_alloc+0x56>
            {
                man->cellnum--;
  281806:	8d 5f ff             	lea    -0x1(%edi),%ebx
  281809:	89 19                	mov    %ebx,(%ecx)
                for(;i<man->cellnum;i++)
  28180b:	39 da                	cmp    %ebx,%edx
  28180d:	73 18                	jae    281827 <memman_alloc+0x56>
                {
                    man->cell[i]=man->cell[i+1];
  28180f:	42                   	inc    %edx
  281810:	8b 74 d1 10          	mov    0x10(%ecx,%edx,8),%esi
  281814:	8b 7c d1 14          	mov    0x14(%ecx,%edx,8),%edi
  281818:	89 74 d1 08          	mov    %esi,0x8(%ecx,%edx,8)
  28181c:	89 7c d1 0c          	mov    %edi,0xc(%ecx,%edx,8)
  281820:	eb e9                	jmp    28180b <memman_alloc+0x3a>
}
//allocate some memory for you
 int memman_alloc(Memman *man,unsigned int size)
{
    unsigned int i,a;
    for (i=0;i<man->cellnum;i++)
  281822:	42                   	inc    %edx
  281823:	eb b9                	jmp    2817de <memman_alloc+0xd>
            }

            return a;
        }
    }
    return 0; //no memory can be used
  281825:	31 c0                	xor    %eax,%eax
}
  281827:	5b                   	pop    %ebx
  281828:	5e                   	pop    %esi
  281829:	5f                   	pop    %edi
  28182a:	5d                   	pop    %ebp
  28182b:	c3                   	ret    

0028182c <memman_alloc_4K>:
 }
 return freemem;
}
//return an integer but is ad  address
int memman_alloc_4K(Memman *man,unsigned int size)
{
  28182c:	55                   	push   %ebp
  28182d:	89 e5                	mov    %esp,%ebp
  size=(size+0xfff)&0xfffff000;
  28182f:	8b 45 0c             	mov    0xc(%ebp),%eax
  281832:	05 ff 0f 00 00       	add    $0xfff,%eax
  281837:	25 00 f0 ff ff       	and    $0xfffff000,%eax
  return memman_alloc(man,size);
  28183c:	89 45 0c             	mov    %eax,0xc(%ebp)
}
  28183f:	5d                   	pop    %ebp
}
//return an integer but is ad  address
int memman_alloc_4K(Memman *man,unsigned int size)
{
  size=(size+0xfff)&0xfffff000;
  return memman_alloc(man,size);
  281840:	e9 8c ff ff ff       	jmp    2817d1 <memman_alloc>

00281845 <memman_free>:
  size=(size+0xfff)& 0xfffff000;
  return memman_free(man,addr,size);
}
//return -1 means free memory failure
int memman_free(Memman *man,unsigned int addr,unsigned int size)
{
  281845:	55                   	push   %ebp
  int i,j;
  for (i=0;i<man->cellnum;i++)
  281846:	31 d2                	xor    %edx,%edx
  size=(size+0xfff)& 0xfffff000;
  return memman_free(man,addr,size);
}
//return -1 means free memory failure
int memman_free(Memman *man,unsigned int addr,unsigned int size)
{
  281848:	89 e5                	mov    %esp,%ebp
  28184a:	57                   	push   %edi
  28184b:	56                   	push   %esi
  28184c:	53                   	push   %ebx
  28184d:	83 ec 08             	sub    $0x8,%esp
  281850:	8b 45 08             	mov    0x8(%ebp),%eax
  281853:	8b 7d 10             	mov    0x10(%ebp),%edi
  int i,j;
  for (i=0;i<man->cellnum;i++)
  281856:	8b 18                	mov    (%eax),%ebx
  281858:	89 5d f0             	mov    %ebx,-0x10(%ebp)
  28185b:	89 5d ec             	mov    %ebx,-0x14(%ebp)
  28185e:	3b 55 f0             	cmp    -0x10(%ebp),%edx
  281861:	74 09                	je     28186c <memman_free+0x27>
  {
    if(man->cell[i].address>addr)//这一步可以找到一个合适的i的地址范围
  281863:	8b 5d 0c             	mov    0xc(%ebp),%ebx
  281866:	39 5c d0 10          	cmp    %ebx,0x10(%eax,%edx,8)
  28186a:	76 06                	jbe    281872 <memman_free+0x2d>
    }
  }

  //man->cell[i-1].address<addr<man->cell[i].address
  //与前面空间合并
  if(i>0)  //
  28186c:	85 d2                	test   %edx,%edx
  28186e:	75 05                	jne    281875 <memman_free+0x30>
  281870:	eb 4c                	jmp    2818be <memman_free+0x79>
}
//return -1 means free memory failure
int memman_free(Memman *man,unsigned int addr,unsigned int size)
{
  int i,j;
  for (i=0;i<man->cellnum;i++)
  281872:	42                   	inc    %edx
  281873:	eb e9                	jmp    28185e <memman_free+0x19>
  281875:	8d 5c d0 f8          	lea    -0x8(%eax,%edx,8),%ebx

  //man->cell[i-1].address<addr<man->cell[i].address
  //与前面空间合并
  if(i>0)  //
  {
    if(man->cell[i-1].address+man->cell[i-1].size==addr)
  281879:	8b 73 14             	mov    0x14(%ebx),%esi
  28187c:	8b 4b 10             	mov    0x10(%ebx),%ecx
  28187f:	01 f1                	add    %esi,%ecx
  281881:	3b 4d 0c             	cmp    0xc(%ebp),%ecx
  281884:	75 38                	jne    2818be <memman_free+0x79>
    {
        man->cell[i-1].size+=size;
  281886:	01 fe                	add    %edi,%esi
        if(i<man->cellnum)
  281888:	3b 55 f0             	cmp    -0x10(%ebp),%edx
  //与前面空间合并
  if(i>0)  //
  {
    if(man->cell[i-1].address+man->cell[i-1].size==addr)
    {
        man->cell[i-1].size+=size;
  28188b:	89 73 14             	mov    %esi,0x14(%ebx)
        if(i<man->cellnum)
  28188e:	73 49                	jae    2818d9 <memman_free+0x94>
  281890:	8d 0c d0             	lea    (%eax,%edx,8),%ecx
        {
            if(addr+size==man->cell[i].address)
  281893:	03 7d 0c             	add    0xc(%ebp),%edi
  281896:	3b 79 10             	cmp    0x10(%ecx),%edi
  281899:	75 3e                	jne    2818d9 <memman_free+0x94>
            {
                man->cell[i-1].size+=man->cell[i].size;
  28189b:	03 71 14             	add    0x14(%ecx),%esi
  28189e:	89 73 14             	mov    %esi,0x14(%ebx)
                man->cellnum--;
  2818a1:	8b 75 f0             	mov    -0x10(%ebp),%esi
  2818a4:	4e                   	dec    %esi
  2818a5:	89 30                	mov    %esi,(%eax)

                for(;i<man->cellnum;i++)
  2818a7:	39 f2                	cmp    %esi,%edx
  2818a9:	73 2e                	jae    2818d9 <memman_free+0x94>
                {
                man->cell[i]=man->cell[i+1];
  2818ab:	42                   	inc    %edx
  2818ac:	8b 4c d0 10          	mov    0x10(%eax,%edx,8),%ecx
  2818b0:	8b 5c d0 14          	mov    0x14(%eax,%edx,8),%ebx
  2818b4:	89 4c d0 08          	mov    %ecx,0x8(%eax,%edx,8)
  2818b8:	89 5c d0 0c          	mov    %ebx,0xc(%eax,%edx,8)
  2818bc:	eb e9                	jmp    2818a7 <memman_free+0x62>
     //printdebug(200,100);

  }

  //与后面的空间合并
  if(i<man->cellnum)
  2818be:	3b 55 f0             	cmp    -0x10(%ebp),%edx
  2818c1:	73 1a                	jae    2818dd <memman_free+0x98>
  {
     if(addr+size==man->cell[i].address)
  2818c3:	8b 75 0c             	mov    0xc(%ebp),%esi
  2818c6:	8d 1c d0             	lea    (%eax,%edx,8),%ebx
  2818c9:	01 fe                	add    %edi,%esi
  2818cb:	3b 73 10             	cmp    0x10(%ebx),%esi
  2818ce:	75 0d                	jne    2818dd <memman_free+0x98>
     {
        man->cell[i].address=addr;
  2818d0:	8b 45 0c             	mov    0xc(%ebp),%eax
        man->cell[i].size+=size;
  2818d3:	01 7b 14             	add    %edi,0x14(%ebx)
  //与后面的空间合并
  if(i<man->cellnum)
  {
     if(addr+size==man->cell[i].address)
     {
        man->cell[i].address=addr;
  2818d6:	89 43 10             	mov    %eax,0x10(%ebx)
        man->cell[i].size+=size;

        return 0;
  2818d9:	31 c0                	xor    %eax,%eax
  2818db:	eb 4b                	jmp    281928 <memman_free+0xe3>
     }
  }

  if(man->cellnum<4090)
  2818dd:	81 7d f0 f9 0f 00 00 	cmpl   $0xff9,-0x10(%ebp)
  2818e4:	77 39                	ja     28191f <memman_free+0xda>
  {
        for(j=man->cellnum;j>i;j--)
  2818e6:	39 55 ec             	cmp    %edx,-0x14(%ebp)
  2818e9:	7e 18                	jle    281903 <memman_free+0xbe>
        {
            man->cell[j]=man->cell[j-1];
  2818eb:	ff 4d ec             	decl   -0x14(%ebp)
  2818ee:	8b 4d ec             	mov    -0x14(%ebp),%ecx
  2818f1:	8b 5c c8 10          	mov    0x10(%eax,%ecx,8),%ebx
  2818f5:	8b 74 c8 14          	mov    0x14(%eax,%ecx,8),%esi
  2818f9:	89 5c c8 18          	mov    %ebx,0x18(%eax,%ecx,8)
  2818fd:	89 74 c8 1c          	mov    %esi,0x1c(%eax,%ecx,8)
  281901:	eb e3                	jmp    2818e6 <memman_free+0xa1>
        }

        man->cellnum++;
  281903:	8b 4d f0             	mov    -0x10(%ebp),%ecx
  281906:	41                   	inc    %ecx
        if(man->maxcell<man->cellnum)
  281907:	39 48 04             	cmp    %ecx,0x4(%eax)
        for(j=man->cellnum;j>i;j--)
        {
            man->cell[j]=man->cell[j-1];
        }

        man->cellnum++;
  28190a:	89 08                	mov    %ecx,(%eax)
        if(man->maxcell<man->cellnum)
  28190c:	73 03                	jae    281911 <memman_free+0xcc>
        {
            man->maxcell=man->cellnum;
  28190e:	89 48 04             	mov    %ecx,0x4(%eax)
  281911:	8d 04 d0             	lea    (%eax,%edx,8),%eax
        }
        man->cell[i].address=addr;
  281914:	8b 55 0c             	mov    0xc(%ebp),%edx
        man->cell[i].size=size;
  281917:	89 78 14             	mov    %edi,0x14(%eax)
        man->cellnum++;
        if(man->maxcell<man->cellnum)
        {
            man->maxcell=man->cellnum;
        }
        man->cell[i].address=addr;
  28191a:	89 50 10             	mov    %edx,0x10(%eax)
  28191d:	eb ba                	jmp    2818d9 <memman_free+0x94>
       // printdebug(man->cellnum,100);
        return 0;
  }


  man->losts++;
  28191f:	ff 40 0c             	incl   0xc(%eax)
  man->lostsize+=size;
  281922:	01 78 08             	add    %edi,0x8(%eax)

  return  -1;
  281925:	83 c8 ff             	or     $0xffffffff,%eax
}
  281928:	5a                   	pop    %edx
  281929:	59                   	pop    %ecx
  28192a:	5b                   	pop    %ebx
  28192b:	5e                   	pop    %esi
  28192c:	5f                   	pop    %edi
  28192d:	5d                   	pop    %ebp
  28192e:	c3                   	ret    

0028192f <memman_free_4k>:
    return 0; //no memory can be used
}

//return -1 means free memory failure
int memman_free_4k(Memman *man,unsigned int addr,unsigned int size)
{
  28192f:	55                   	push   %ebp
  281930:	89 e5                	mov    %esp,%ebp
  size=(size+0xfff)& 0xfffff000;
  281932:	8b 45 10             	mov    0x10(%ebp),%eax
  281935:	05 ff 0f 00 00       	add    $0xfff,%eax
  28193a:	25 00 f0 ff ff       	and    $0xfffff000,%eax
  return memman_free(man,addr,size);
  28193f:	89 45 10             	mov    %eax,0x10(%ebp)
}
  281942:	5d                   	pop    %ebp

//return -1 means free memory failure
int memman_free_4k(Memman *man,unsigned int addr,unsigned int size)
{
  size=(size+0xfff)& 0xfffff000;
  return memman_free(man,addr,size);
  281943:	e9 fd fe ff ff       	jmp    281845 <memman_free>

00281948 <shtctl_init>:

  return  -1;
}

SHTCTL * shtctl_init(Memman * memman,unsigned char *vram,int xsize,int ysize)
{
  281948:	55                   	push   %ebp
  281949:	89 e5                	mov    %esp,%ebp
  28194b:	57                   	push   %edi
  28194c:	8b 7d 10             	mov    0x10(%ebp),%edi
  28194f:	56                   	push   %esi
  281950:	53                   	push   %ebx
  281951:	8b 5d 08             	mov    0x8(%ebp),%ebx
}
//return an integer but is ad  address
int memman_alloc_4K(Memman *man,unsigned int size)
{
  size=(size+0xfff)&0xfffff000;
  return memman_alloc(man,size);
  281954:	68 00 30 00 00       	push   $0x3000
  281959:	53                   	push   %ebx
  28195a:	e8 72 fe ff ff       	call   2817d1 <memman_alloc>
  28195f:	89 c6                	mov    %eax,%esi
SHTCTL * shtctl_init(Memman * memman,unsigned char *vram,int xsize,int ysize)
{
  SHTCTL *ctl;
  int i;
  ctl=(SHTCTL *)memman_alloc_4K(memman,sizeof(SHTCTL));
  if(ctl==0)
  281961:	85 f6                	test   %esi,%esi
  281963:	58                   	pop    %eax
  281964:	5a                   	pop    %edx
  281965:	74 57                	je     2819be <shtctl_init+0x76>
  return ctl;
  ctl->map=(unsigned char *)memman_alloc_4K(memman,xsize*ysize);
  281967:	8b 45 14             	mov    0x14(%ebp),%eax
  28196a:	0f af c7             	imul   %edi,%eax
  28196d:	50                   	push   %eax
  28196e:	53                   	push   %ebx
  28196f:	e8 b8 fe ff ff       	call   28182c <memman_alloc_4K>

  if(ctl->map==0)
  281974:	85 c0                	test   %eax,%eax
  SHTCTL *ctl;
  int i;
  ctl=(SHTCTL *)memman_alloc_4K(memman,sizeof(SHTCTL));
  if(ctl==0)
  return ctl;
  ctl->map=(unsigned char *)memman_alloc_4K(memman,xsize*ysize);
  281976:	89 46 04             	mov    %eax,0x4(%esi)

  if(ctl->map==0)
  281979:	5a                   	pop    %edx
  28197a:	59                   	pop    %ecx
  28197b:	75 11                	jne    28198e <shtctl_init+0x46>
    {
     memman_free_4k(memman,(int)ctl,sizeof(SHTCTL));
  28197d:	68 14 28 00 00       	push   $0x2814
  281982:	56                   	push   %esi
  281983:	53                   	push   %ebx
  281984:	e8 a6 ff ff ff       	call   28192f <memman_free_4k>
     return 0;
  281989:	83 c4 0c             	add    $0xc,%esp
  28198c:	eb 30                	jmp    2819be <shtctl_init+0x76>
    }
  ctl->vram=vram;
  28198e:	8b 45 0c             	mov    0xc(%ebp),%eax
  281991:	8d 8e 00 24 00 00    	lea    0x2400(%esi),%ecx
  ctl->xsize=xsize;
  281997:	89 7e 08             	mov    %edi,0x8(%esi)
  ctl->ysize=ysize;
  ctl->top=-1;  //no sheet
  28199a:	c7 46 10 ff ff ff ff 	movl   $0xffffffff,0x10(%esi)
  if(ctl->map==0)
    {
     memman_free_4k(memman,(int)ctl,sizeof(SHTCTL));
     return 0;
    }
  ctl->vram=vram;
  2819a1:	89 06                	mov    %eax,(%esi)
  ctl->xsize=xsize;
  ctl->ysize=ysize;
  2819a3:	8b 45 14             	mov    0x14(%ebp),%eax
  2819a6:	89 46 0c             	mov    %eax,0xc(%esi)
  2819a9:	89 f0                	mov    %esi,%eax
  ctl->top=-1;  //no sheet
  for(i=0;i<MAX_SHEETS;i++)
  {
    ctl->sheet[i].flags=0;
  2819ab:	c7 40 30 00 00 00 00 	movl   $0x0,0x30(%eax)
  2819b2:	83 c0 24             	add    $0x24,%eax
    ctl->sheet[i].ctl=ctl;
  2819b5:	89 70 10             	mov    %esi,0x10(%eax)
    }
  ctl->vram=vram;
  ctl->xsize=xsize;
  ctl->ysize=ysize;
  ctl->top=-1;  //no sheet
  for(i=0;i<MAX_SHEETS;i++)
  2819b8:	39 c8                	cmp    %ecx,%eax
  2819ba:	75 ef                	jne    2819ab <shtctl_init+0x63>
  2819bc:	eb 04                	jmp    2819c2 <shtctl_init+0x7a>
  2819be:	31 c0                	xor    %eax,%eax
  2819c0:	eb 02                	jmp    2819c4 <shtctl_init+0x7c>
  2819c2:	89 f0                	mov    %esi,%eax
  {
    ctl->sheet[i].flags=0;
    ctl->sheet[i].ctl=ctl;
  }
  return ctl;
}
  2819c4:	8d 65 f4             	lea    -0xc(%ebp),%esp
  2819c7:	5b                   	pop    %ebx
  2819c8:	5e                   	pop    %esi
  2819c9:	5f                   	pop    %edi
  2819ca:	5d                   	pop    %ebp
  2819cb:	c3                   	ret    

002819cc <sheet_alloc>:

SHEET * sheet_alloc(SHTCTL * ctl)
{
  2819cc:	55                   	push   %ebp
  SHEET *  sht;
  int i;
  for (i=0;i<MAX_SHEETS;i++)
  2819cd:	31 c0                	xor    %eax,%eax
  }
  return ctl;
}

SHEET * sheet_alloc(SHTCTL * ctl)
{
  2819cf:	89 e5                	mov    %esp,%ebp
  2819d1:	8b 55 08             	mov    0x8(%ebp),%edx
  2819d4:	6b c8 24             	imul   $0x24,%eax,%ecx
  SHEET *  sht;
  int i;
  for (i=0;i<MAX_SHEETS;i++)
  {
    if (ctl->sheet[i].flags==0)
  2819d7:	83 7c 0a 30 00       	cmpl   $0x0,0x30(%edx,%ecx,1)
  2819dc:	75 14                	jne    2819f2 <sheet_alloc+0x26>
    {
        sht=&ctl->sheet[i];
  2819de:	8d 44 0a 14          	lea    0x14(%edx,%ecx,1),%eax
        sht->flags=1;
  2819e2:	c7 40 1c 01 00 00 00 	movl   $0x1,0x1c(%eax)
        sht->height=-1;
  2819e9:	c7 40 18 ff ff ff ff 	movl   $0xffffffff,0x18(%eax)
        return sht;
  2819f0:	eb 0b                	jmp    2819fd <sheet_alloc+0x31>

SHEET * sheet_alloc(SHTCTL * ctl)
{
  SHEET *  sht;
  int i;
  for (i=0;i<MAX_SHEETS;i++)
  2819f2:	40                   	inc    %eax
  2819f3:	3d 00 01 00 00       	cmp    $0x100,%eax
  2819f8:	75 da                	jne    2819d4 <sheet_alloc+0x8>
        sht->flags=1;
        sht->height=-1;
        return sht;
    }
  }
  return 0;
  2819fa:	66 31 c0             	xor    %ax,%ax
}
  2819fd:	5d                   	pop    %ebp
  2819fe:	c3                   	ret    

002819ff <sheet_setbuf>:



void sheet_setbuf(SHEET * sht,unsigned char *buf,int xsize,int ysize,int col_inv)
{
  2819ff:	55                   	push   %ebp
  281a00:	89 e5                	mov    %esp,%ebp
  281a02:	8b 45 08             	mov    0x8(%ebp),%eax
  sht->buf=buf;
  281a05:	8b 55 0c             	mov    0xc(%ebp),%edx
  281a08:	89 10                	mov    %edx,(%eax)
  sht->bxsize=xsize;
  281a0a:	8b 55 10             	mov    0x10(%ebp),%edx
  281a0d:	89 50 04             	mov    %edx,0x4(%eax)
  sht->bysize=ysize;
  281a10:	8b 55 14             	mov    0x14(%ebp),%edx
  281a13:	89 50 08             	mov    %edx,0x8(%eax)
  sht->col_inv=col_inv;
  281a16:	8b 55 18             	mov    0x18(%ebp),%edx
  281a19:	89 50 14             	mov    %edx,0x14(%eax)
  return ;
}
  281a1c:	5d                   	pop    %ebp
  281a1d:	c3                   	ret    

00281a1e <sheet_refreshsub>:
 return;
}


void sheet_refreshsub(SHTCTL *ctl,int vx0,int vy0,int vx1,int vy1,int layer,int layerend)
{
  281a1e:	55                   	push   %ebp
  281a1f:	89 e5                	mov    %esp,%ebp
  281a21:	57                   	push   %edi
  281a22:	56                   	push   %esi
  281a23:	53                   	push   %ebx
  281a24:	83 ec 34             	sub    $0x34,%esp
  281a27:	8b 55 08             	mov    0x8(%ebp),%edx
  281a2a:	8b 4d 14             	mov    0x14(%ebp),%ecx
  281a2d:	8b 5d 18             	mov    0x18(%ebp),%ebx
int h,bx,by,vx,vy,bx0,bx1,by0,by1;
unsigned char *buf,*vram=ctl->vram;
  281a30:	8b 02                	mov    (%edx),%eax
  281a32:	89 45 ec             	mov    %eax,-0x14(%ebp)
unsigned char sid;
unsigned char c;
unsigned char *map=ctl->map;
  281a35:	8b 42 04             	mov    0x4(%edx),%eax
  281a38:	89 45 e8             	mov    %eax,-0x18(%ebp)


SHEET *sht;
if(vx0<0)vx=0;
if(vy0<0)vy=0;
if(vx1>ctl->xsize)vx1=ctl->xsize;
  281a3b:	8b 42 08             	mov    0x8(%edx),%eax
  281a3e:	39 c1                	cmp    %eax,%ecx
  281a40:	0f 4e c1             	cmovle %ecx,%eax
  281a43:	89 45 c8             	mov    %eax,-0x38(%ebp)
if(vy1>ctl->ysize)vy1=ctl->ysize;
  281a46:	8b 42 0c             	mov    0xc(%edx),%eax
  281a49:	39 c3                	cmp    %eax,%ebx
  281a4b:	0f 4e c3             	cmovle %ebx,%eax
  281a4e:	89 45 c4             	mov    %eax,-0x3c(%ebp)
for (h=layer;h<=layerend;h++)
{
  sht=ctl->sheets[h];
  sid=sht-ctl->sheet;
  281a51:	8d 42 14             	lea    0x14(%edx),%eax
  281a54:	89 45 c0             	mov    %eax,-0x40(%ebp)
SHEET *sht;
if(vx0<0)vx=0;
if(vy0<0)vy=0;
if(vx1>ctl->xsize)vx1=ctl->xsize;
if(vy1>ctl->ysize)vy1=ctl->ysize;
for (h=layer;h<=layerend;h++)
  281a57:	8b 45 20             	mov    0x20(%ebp),%eax
  281a5a:	39 45 1c             	cmp    %eax,0x1c(%ebp)
  281a5d:	0f 8f c6 00 00 00    	jg     281b29 <sheet_refreshsub+0x10b>
{
  sht=ctl->sheets[h];
  281a63:	8b 45 1c             	mov    0x1c(%ebp),%eax
  buf=sht->buf;

  bx0=vx0-sht->vx0;
  by0=vy0-sht->vy0;

  bx1=vx1-sht->vx0;
  281a66:	8b 5d c8             	mov    -0x38(%ebp),%ebx
if(vy0<0)vy=0;
if(vx1>ctl->xsize)vx1=ctl->xsize;
if(vy1>ctl->ysize)vy1=ctl->ysize;
for (h=layer;h<=layerend;h++)
{
  sht=ctl->sheets[h];
  281a69:	8b 84 82 14 24 00 00 	mov    0x2414(%edx,%eax,4),%eax
  sid=sht-ctl->sheet;
  281a70:	89 c1                	mov    %eax,%ecx
  buf=sht->buf;
  281a72:	8b 38                	mov    (%eax),%edi
if(vx1>ctl->xsize)vx1=ctl->xsize;
if(vy1>ctl->ysize)vy1=ctl->ysize;
for (h=layer;h<=layerend;h++)
{
  sht=ctl->sheets[h];
  sid=sht-ctl->sheet;
  281a74:	2b 4d c0             	sub    -0x40(%ebp),%ecx
  buf=sht->buf;

  bx0=vx0-sht->vx0;
  281a77:	8b 70 0c             	mov    0xc(%eax),%esi
if(vx1>ctl->xsize)vx1=ctl->xsize;
if(vy1>ctl->ysize)vy1=ctl->ysize;
for (h=layer;h<=layerend;h++)
{
  sht=ctl->sheets[h];
  sid=sht-ctl->sheet;
  281a7a:	c1 f9 02             	sar    $0x2,%ecx
  281a7d:	69 c9 39 8e e3 38    	imul   $0x38e38e39,%ecx,%ecx
  buf=sht->buf;
  281a83:	89 7d e0             	mov    %edi,-0x20(%ebp)

  bx0=vx0-sht->vx0;
  by0=vy0-sht->vy0;
  281a86:	8b 78 10             	mov    0x10(%eax),%edi

  bx1=vx1-sht->vx0;
  281a89:	29 f3                	sub    %esi,%ebx
if(vx1>ctl->xsize)vx1=ctl->xsize;
if(vy1>ctl->ysize)vy1=ctl->ysize;
for (h=layer;h<=layerend;h++)
{
  sht=ctl->sheets[h];
  sid=sht-ctl->sheet;
  281a8b:	88 4d e7             	mov    %cl,-0x19(%ebp)

  bx0=vx0-sht->vx0;
  by0=vy0-sht->vy0;

  bx1=vx1-sht->vx0;
  by1=vy1-sht->vy0;
  281a8e:	8b 4d c4             	mov    -0x3c(%ebp),%ecx
  281a91:	89 7d f0             	mov    %edi,-0x10(%ebp)
  281a94:	29 f9                	sub    %edi,%ecx
  281a96:	8b 7d 0c             	mov    0xc(%ebp),%edi
  281a99:	29 f7                	sub    %esi,%edi
  281a9b:	89 fe                	mov    %edi,%esi
  281a9d:	bf 00 00 00 00       	mov    $0x0,%edi
  281aa2:	0f 48 f7             	cmovs  %edi,%esi
  281aa5:	89 75 cc             	mov    %esi,-0x34(%ebp)
  281aa8:	8b 75 10             	mov    0x10(%ebp),%esi
  281aab:	2b 75 f0             	sub    -0x10(%ebp),%esi
  281aae:	0f 49 fe             	cmovns %esi,%edi

  if(bx0<0)bx0=0;
  if(by0<0)by0=0;
  if(bx1>sht->bxsize)bx1=sht->bxsize;
  281ab1:	8b 70 04             	mov    0x4(%eax),%esi
  281ab4:	39 f3                	cmp    %esi,%ebx
  281ab6:	0f 4e f3             	cmovle %ebx,%esi
  if(by1>sht->bysize)by1=sht->bysize;
  281ab9:	8b 58 08             	mov    0x8(%eax),%ebx
  281abc:	89 75 d0             	mov    %esi,-0x30(%ebp)
  281abf:	39 d9                	cmp    %ebx,%ecx
  281ac1:	0f 4e d9             	cmovle %ecx,%ebx
  281ac4:	89 5d d4             	mov    %ebx,-0x2c(%ebp)
  for(by=by0;by<by1;by++)
  281ac7:	3b 7d d4             	cmp    -0x2c(%ebp),%edi
  281aca:	7d 55                	jge    281b21 <sheet_refreshsub+0x103>
  {
    vy=sht->vy0+by;
  281acc:	8b 48 10             	mov    0x10(%eax),%ecx
  281acf:	01 f9                	add    %edi,%ecx
  281ad1:	89 4d dc             	mov    %ecx,-0x24(%ebp)
    for(bx=bx0;bx<bx1;bx++)
  281ad4:	8b 4d cc             	mov    -0x34(%ebp),%ecx
  281ad7:	89 4d f0             	mov    %ecx,-0x10(%ebp)
  281ada:	8b 4d d0             	mov    -0x30(%ebp),%ecx
  281add:	39 4d f0             	cmp    %ecx,-0x10(%ebp)
  281ae0:	7d 3c                	jge    281b1e <sheet_refreshsub+0x100>
    {
        vx=sht->vx0+bx;

            c=map[vy*ctl->xsize+vx];
  281ae2:	8b 75 dc             	mov    -0x24(%ebp),%esi
  281ae5:	0f af 72 08          	imul   0x8(%edx),%esi
  for(by=by0;by<by1;by++)
  {
    vy=sht->vy0+by;
    for(bx=bx0;bx<bx1;bx++)
    {
        vx=sht->vx0+bx;
  281ae9:	8b 5d f0             	mov    -0x10(%ebp),%ebx
  281aec:	03 58 0c             	add    0xc(%eax),%ebx

            c=map[vy*ctl->xsize+vx];
            if(c==sid)
  281aef:	8b 4d e8             	mov    -0x18(%ebp),%ecx
    vy=sht->vy0+by;
    for(bx=bx0;bx<bx1;bx++)
    {
        vx=sht->vx0+bx;

            c=map[vy*ctl->xsize+vx];
  281af2:	01 de                	add    %ebx,%esi
            if(c==sid)
  281af4:	8a 5d e7             	mov    -0x19(%ebp),%bl
    vy=sht->vy0+by;
    for(bx=bx0;bx<bx1;bx++)
    {
        vx=sht->vx0+bx;

            c=map[vy*ctl->xsize+vx];
  281af7:	89 75 d8             	mov    %esi,-0x28(%ebp)
            if(c==sid)
  281afa:	38 1c 31             	cmp    %bl,(%ecx,%esi,1)
  281afd:	75 1a                	jne    281b19 <sheet_refreshsub+0xfb>
            {
                vram[vy*ctl->xsize+vx]=buf[by*sht->bxsize+bx];;
  281aff:	8b 70 04             	mov    0x4(%eax),%esi
  281b02:	8b 4d e0             	mov    -0x20(%ebp),%ecx
  281b05:	8b 5d f0             	mov    -0x10(%ebp),%ebx
  281b08:	0f af f7             	imul   %edi,%esi
  281b0b:	01 cb                	add    %ecx,%ebx
  281b0d:	8b 4d ec             	mov    -0x14(%ebp),%ecx
  281b10:	8a 1c 33             	mov    (%ebx,%esi,1),%bl
  281b13:	8b 75 d8             	mov    -0x28(%ebp),%esi
  281b16:	88 1c 31             	mov    %bl,(%ecx,%esi,1)
  if(bx1>sht->bxsize)bx1=sht->bxsize;
  if(by1>sht->bysize)by1=sht->bysize;
  for(by=by0;by<by1;by++)
  {
    vy=sht->vy0+by;
    for(bx=bx0;bx<bx1;bx++)
  281b19:	ff 45 f0             	incl   -0x10(%ebp)
  281b1c:	eb bc                	jmp    281ada <sheet_refreshsub+0xbc>

  if(bx0<0)bx0=0;
  if(by0<0)by0=0;
  if(bx1>sht->bxsize)bx1=sht->bxsize;
  if(by1>sht->bysize)by1=sht->bysize;
  for(by=by0;by<by1;by++)
  281b1e:	47                   	inc    %edi
  281b1f:	eb a6                	jmp    281ac7 <sheet_refreshsub+0xa9>
SHEET *sht;
if(vx0<0)vx=0;
if(vy0<0)vy=0;
if(vx1>ctl->xsize)vx1=ctl->xsize;
if(vy1>ctl->ysize)vy1=ctl->ysize;
for (h=layer;h<=layerend;h++)
  281b21:	ff 45 1c             	incl   0x1c(%ebp)
  281b24:	e9 2e ff ff ff       	jmp    281a57 <sheet_refreshsub+0x39>
 // if(h==1)  while(1);

}
return;

}
  281b29:	83 c4 34             	add    $0x34,%esp
  281b2c:	5b                   	pop    %ebx
  281b2d:	5e                   	pop    %esi
  281b2e:	5f                   	pop    %edi
  281b2f:	5d                   	pop    %ebp
  281b30:	c3                   	ret    

00281b31 <sheet_refresh>:
 }

}

void sheet_refresh(SHEET * sht,int bx0,int by0,int bx1,int by1)
{
  281b31:	55                   	push   %ebp
  281b32:	89 e5                	mov    %esp,%ebp
  281b34:	8b 45 08             	mov    0x8(%ebp),%eax
  281b37:	53                   	push   %ebx
SHTCTL *ctl=sht->ctl;
if (sht->height>=0)
  281b38:	8b 50 18             	mov    0x18(%eax),%edx

}

void sheet_refresh(SHEET * sht,int bx0,int by0,int bx1,int by1)
{
SHTCTL *ctl=sht->ctl;
  281b3b:	8b 58 20             	mov    0x20(%eax),%ebx
if (sht->height>=0)
  281b3e:	85 d2                	test   %edx,%edx
  281b40:	78 25                	js     281b67 <sheet_refresh+0x36>
{
    sheet_refreshsub(ctl,sht->vx0+bx0,sht->vy0+by0,
    sht->vx0+bx1,sht->vy0+by1,sht->height,sht->height);
  281b42:	8b 48 10             	mov    0x10(%eax),%ecx
  281b45:	8b 40 0c             	mov    0xc(%eax),%eax
void sheet_refresh(SHEET * sht,int bx0,int by0,int bx1,int by1)
{
SHTCTL *ctl=sht->ctl;
if (sht->height>=0)
{
    sheet_refreshsub(ctl,sht->vx0+bx0,sht->vy0+by0,
  281b48:	52                   	push   %edx
  281b49:	52                   	push   %edx
  281b4a:	8b 55 18             	mov    0x18(%ebp),%edx
  281b4d:	01 ca                	add    %ecx,%edx
  281b4f:	52                   	push   %edx
  281b50:	8b 55 14             	mov    0x14(%ebp),%edx
  281b53:	03 4d 10             	add    0x10(%ebp),%ecx
  281b56:	01 c2                	add    %eax,%edx
  281b58:	03 45 0c             	add    0xc(%ebp),%eax
  281b5b:	52                   	push   %edx
  281b5c:	51                   	push   %ecx
  281b5d:	50                   	push   %eax
  281b5e:	53                   	push   %ebx
  281b5f:	e8 ba fe ff ff       	call   281a1e <sheet_refreshsub>
  281b64:	83 c4 1c             	add    $0x1c,%esp
    sht->vx0+bx1,sht->vy0+by1,sht->height,sht->height);

    }
}
  281b67:	8b 5d fc             	mov    -0x4(%ebp),%ebx
  281b6a:	c9                   	leave  
  281b6b:	c3                   	ret    

00281b6c <sheet_refreshmap>:
}



void sheet_refreshmap(SHTCTL *ctl,int vx0,int vy0,int vx1,int vy1,int layer)
{
  281b6c:	55                   	push   %ebp
  281b6d:	89 e5                	mov    %esp,%ebp
  281b6f:	57                   	push   %edi
  281b70:	56                   	push   %esi
  281b71:	53                   	push   %ebx
  281b72:	83 ec 28             	sub    $0x28,%esp
int h,bx,by,vx,vy, bx0,by0,bx1,by1;
unsigned char *buf,*vram=ctl->vram;
unsigned char *map=ctl->map;
  281b75:	8b 45 08             	mov    0x8(%ebp),%eax
}



void sheet_refreshmap(SHTCTL *ctl,int vx0,int vy0,int vx1,int vy1,int layer)
{
  281b78:	8b 5d 14             	mov    0x14(%ebp),%ebx
  281b7b:	8b 4d 18             	mov    0x18(%ebp),%ecx
int h,bx,by,vx,vy, bx0,by0,bx1,by1;
unsigned char *buf,*vram=ctl->vram;
unsigned char *map=ctl->map;
  281b7e:	8b 40 04             	mov    0x4(%eax),%eax
  281b81:	89 45 f0             	mov    %eax,-0x10(%ebp)


SHEET *sht;
if(vx0<0)vx=0;
if(vy0<0)vy=0;
if(vx1>ctl->xsize)vx1=ctl->xsize;
  281b84:	8b 45 08             	mov    0x8(%ebp),%eax
  281b87:	8b 40 08             	mov    0x8(%eax),%eax
  281b8a:	39 c3                	cmp    %eax,%ebx
  281b8c:	0f 4e c3             	cmovle %ebx,%eax
  281b8f:	89 45 d4             	mov    %eax,-0x2c(%ebp)
if(vy1>ctl->ysize)vy1=ctl->ysize;
  281b92:	8b 45 08             	mov    0x8(%ebp),%eax
  281b95:	8b 40 0c             	mov    0xc(%eax),%eax
  281b98:	39 c1                	cmp    %eax,%ecx
  281b9a:	0f 4e c1             	cmovle %ecx,%eax
  281b9d:	89 45 d0             	mov    %eax,-0x30(%ebp)
for (h=layer;h<=ctl->top;h++)
{
  sht=ctl->sheets[h];
  sid=sht-ctl->sheet;
  281ba0:	8b 45 08             	mov    0x8(%ebp),%eax
  281ba3:	83 c0 14             	add    $0x14,%eax
  281ba6:	89 45 cc             	mov    %eax,-0x34(%ebp)
SHEET *sht;
if(vx0<0)vx=0;
if(vy0<0)vy=0;
if(vx1>ctl->xsize)vx1=ctl->xsize;
if(vy1>ctl->ysize)vy1=ctl->ysize;
for (h=layer;h<=ctl->top;h++)
  281ba9:	8b 45 08             	mov    0x8(%ebp),%eax
  281bac:	8b 40 10             	mov    0x10(%eax),%eax
  281baf:	39 45 1c             	cmp    %eax,0x1c(%ebp)
  281bb2:	0f 8f b4 00 00 00    	jg     281c6c <sheet_refreshmap+0x100>
{
  sht=ctl->sheets[h];
  281bb8:	8b 55 08             	mov    0x8(%ebp),%edx
  281bbb:	8b 45 1c             	mov    0x1c(%ebp),%eax
  buf=sht->buf;

  bx0=vx0-sht->vx0;
  by0=vy0-sht->vy0;

  bx1=vx1-sht->vx0;
  281bbe:	8b 5d d4             	mov    -0x2c(%ebp),%ebx
if(vy0<0)vy=0;
if(vx1>ctl->xsize)vx1=ctl->xsize;
if(vy1>ctl->ysize)vy1=ctl->ysize;
for (h=layer;h<=ctl->top;h++)
{
  sht=ctl->sheets[h];
  281bc1:	8b 84 82 14 24 00 00 	mov    0x2414(%edx,%eax,4),%eax
  sid=sht-ctl->sheet;
  281bc8:	89 c1                	mov    %eax,%ecx
  //printdebug((unsigned)sid,0);
  buf=sht->buf;
  281bca:	8b 10                	mov    (%eax),%edx
if(vx1>ctl->xsize)vx1=ctl->xsize;
if(vy1>ctl->ysize)vy1=ctl->ysize;
for (h=layer;h<=ctl->top;h++)
{
  sht=ctl->sheets[h];
  sid=sht-ctl->sheet;
  281bcc:	2b 4d cc             	sub    -0x34(%ebp),%ecx
  //printdebug((unsigned)sid,0);
  buf=sht->buf;

  bx0=vx0-sht->vx0;
  281bcf:	8b 70 0c             	mov    0xc(%eax),%esi
  by0=vy0-sht->vy0;
  281bd2:	8b 78 10             	mov    0x10(%eax),%edi
if(vx1>ctl->xsize)vx1=ctl->xsize;
if(vy1>ctl->ysize)vy1=ctl->ysize;
for (h=layer;h<=ctl->top;h++)
{
  sht=ctl->sheets[h];
  sid=sht-ctl->sheet;
  281bd5:	c1 f9 02             	sar    $0x2,%ecx
  281bd8:	69 c9 39 8e e3 38    	imul   $0x38e38e39,%ecx,%ecx
  //printdebug((unsigned)sid,0);
  buf=sht->buf;
  281bde:	89 55 e8             	mov    %edx,-0x18(%ebp)
  281be1:	8b 55 0c             	mov    0xc(%ebp),%edx

  bx0=vx0-sht->vx0;
  by0=vy0-sht->vy0;

  bx1=vx1-sht->vx0;
  281be4:	29 f3                	sub    %esi,%ebx
if(vx1>ctl->xsize)vx1=ctl->xsize;
if(vy1>ctl->ysize)vy1=ctl->ysize;
for (h=layer;h<=ctl->top;h++)
{
  sht=ctl->sheets[h];
  sid=sht-ctl->sheet;
  281be6:	88 4d ef             	mov    %cl,-0x11(%ebp)

  bx0=vx0-sht->vx0;
  by0=vy0-sht->vy0;

  bx1=vx1-sht->vx0;
  by1=vy1-sht->vy0;
  281be9:	8b 4d d0             	mov    -0x30(%ebp),%ecx
  281bec:	29 f9                	sub    %edi,%ecx
  281bee:	29 f2                	sub    %esi,%edx
  281bf0:	89 d6                	mov    %edx,%esi
  281bf2:	ba 00 00 00 00       	mov    $0x0,%edx
  281bf7:	0f 48 f2             	cmovs  %edx,%esi
  281bfa:	89 75 d8             	mov    %esi,-0x28(%ebp)
  281bfd:	8b 75 10             	mov    0x10(%ebp),%esi
  281c00:	29 fe                	sub    %edi,%esi
  if(bx0<0)bx0=0;
  if(by0<0)by0=0;
  if(bx1>sht->bxsize)bx1=sht->bxsize;
  281c02:	8b 78 04             	mov    0x4(%eax),%edi
  281c05:	0f 48 f2             	cmovs  %edx,%esi
  281c08:	39 fb                	cmp    %edi,%ebx
  281c0a:	0f 4e fb             	cmovle %ebx,%edi
  if(by1>sht->bysize)by1=sht->bysize;
  281c0d:	8b 58 08             	mov    0x8(%eax),%ebx
  281c10:	89 7d dc             	mov    %edi,-0x24(%ebp)
  281c13:	39 d9                	cmp    %ebx,%ecx
  281c15:	0f 4e d9             	cmovle %ecx,%ebx
  281c18:	89 5d e0             	mov    %ebx,-0x20(%ebp)
  for(by=by0;by<by1;by++)
  281c1b:	3b 75 e0             	cmp    -0x20(%ebp),%esi
  281c1e:	7d 44                	jge    281c64 <sheet_refreshmap+0xf8>
  {
    vy=sht->vy0+by;
  281c20:	8b 50 10             	mov    0x10(%eax),%edx
    for(bx=bx0;bx<bx1;bx++)
  281c23:	8b 4d d8             	mov    -0x28(%ebp),%ecx
  if(by0<0)by0=0;
  if(bx1>sht->bxsize)bx1=sht->bxsize;
  if(by1>sht->bysize)by1=sht->bysize;
  for(by=by0;by<by1;by++)
  {
    vy=sht->vy0+by;
  281c26:	01 f2                	add    %esi,%edx
  281c28:	89 55 e4             	mov    %edx,-0x1c(%ebp)
    for(bx=bx0;bx<bx1;bx++)
  281c2b:	3b 4d dc             	cmp    -0x24(%ebp),%ecx
  281c2e:	7d 31                	jge    281c61 <sheet_refreshmap+0xf5>
    {
        vx=sht->vx0+bx;
            c=buf[by*sht->bxsize+bx];
  281c30:	8b 58 04             	mov    0x4(%eax),%ebx
  281c33:	8b 7d e8             	mov    -0x18(%ebp),%edi
  for(by=by0;by<by1;by++)
  {
    vy=sht->vy0+by;
    for(bx=bx0;bx<bx1;bx++)
    {
        vx=sht->vx0+bx;
  281c36:	8b 50 0c             	mov    0xc(%eax),%edx
            c=buf[by*sht->bxsize+bx];
  281c39:	0f af de             	imul   %esi,%ebx
  281c3c:	01 cf                	add    %ecx,%edi
            if(c!=sht->col_inv)
  281c3e:	0f b6 1c 1f          	movzbl (%edi,%ebx,1),%ebx
  281c42:	3b 58 14             	cmp    0x14(%eax),%ebx
  281c45:	74 17                	je     281c5e <sheet_refreshmap+0xf2>
            {
                map[vy*ctl->xsize+vx]=sid;
  281c47:	8b 7d 08             	mov    0x8(%ebp),%edi
  281c4a:	8b 5d e4             	mov    -0x1c(%ebp),%ebx
  281c4d:	0f af 5f 08          	imul   0x8(%edi),%ebx
  281c51:	8b 7d f0             	mov    -0x10(%ebp),%edi
  281c54:	01 cf                	add    %ecx,%edi
  281c56:	01 d7                	add    %edx,%edi
  281c58:	8a 55 ef             	mov    -0x11(%ebp),%dl
  281c5b:	88 14 1f             	mov    %dl,(%edi,%ebx,1)
  if(bx1>sht->bxsize)bx1=sht->bxsize;
  if(by1>sht->bysize)by1=sht->bysize;
  for(by=by0;by<by1;by++)
  {
    vy=sht->vy0+by;
    for(bx=bx0;bx<bx1;bx++)
  281c5e:	41                   	inc    %ecx
  281c5f:	eb ca                	jmp    281c2b <sheet_refreshmap+0xbf>
  by1=vy1-sht->vy0;
  if(bx0<0)bx0=0;
  if(by0<0)by0=0;
  if(bx1>sht->bxsize)bx1=sht->bxsize;
  if(by1>sht->bysize)by1=sht->bysize;
  for(by=by0;by<by1;by++)
  281c61:	46                   	inc    %esi
  281c62:	eb b7                	jmp    281c1b <sheet_refreshmap+0xaf>
SHEET *sht;
if(vx0<0)vx=0;
if(vy0<0)vy=0;
if(vx1>ctl->xsize)vx1=ctl->xsize;
if(vy1>ctl->ysize)vy1=ctl->ysize;
for (h=layer;h<=ctl->top;h++)
  281c64:	ff 45 1c             	incl   0x1c(%ebp)
  281c67:	e9 3d ff ff ff       	jmp    281ba9 <sheet_refreshmap+0x3d>
  }

}
return;

}
  281c6c:	83 c4 28             	add    $0x28,%esp
  281c6f:	5b                   	pop    %ebx
  281c70:	5e                   	pop    %esi
  281c71:	5f                   	pop    %edi
  281c72:	5d                   	pop    %ebp
  281c73:	c3                   	ret    

00281c74 <sheet_updown>:
  return ;
}


void sheet_updown(SHEET * sht,int height)
{
  281c74:	55                   	push   %ebp
  281c75:	89 e5                	mov    %esp,%ebp
  281c77:	57                   	push   %edi
  281c78:	56                   	push   %esi
  281c79:	53                   	push   %ebx
  281c7a:	83 ec 08             	sub    $0x8,%esp
  281c7d:	8b 5d 08             	mov    0x8(%ebp),%ebx
  281c80:	8b 55 0c             	mov    0xc(%ebp),%edx
 int h ,old=sht->height;
  281c83:	8b 43 18             	mov    0x18(%ebx),%eax
 SHTCTL *ctl=sht->ctl;
  281c86:	8b 73 20             	mov    0x20(%ebx),%esi
}


void sheet_updown(SHEET * sht,int height)
{
 int h ,old=sht->height;
  281c89:	89 c1                	mov    %eax,%ecx
  281c8b:	89 45 f0             	mov    %eax,-0x10(%ebp)
 SHTCTL *ctl=sht->ctl;
 if(height>ctl->top+1)
  281c8e:	8b 46 10             	mov    0x10(%esi),%eax
  281c91:	8d 78 01             	lea    0x1(%eax),%edi
  281c94:	39 fa                	cmp    %edi,%edx
  281c96:	0f 4f d7             	cmovg  %edi,%edx
  281c99:	89 7d ec             	mov    %edi,-0x14(%ebp)
  281c9c:	83 cf ff             	or     $0xffffffff,%edi
  281c9f:	85 d2                	test   %edx,%edx
  281ca1:	0f 49 fa             	cmovns %edx,%edi
 {
  height=-1;
 }
 sht->height=height;

 if(old>height)
  281ca4:	39 f9                	cmp    %edi,%ecx

 if(height<-1)
 {
  height=-1;
 }
 sht->height=height;
  281ca6:	89 7b 18             	mov    %edi,0x18(%ebx)

 if(old>height)
  281ca9:	0f 8e b6 00 00 00    	jle    281d65 <sheet_updown+0xf1>
 {
   if(height>=0)
  281caf:	85 ff                	test   %edi,%edi
  281cb1:	78 5b                	js     281d0e <sheet_updown+0x9a>
  281cb3:	89 c8                	mov    %ecx,%eax
   {
        for(h=old;h>height;h--)
        {
            ctl->sheets[h]=ctl->sheets[h-1];
  281cb5:	8d 50 ff             	lea    -0x1(%eax),%edx
  281cb8:	8b 8c 96 14 24 00 00 	mov    0x2414(%esi,%edx,4),%ecx

 if(old>height)
 {
   if(height>=0)
   {
        for(h=old;h>height;h--)
  281cbf:	39 fa                	cmp    %edi,%edx
        {
            ctl->sheets[h]=ctl->sheets[h-1];
  281cc1:	89 8c 96 18 24 00 00 	mov    %ecx,0x2418(%esi,%edx,4)
            ctl->sheets[h]->height=h;
  281cc8:	89 41 18             	mov    %eax,0x18(%ecx)

 if(old>height)
 {
   if(height>=0)
   {
        for(h=old;h>height;h--)
  281ccb:	74 04                	je     281cd1 <sheet_updown+0x5d>
  281ccd:	89 d0                	mov    %edx,%eax
  281ccf:	eb e4                	jmp    281cb5 <sheet_updown+0x41>
        {
            ctl->sheets[h]=ctl->sheets[h-1];
            ctl->sheets[h]->height=h;
        }
        ctl->sheets[height]=sht;
        sheet_refreshmap(ctl,sht->vx0,sht->vy0,sht->vx0+sht->bxsize,sht->vy0+sht->bysize,sht->height+1);
  281cd1:	8b 7b 18             	mov    0x18(%ebx),%edi
  281cd4:	8b 53 10             	mov    0x10(%ebx),%edx
        for(h=old;h>height;h--)
        {
            ctl->sheets[h]=ctl->sheets[h-1];
            ctl->sheets[h]->height=h;
        }
        ctl->sheets[height]=sht;
  281cd7:	89 9c 86 10 24 00 00 	mov    %ebx,0x2410(%esi,%eax,4)
        sheet_refreshmap(ctl,sht->vx0,sht->vy0,sht->vx0+sht->bxsize,sht->vy0+sht->bysize,sht->height+1);
  281cde:	8b 43 0c             	mov    0xc(%ebx),%eax
  281ce1:	8d 4f 01             	lea    0x1(%edi),%ecx
  281ce4:	51                   	push   %ecx
  281ce5:	8b 4b 08             	mov    0x8(%ebx),%ecx
  281ce8:	01 d1                	add    %edx,%ecx
  281cea:	51                   	push   %ecx
  281ceb:	8b 4b 04             	mov    0x4(%ebx),%ecx
  281cee:	01 c1                	add    %eax,%ecx
  281cf0:	51                   	push   %ecx
  281cf1:	52                   	push   %edx
  281cf2:	50                   	push   %eax
  281cf3:	56                   	push   %esi
  281cf4:	e8 73 fe ff ff       	call   281b6c <sheet_refreshmap>

        sheet_refreshsub(ctl,sht->vx0,sht->vy0,sht->vx0+sht->bxsize,sht->vy0+sht->bysize,sht->height+1,old);
  281cf9:	8b 53 10             	mov    0x10(%ebx),%edx
  281cfc:	8b 43 0c             	mov    0xc(%ebx),%eax
  281cff:	ff 75 f0             	pushl  -0x10(%ebp)
  281d02:	8b 7b 18             	mov    0x18(%ebx),%edi
  281d05:	8d 4f 01             	lea    0x1(%edi),%ecx
  281d08:	51                   	push   %ecx
  281d09:	e9 e1 00 00 00       	jmp    281def <sheet_updown+0x17b>

   }
   else
   {
        if(ctl->top>old)
  281d0e:	8b 7d f0             	mov    -0x10(%ebp),%edi
  281d11:	39 f8                	cmp    %edi,%eax
  281d13:	89 f9                	mov    %edi,%ecx
  281d15:	7f 32                	jg     281d49 <sheet_updown+0xd5>
                ctl->sheets[h]=ctl->sheets[h+1];
                ctl->sheets[h]->height=h;
            }

        }
        ctl->top--;
  281d17:	48                   	dec    %eax
        sheet_refreshmap(ctl,sht->vx0,sht->vy0,sht->vx0+sht->bxsize,sht->vy0+sht->bysize,0);
  281d18:	8b 53 10             	mov    0x10(%ebx),%edx
                ctl->sheets[h]=ctl->sheets[h+1];
                ctl->sheets[h]->height=h;
            }

        }
        ctl->top--;
  281d1b:	89 46 10             	mov    %eax,0x10(%esi)
        sheet_refreshmap(ctl,sht->vx0,sht->vy0,sht->vx0+sht->bxsize,sht->vy0+sht->bysize,0);
  281d1e:	8b 43 0c             	mov    0xc(%ebx),%eax
  281d21:	6a 00                	push   $0x0
  281d23:	8b 4b 08             	mov    0x8(%ebx),%ecx
  281d26:	01 d1                	add    %edx,%ecx
  281d28:	51                   	push   %ecx
  281d29:	8b 4b 04             	mov    0x4(%ebx),%ecx
  281d2c:	01 c1                	add    %eax,%ecx
  281d2e:	51                   	push   %ecx
  281d2f:	52                   	push   %edx
  281d30:	50                   	push   %eax
  281d31:	56                   	push   %esi
  281d32:	e8 35 fe ff ff       	call   281b6c <sheet_refreshmap>
        sheet_refreshsub(ctl,sht->vx0,sht->vy0,sht->vx0+sht->bxsize,sht->vy0+sht->bysize,0,old-1);
  281d37:	8b 4d f0             	mov    -0x10(%ebp),%ecx
  281d3a:	8b 53 10             	mov    0x10(%ebx),%edx
  281d3d:	8b 43 0c             	mov    0xc(%ebx),%eax
  281d40:	49                   	dec    %ecx
  281d41:	51                   	push   %ecx
  281d42:	6a 00                	push   $0x0
  281d44:	e9 a6 00 00 00       	jmp    281def <sheet_updown+0x17b>
   {
        if(ctl->top>old)
        {
            for(h=old;h<ctl->top;h++)
            {
                ctl->sheets[h]=ctl->sheets[h+1];
  281d49:	8d 51 01             	lea    0x1(%ecx),%edx
  281d4c:	8b bc 96 14 24 00 00 	mov    0x2414(%esi,%edx,4),%edi
   }
   else
   {
        if(ctl->top>old)
        {
            for(h=old;h<ctl->top;h++)
  281d53:	39 c2                	cmp    %eax,%edx
            {
                ctl->sheets[h]=ctl->sheets[h+1];
  281d55:	89 bc 96 10 24 00 00 	mov    %edi,0x2410(%esi,%edx,4)
                ctl->sheets[h]->height=h;
  281d5c:	89 4f 18             	mov    %ecx,0x18(%edi)
   }
   else
   {
        if(ctl->top>old)
        {
            for(h=old;h<ctl->top;h++)
  281d5f:	74 b6                	je     281d17 <sheet_updown+0xa3>
  281d61:	89 d1                	mov    %edx,%ecx
  281d63:	eb e4                	jmp    281d49 <sheet_updown+0xd5>
        sheet_refreshmap(ctl,sht->vx0,sht->vy0,sht->vx0+sht->bxsize,sht->vy0+sht->bysize,0);
        sheet_refreshsub(ctl,sht->vx0,sht->vy0,sht->vx0+sht->bxsize,sht->vy0+sht->bysize,0,old-1);

   }
 }
 else if(old<height)
  281d65:	0f 8d 9b 00 00 00    	jge    281e06 <sheet_updown+0x192>
 {

    if(old>0)
  281d6b:	83 7d f0 00          	cmpl   $0x0,-0x10(%ebp)
  281d6f:	7e 2c                	jle    281d9d <sheet_updown+0x129>
    {

        for(h=old;h<height;h++)
        {
         ctl->sheets[h]=ctl->sheets[h+1];
  281d71:	8b 4d f0             	mov    -0x10(%ebp),%ecx
  281d74:	89 c8                	mov    %ecx,%eax
  281d76:	40                   	inc    %eax
  281d77:	8b 94 86 14 24 00 00 	mov    0x2414(%esi,%eax,4),%edx
 {

    if(old>0)
    {

        for(h=old;h<height;h++)
  281d7e:	39 f8                	cmp    %edi,%eax
        {
         ctl->sheets[h]=ctl->sheets[h+1];
  281d80:	89 94 86 10 24 00 00 	mov    %edx,0x2410(%esi,%eax,4)
         ctl->sheets[h]->height=h;
  281d87:	89 4a 18             	mov    %ecx,0x18(%edx)
 {

    if(old>0)
    {

        for(h=old;h<height;h++)
  281d8a:	74 05                	je     281d91 <sheet_updown+0x11d>
  281d8c:	89 45 f0             	mov    %eax,-0x10(%ebp)
  281d8f:	eb e0                	jmp    281d71 <sheet_updown+0xfd>
        {
         ctl->sheets[h]=ctl->sheets[h+1];
         ctl->sheets[h]->height=h;
        }
        ctl->sheets[height]=sht;
  281d91:	8b 45 f0             	mov    -0x10(%ebp),%eax
  281d94:	89 9c 86 18 24 00 00 	mov    %ebx,0x2418(%esi,%eax,4)
  281d9b:	eb 2f                	jmp    281dcc <sheet_updown+0x158>
    }
    else
    {

        for(h=ctl->top;h>=height;h--)
  281d9d:	39 f8                	cmp    %edi,%eax
  281d9f:	7c 1e                	jl     281dbf <sheet_updown+0x14b>
        {
            ctl->sheets[h+1]=ctl->sheets[h];
  281da1:	8b 94 86 14 24 00 00 	mov    0x2414(%esi,%eax,4),%edx
  281da8:	8b 8c 86 14 24 00 00 	mov    0x2414(%esi,%eax,4),%ecx
  281daf:	89 94 86 18 24 00 00 	mov    %edx,0x2418(%esi,%eax,4)
  281db6:	8d 50 01             	lea    0x1(%eax),%edx
        ctl->sheets[height]=sht;
    }
    else
    {

        for(h=ctl->top;h>=height;h--)
  281db9:	48                   	dec    %eax
  281dba:	89 51 18             	mov    %edx,0x18(%ecx)
  281dbd:	eb de                	jmp    281d9d <sheet_updown+0x129>
        {
            ctl->sheets[h+1]=ctl->sheets[h];
            ctl->sheets[h+1]->height=h+1;
        }
        ctl->sheets[height]=sht;
        ctl->top++;
  281dbf:	8b 45 ec             	mov    -0x14(%ebp),%eax
        for(h=ctl->top;h>=height;h--)
        {
            ctl->sheets[h+1]=ctl->sheets[h];
            ctl->sheets[h+1]->height=h+1;
        }
        ctl->sheets[height]=sht;
  281dc2:	89 9c be 14 24 00 00 	mov    %ebx,0x2414(%esi,%edi,4)
        ctl->top++;
  281dc9:	89 46 10             	mov    %eax,0x10(%esi)

    }
      sheet_refreshmap(ctl,sht->vx0,sht->vy0,sht->vx0+sht->bxsize,sht->vy0+sht->bysize,height);
  281dcc:	8b 53 10             	mov    0x10(%ebx),%edx
  281dcf:	8b 43 0c             	mov    0xc(%ebx),%eax
  281dd2:	57                   	push   %edi
  281dd3:	8b 4b 08             	mov    0x8(%ebx),%ecx
  281dd6:	01 d1                	add    %edx,%ecx
  281dd8:	51                   	push   %ecx
  281dd9:	8b 4b 04             	mov    0x4(%ebx),%ecx
  281ddc:	01 c1                	add    %eax,%ecx
  281dde:	51                   	push   %ecx
  281ddf:	52                   	push   %edx
  281de0:	50                   	push   %eax
  281de1:	56                   	push   %esi
  281de2:	e8 85 fd ff ff       	call   281b6c <sheet_refreshmap>
      sheet_refreshsub(ctl,sht->vx0,sht->vy0,sht->vx0+sht->bxsize,sht->vy0+sht->bysize,height,height);
  281de7:	8b 53 10             	mov    0x10(%ebx),%edx
  281dea:	8b 43 0c             	mov    0xc(%ebx),%eax
  281ded:	57                   	push   %edi
  281dee:	57                   	push   %edi
  281def:	8b 4b 08             	mov    0x8(%ebx),%ecx
  281df2:	01 d1                	add    %edx,%ecx
  281df4:	51                   	push   %ecx
  281df5:	8b 4b 04             	mov    0x4(%ebx),%ecx
  281df8:	01 c1                	add    %eax,%ecx
  281dfa:	51                   	push   %ecx
  281dfb:	52                   	push   %edx
  281dfc:	50                   	push   %eax
  281dfd:	56                   	push   %esi
  281dfe:	e8 1b fc ff ff       	call   281a1e <sheet_refreshsub>
  281e03:	83 c4 34             	add    $0x34,%esp
 }

}
  281e06:	8d 65 f4             	lea    -0xc(%ebp),%esp
  281e09:	5b                   	pop    %ebx
  281e0a:	5e                   	pop    %esi
  281e0b:	5f                   	pop    %edi
  281e0c:	5d                   	pop    %ebp
  281e0d:	c3                   	ret    

00281e0e <sheet_free>:
return;

}

void sheet_free(SHEET *sht)
{
  281e0e:	55                   	push   %ebp
  281e0f:	89 e5                	mov    %esp,%ebp
  281e11:	53                   	push   %ebx
  281e12:	8b 5d 08             	mov    0x8(%ebp),%ebx
 if(sht->height>=0)
  281e15:	83 7b 18 00          	cmpl   $0x0,0x18(%ebx)
  281e19:	78 0a                	js     281e25 <sheet_free+0x17>
 sheet_updown(sht,-1);
  281e1b:	6a ff                	push   $0xffffffff
  281e1d:	53                   	push   %ebx
  281e1e:	e8 51 fe ff ff       	call   281c74 <sheet_updown>
  281e23:	58                   	pop    %eax
  281e24:	5a                   	pop    %edx

sht->flags=0;
  281e25:	c7 43 1c 00 00 00 00 	movl   $0x0,0x1c(%ebx)
return;
}
  281e2c:	8b 5d fc             	mov    -0x4(%ebp),%ebx
  281e2f:	c9                   	leave  
  281e30:	c3                   	ret    

00281e31 <sheet_move>:

    }
}

void sheet_move(SHEET * sht,int vx0,int vy0)
{
  281e31:	55                   	push   %ebp
  281e32:	89 e5                	mov    %esp,%ebp
  281e34:	57                   	push   %edi
  281e35:	56                   	push   %esi
  281e36:	53                   	push   %ebx
  281e37:	83 ec 08             	sub    $0x8,%esp
  281e3a:	8b 5d 08             	mov    0x8(%ebp),%ebx
  281e3d:	8b 75 10             	mov    0x10(%ebp),%esi
SHTCTL * ctl=sht->ctl;
 int old_vx0=sht->vx0;
 int old_vy0=sht->vy0;

 sht->vx0=vx0;
  281e40:	8b 45 0c             	mov    0xc(%ebp),%eax
 sht->vy0=vy0;
 if(sht->height>=0)
  281e43:	83 7b 18 00          	cmpl   $0x0,0x18(%ebx)
}

void sheet_move(SHEET * sht,int vx0,int vy0)
{
SHTCTL * ctl=sht->ctl;
 int old_vx0=sht->vx0;
  281e47:	8b 53 0c             	mov    0xc(%ebx),%edx
 int old_vy0=sht->vy0;
  281e4a:	8b 4b 10             	mov    0x10(%ebx),%ecx
    }
}

void sheet_move(SHEET * sht,int vx0,int vy0)
{
SHTCTL * ctl=sht->ctl;
  281e4d:	8b 7b 20             	mov    0x20(%ebx),%edi
 int old_vx0=sht->vx0;
 int old_vy0=sht->vy0;

 sht->vx0=vx0;
  281e50:	89 43 0c             	mov    %eax,0xc(%ebx)
 sht->vy0=vy0;
  281e53:	89 73 10             	mov    %esi,0x10(%ebx)
 if(sht->height>=0)
  281e56:	78 79                	js     281ed1 <sheet_move+0xa0>
 {
    //移动之后map要重新生成
    sheet_refreshmap(ctl,old_vx0,old_vy0,old_vx0+sht->bxsize,old_vy0+sht->bysize,0);
  281e58:	6a 00                	push   $0x0
  281e5a:	8b 43 08             	mov    0x8(%ebx),%eax
  281e5d:	89 4d ec             	mov    %ecx,-0x14(%ebp)
  281e60:	89 55 f0             	mov    %edx,-0x10(%ebp)
  281e63:	01 c8                	add    %ecx,%eax
  281e65:	50                   	push   %eax
  281e66:	8b 43 04             	mov    0x4(%ebx),%eax
  281e69:	01 d0                	add    %edx,%eax
  281e6b:	50                   	push   %eax
  281e6c:	51                   	push   %ecx
  281e6d:	52                   	push   %edx
  281e6e:	57                   	push   %edi
  281e6f:	e8 f8 fc ff ff       	call   281b6c <sheet_refreshmap>
    sheet_refreshmap(ctl,vx0,vy0,vx0+sht->bxsize,vy0+sht->bysize,sht->height);
  281e74:	ff 73 18             	pushl  0x18(%ebx)
  281e77:	8b 43 08             	mov    0x8(%ebx),%eax
  281e7a:	01 f0                	add    %esi,%eax
  281e7c:	50                   	push   %eax
  281e7d:	8b 45 0c             	mov    0xc(%ebp),%eax
  281e80:	03 43 04             	add    0x4(%ebx),%eax
  281e83:	50                   	push   %eax
  281e84:	56                   	push   %esi
  281e85:	ff 75 0c             	pushl  0xc(%ebp)
  281e88:	57                   	push   %edi
  281e89:	e8 de fc ff ff       	call   281b6c <sheet_refreshmap>
    //sheet_refresh(ctl);
    sheet_refreshsub(ctl,old_vx0,old_vy0,old_vx0+sht->bxsize,old_vy0+sht->bysize,0,sht->height-1);
  281e8e:	8b 43 18             	mov    0x18(%ebx),%eax
  281e91:	83 c4 30             	add    $0x30,%esp
  281e94:	8b 4d ec             	mov    -0x14(%ebp),%ecx
  281e97:	8b 55 f0             	mov    -0x10(%ebp),%edx
  281e9a:	48                   	dec    %eax
  281e9b:	50                   	push   %eax
  281e9c:	6a 00                	push   $0x0
  281e9e:	8b 43 08             	mov    0x8(%ebx),%eax
  281ea1:	01 c8                	add    %ecx,%eax
  281ea3:	50                   	push   %eax
  281ea4:	8b 43 04             	mov    0x4(%ebx),%eax
  281ea7:	01 d0                	add    %edx,%eax
  281ea9:	50                   	push   %eax
  281eaa:	51                   	push   %ecx
  281eab:	52                   	push   %edx
  281eac:	57                   	push   %edi
  281ead:	e8 6c fb ff ff       	call   281a1e <sheet_refreshsub>
    sheet_refreshsub(ctl,vx0,vy0,vx0+sht->bxsize,vy0+sht->bysize,sht->height,sht->height);
  281eb2:	8b 43 18             	mov    0x18(%ebx),%eax
  281eb5:	50                   	push   %eax
  281eb6:	50                   	push   %eax
  281eb7:	8b 43 08             	mov    0x8(%ebx),%eax
  281eba:	01 f0                	add    %esi,%eax
  281ebc:	50                   	push   %eax
  281ebd:	8b 45 0c             	mov    0xc(%ebp),%eax
  281ec0:	03 43 04             	add    0x4(%ebx),%eax
  281ec3:	50                   	push   %eax
  281ec4:	56                   	push   %esi
  281ec5:	ff 75 0c             	pushl  0xc(%ebp)
  281ec8:	57                   	push   %edi
  281ec9:	e8 50 fb ff ff       	call   281a1e <sheet_refreshsub>
  281ece:	83 c4 38             	add    $0x38,%esp
 }
 return;
}
  281ed1:	8d 65 f4             	lea    -0xc(%ebp),%esp
  281ed4:	5b                   	pop    %ebx
  281ed5:	5e                   	pop    %esi
  281ed6:	5f                   	pop    %edi
  281ed7:	5d                   	pop    %ebp
  281ed8:	c3                   	ret    

00281ed9 <GUIMONO_DispChar>:
  281ed9:	55                   	push   %ebp
  281eda:	89 e5                	mov    %esp,%ebp
  281edc:	53                   	push   %ebx
  281edd:	83 ec 74             	sub    $0x74,%esp
  281ee0:	8b 45 08             	mov    0x8(%ebp),%eax
  281ee3:	66 89 45 b4          	mov    %ax,-0x4c(%ebp)
  281ee7:	0f b7 05 a2 9e 28 00 	movzwl 0x289ea2,%eax
  281eee:	98                   	cwtl   
  281eef:	89 45 e8             	mov    %eax,-0x18(%ebp)
  281ef2:	0f b7 05 a4 9e 28 00 	movzwl 0x289ea4,%eax
  281ef9:	98                   	cwtl   
  281efa:	89 45 e4             	mov    %eax,-0x1c(%ebp)
  281efd:	a1 98 9e 28 00       	mov    0x289e98,%eax
  281f02:	8b 40 18             	mov    0x18(%eax),%eax
  281f05:	89 45 e0             	mov    %eax,-0x20(%ebp)
  281f08:	8b 45 e0             	mov    -0x20(%ebp),%eax
  281f0b:	0f b7 40 0c          	movzwl 0xc(%eax),%eax
  281f0f:	0f b7 c0             	movzwl %ax,%eax
  281f12:	89 45 dc             	mov    %eax,-0x24(%ebp)
  281f15:	8b 45 dc             	mov    -0x24(%ebp),%eax
  281f18:	66 3b 45 b4          	cmp    -0x4c(%ebp),%ax
  281f1c:	77 2b                	ja     281f49 <GUIMONO_DispChar+0x70>
  281f1e:	8b 45 e0             	mov    -0x20(%ebp),%eax
  281f21:	0f b7 40 0e          	movzwl 0xe(%eax),%eax
  281f25:	66 3b 45 b4          	cmp    -0x4c(%ebp),%ax
  281f29:	72 1e                	jb     281f49 <GUIMONO_DispChar+0x70>
  281f2b:	8b 45 e0             	mov    -0x20(%ebp),%eax
  281f2e:	8b 00                	mov    (%eax),%eax
  281f30:	89 45 ec             	mov    %eax,-0x14(%ebp)
  281f33:	0f b7 45 b4          	movzwl -0x4c(%ebp),%eax
  281f37:	2b 45 dc             	sub    -0x24(%ebp),%eax
  281f3a:	89 45 f4             	mov    %eax,-0xc(%ebp)
  281f3d:	c7 45 f0 ff ff ff ff 	movl   $0xffffffff,-0x10(%ebp)
  281f44:	e9 8b 00 00 00       	jmp    281fd4 <GUIMONO_DispChar+0xfb>
  281f49:	8b 45 e0             	mov    -0x20(%ebp),%eax
  281f4c:	8b 40 08             	mov    0x8(%eax),%eax
  281f4f:	89 45 d8             	mov    %eax,-0x28(%ebp)
  281f52:	8b 45 e0             	mov    -0x20(%ebp),%eax
  281f55:	8b 40 04             	mov    0x4(%eax),%eax
  281f58:	89 45 ec             	mov    %eax,-0x14(%ebp)
  281f5b:	83 7d d8 00          	cmpl   $0x0,-0x28(%ebp)
  281f5f:	74 66                	je     281fc7 <GUIMONO_DispChar+0xee>
  281f61:	8b 45 d8             	mov    -0x28(%ebp),%eax
  281f64:	0f b7 00             	movzwl (%eax),%eax
  281f67:	0f b7 c0             	movzwl %ax,%eax
  281f6a:	89 45 dc             	mov    %eax,-0x24(%ebp)
  281f6d:	8b 45 dc             	mov    -0x24(%ebp),%eax
  281f70:	66 3b 45 b4          	cmp    -0x4c(%ebp),%ax
  281f74:	77 42                	ja     281fb8 <GUIMONO_DispChar+0xdf>
  281f76:	8b 45 d8             	mov    -0x28(%ebp),%eax
  281f79:	0f b7 40 02          	movzwl 0x2(%eax),%eax
  281f7d:	66 3b 45 b4          	cmp    -0x4c(%ebp),%ax
  281f81:	72 35                	jb     281fb8 <GUIMONO_DispChar+0xdf>
  281f83:	8b 45 d8             	mov    -0x28(%ebp),%eax
  281f86:	0f b7 00             	movzwl (%eax),%eax
  281f89:	66 29 45 b4          	sub    %ax,-0x4c(%ebp)
  281f8d:	8b 45 d8             	mov    -0x28(%ebp),%eax
  281f90:	8b 40 04             	mov    0x4(%eax),%eax
  281f93:	89 45 d4             	mov    %eax,-0x2c(%ebp)
  281f96:	0f b7 45 b4          	movzwl -0x4c(%ebp),%eax
  281f9a:	c1 e0 02             	shl    $0x2,%eax
  281f9d:	01 45 d4             	add    %eax,-0x2c(%ebp)
  281fa0:	8b 45 d4             	mov    -0x2c(%ebp),%eax
  281fa3:	0f b7 00             	movzwl (%eax),%eax
  281fa6:	98                   	cwtl   
  281fa7:	89 45 f4             	mov    %eax,-0xc(%ebp)
  281faa:	8b 45 d4             	mov    -0x2c(%ebp),%eax
  281fad:	0f b7 40 02          	movzwl 0x2(%eax),%eax
  281fb1:	98                   	cwtl   
  281fb2:	89 45 f0             	mov    %eax,-0x10(%ebp)
  281fb5:	90                   	nop
  281fb6:	eb 1c                	jmp    281fd4 <GUIMONO_DispChar+0xfb>
  281fb8:	c7 45 f0 ff ff ff ff 	movl   $0xffffffff,-0x10(%ebp)
  281fbf:	8b 45 f0             	mov    -0x10(%ebp),%eax
  281fc2:	89 45 f4             	mov    %eax,-0xc(%ebp)
  281fc5:	eb 0d                	jmp    281fd4 <GUIMONO_DispChar+0xfb>
  281fc7:	c7 45 f0 ff ff ff ff 	movl   $0xffffffff,-0x10(%ebp)
  281fce:	8b 45 f0             	mov    -0x10(%ebp),%eax
  281fd1:	89 45 f4             	mov    %eax,-0xc(%ebp)
  281fd4:	83 7d f4 ff          	cmpl   $0xffffffff,-0xc(%ebp)
  281fd8:	0f 84 dd 01 00 00    	je     2821bb <GUIMONO_DispChar+0x2e2>
  281fde:	a1 98 9e 28 00       	mov    0x289e98,%eax
  281fe3:	0f b6 40 14          	movzbl 0x14(%eax),%eax
  281fe7:	0f b6 d0             	movzbl %al,%edx
  281fea:	8b 45 e0             	mov    -0x20(%ebp),%eax
  281fed:	0f b6 40 12          	movzbl 0x12(%eax),%eax
  281ff1:	0f b6 c0             	movzbl %al,%eax
  281ff4:	0f af c2             	imul   %edx,%eax
  281ff7:	89 45 d0             	mov    %eax,-0x30(%ebp)
  281ffa:	8b 45 e0             	mov    -0x20(%ebp),%eax
  281ffd:	0f b6 40 10          	movzbl 0x10(%eax),%eax
  282001:	0f b6 c0             	movzbl %al,%eax
  282004:	89 45 cc             	mov    %eax,-0x34(%ebp)
  282007:	a1 98 9e 28 00       	mov    0x289e98,%eax
  28200c:	0f b6 40 14          	movzbl 0x14(%eax),%eax
  282010:	0f b6 c0             	movzbl %al,%eax
  282013:	89 45 c8             	mov    %eax,-0x38(%ebp)
  282016:	0f b7 05 aa 9e 28 00 	movzwl 0x289eaa,%eax
  28201d:	98                   	cwtl   
  28201e:	89 45 c4             	mov    %eax,-0x3c(%ebp)
  282021:	8b 45 c4             	mov    -0x3c(%ebp),%eax
  282024:	89 04 24             	mov    %eax,(%esp)
  282027:	e8 50 11 00 00       	call   28317c <LCD_SetDrawMode>
  28202c:	88 45 c3             	mov    %al,-0x3d(%ebp)
  28202f:	8b 45 f4             	mov    -0xc(%ebp),%eax
  282032:	0f af 45 d0          	imul   -0x30(%ebp),%eax
  282036:	89 c2                	mov    %eax,%edx
  282038:	8b 45 ec             	mov    -0x14(%ebp),%eax
  28203b:	8d 1c 02             	lea    (%edx,%eax,1),%ebx
  28203e:	8b 45 e0             	mov    -0x20(%ebp),%eax
  282041:	0f b6 40 12          	movzbl 0x12(%eax),%eax
  282045:	0f b6 c8             	movzbl %al,%ecx
  282048:	a1 98 9e 28 00       	mov    0x289e98,%eax
  28204d:	0f b6 40 17          	movzbl 0x17(%eax),%eax
  282051:	0f be d0             	movsbl %al,%edx
  282054:	a1 98 9e 28 00       	mov    0x289e98,%eax
  282059:	0f b6 40 16          	movzbl 0x16(%eax),%eax
  28205d:	0f be c0             	movsbl %al,%eax
  282060:	c7 44 24 24 80 9e 28 	movl   $0x289e80,0x24(%esp)
  282067:	00 
  282068:	89 5c 24 20          	mov    %ebx,0x20(%esp)
  28206c:	89 4c 24 1c          	mov    %ecx,0x1c(%esp)
  282070:	c7 44 24 18 01 00 00 	movl   $0x1,0x18(%esp)
  282077:	00 
  282078:	89 54 24 14          	mov    %edx,0x14(%esp)
  28207c:	89 44 24 10          	mov    %eax,0x10(%esp)
  282080:	8b 45 c8             	mov    -0x38(%ebp),%eax
  282083:	89 44 24 0c          	mov    %eax,0xc(%esp)
  282087:	8b 45 cc             	mov    -0x34(%ebp),%eax
  28208a:	89 44 24 08          	mov    %eax,0x8(%esp)
  28208e:	8b 45 e4             	mov    -0x1c(%ebp),%eax
  282091:	89 44 24 04          	mov    %eax,0x4(%esp)
  282095:	8b 45 e8             	mov    -0x18(%ebp),%eax
  282098:	89 04 24             	mov    %eax,(%esp)
  28209b:	e8 cd 12 00 00       	call   28336d <LCD_DrawBitmap>
  2820a0:	83 7d f0 ff          	cmpl   $0xffffffff,-0x10(%ebp)
  2820a4:	74 7f                	je     282125 <GUIMONO_DispChar+0x24c>
  2820a6:	8b 45 c4             	mov    -0x3c(%ebp),%eax
  2820a9:	83 c8 02             	or     $0x2,%eax
  2820ac:	89 04 24             	mov    %eax,(%esp)
  2820af:	e8 c8 10 00 00       	call   28317c <LCD_SetDrawMode>
  2820b4:	8b 45 f0             	mov    -0x10(%ebp),%eax
  2820b7:	0f af 45 d0          	imul   -0x30(%ebp),%eax
  2820bb:	89 c2                	mov    %eax,%edx
  2820bd:	8b 45 ec             	mov    -0x14(%ebp),%eax
  2820c0:	8d 1c 02             	lea    (%edx,%eax,1),%ebx
  2820c3:	8b 45 e0             	mov    -0x20(%ebp),%eax
  2820c6:	0f b6 40 12          	movzbl 0x12(%eax),%eax
  2820ca:	0f b6 c8             	movzbl %al,%ecx
  2820cd:	a1 98 9e 28 00       	mov    0x289e98,%eax
  2820d2:	0f b6 40 17          	movzbl 0x17(%eax),%eax
  2820d6:	0f be d0             	movsbl %al,%edx
  2820d9:	a1 98 9e 28 00       	mov    0x289e98,%eax
  2820de:	0f b6 40 16          	movzbl 0x16(%eax),%eax
  2820e2:	0f be c0             	movsbl %al,%eax
  2820e5:	c7 44 24 24 80 9e 28 	movl   $0x289e80,0x24(%esp)
  2820ec:	00 
  2820ed:	89 5c 24 20          	mov    %ebx,0x20(%esp)
  2820f1:	89 4c 24 1c          	mov    %ecx,0x1c(%esp)
  2820f5:	c7 44 24 18 01 00 00 	movl   $0x1,0x18(%esp)
  2820fc:	00 
  2820fd:	89 54 24 14          	mov    %edx,0x14(%esp)
  282101:	89 44 24 10          	mov    %eax,0x10(%esp)
  282105:	8b 45 c8             	mov    -0x38(%ebp),%eax
  282108:	89 44 24 0c          	mov    %eax,0xc(%esp)
  28210c:	8b 45 cc             	mov    -0x34(%ebp),%eax
  28210f:	89 44 24 08          	mov    %eax,0x8(%esp)
  282113:	8b 45 e4             	mov    -0x1c(%ebp),%eax
  282116:	89 44 24 04          	mov    %eax,0x4(%esp)
  28211a:	8b 45 e8             	mov    -0x18(%ebp),%eax
  28211d:	89 04 24             	mov    %eax,(%esp)
  282120:	e8 48 12 00 00       	call   28336d <LCD_DrawBitmap>
  282125:	a1 98 9e 28 00       	mov    0x289e98,%eax
  28212a:	0f b6 50 15          	movzbl 0x15(%eax),%edx
  28212e:	a1 98 9e 28 00       	mov    0x289e98,%eax
  282133:	0f b6 40 14          	movzbl 0x14(%eax),%eax
  282137:	38 c2                	cmp    %al,%dl
  282139:	76 74                	jbe    2821af <GUIMONO_DispChar+0x2d6>
  28213b:	83 7d c4 02          	cmpl   $0x2,-0x3c(%ebp)
  28213f:	74 6e                	je     2821af <GUIMONO_DispChar+0x2d6>
  282141:	8b 45 c4             	mov    -0x3c(%ebp),%eax
  282144:	83 f0 04             	xor    $0x4,%eax
  282147:	89 04 24             	mov    %eax,(%esp)
  28214a:	e8 2d 10 00 00       	call   28317c <LCD_SetDrawMode>
  28214f:	a1 98 9e 28 00       	mov    0x289e98,%eax
  282154:	0f b6 40 15          	movzbl 0x15(%eax),%eax
  282158:	0f b6 d0             	movzbl %al,%edx
  28215b:	8b 45 e4             	mov    -0x1c(%ebp),%eax
  28215e:	8d 0c 02             	lea    (%edx,%eax,1),%ecx
  282161:	a1 98 9e 28 00       	mov    0x289e98,%eax
  282166:	0f b6 40 16          	movzbl 0x16(%eax),%eax
  28216a:	0f be c0             	movsbl %al,%eax
  28216d:	0f af 45 cc          	imul   -0x34(%ebp),%eax
  282171:	89 c2                	mov    %eax,%edx
  282173:	8b 45 e8             	mov    -0x18(%ebp),%eax
  282176:	01 c2                	add    %eax,%edx
  282178:	a1 98 9e 28 00       	mov    0x289e98,%eax
  28217d:	0f b6 40 14          	movzbl 0x14(%eax),%eax
  282181:	0f b6 d8             	movzbl %al,%ebx
  282184:	a1 98 9e 28 00       	mov    0x289e98,%eax
  282189:	0f b6 40 15          	movzbl 0x15(%eax),%eax
  28218d:	0f b6 c0             	movzbl %al,%eax
  282190:	0f af d8             	imul   %eax,%ebx
  282193:	8b 45 e4             	mov    -0x1c(%ebp),%eax
  282196:	01 d8                	add    %ebx,%eax
  282198:	89 4c 24 0c          	mov    %ecx,0xc(%esp)
  28219c:	89 54 24 08          	mov    %edx,0x8(%esp)
  2821a0:	89 44 24 04          	mov    %eax,0x4(%esp)
  2821a4:	8b 45 e8             	mov    -0x18(%ebp),%eax
  2821a7:	89 04 24             	mov    %eax,(%esp)
  2821aa:	e8 22 11 00 00       	call   2832d1 <LCD_FillRect>
  2821af:	0f b6 45 c3          	movzbl -0x3d(%ebp),%eax
  2821b3:	89 04 24             	mov    %eax,(%esp)
  2821b6:	e8 c1 0f 00 00       	call   28317c <LCD_SetDrawMode>
  2821bb:	0f b7 05 a2 9e 28 00 	movzwl 0x289ea2,%eax
  2821c2:	89 c2                	mov    %eax,%edx
  2821c4:	8b 45 e0             	mov    -0x20(%ebp),%eax
  2821c7:	0f b6 40 11          	movzbl 0x11(%eax),%eax
  2821cb:	0f b6 c8             	movzbl %al,%ecx
  2821ce:	a1 98 9e 28 00       	mov    0x289e98,%eax
  2821d3:	0f b6 40 16          	movzbl 0x16(%eax),%eax
  2821d7:	66 98                	cbtw   
  2821d9:	0f af c1             	imul   %ecx,%eax
  2821dc:	01 d0                	add    %edx,%eax
  2821de:	66 a3 a2 9e 28 00    	mov    %ax,0x289ea2
  2821e4:	83 c4 74             	add    $0x74,%esp
  2821e7:	5b                   	pop    %ebx
  2821e8:	5d                   	pop    %ebp
  2821e9:	c3                   	ret    

002821ea <GUIMONO_GetCharDistX>:
  2821ea:	55                   	push   %ebp
  2821eb:	89 e5                	mov    %esp,%ebp
  2821ed:	83 ec 14             	sub    $0x14,%esp
  2821f0:	8b 45 08             	mov    0x8(%ebp),%eax
  2821f3:	66 89 45 ec          	mov    %ax,-0x14(%ebp)
  2821f7:	a1 98 9e 28 00       	mov    0x289e98,%eax
  2821fc:	8b 40 18             	mov    0x18(%eax),%eax
  2821ff:	89 45 fc             	mov    %eax,-0x4(%ebp)
  282202:	8b 45 fc             	mov    -0x4(%ebp),%eax
  282205:	0f b6 40 11          	movzbl 0x11(%eax),%eax
  282209:	0f b6 d0             	movzbl %al,%edx
  28220c:	a1 98 9e 28 00       	mov    0x289e98,%eax
  282211:	0f b6 40 16          	movzbl 0x16(%eax),%eax
  282215:	0f be c0             	movsbl %al,%eax
  282218:	0f af c2             	imul   %edx,%eax
  28221b:	c9                   	leave  
  28221c:	c3                   	ret    

0028221d <GUIMONO_GetFontInfo>:
  28221d:	55                   	push   %ebp
  28221e:	89 e5                	mov    %esp,%ebp
  282220:	8b 45 0c             	mov    0xc(%ebp),%eax
  282223:	66 c7 00 02 00       	movw   $0x2,(%eax)
  282228:	5d                   	pop    %ebp
  282229:	c3                   	ret    

0028222a <GUIMONO_IsInFont>:
  28222a:	55                   	push   %ebp
  28222b:	89 e5                	mov    %esp,%ebp
  28222d:	83 ec 14             	sub    $0x14,%esp
  282230:	8b 45 0c             	mov    0xc(%ebp),%eax
  282233:	66 89 45 ec          	mov    %ax,-0x14(%ebp)
  282237:	8b 45 08             	mov    0x8(%ebp),%eax
  28223a:	8b 40 18             	mov    0x18(%eax),%eax
  28223d:	89 45 fc             	mov    %eax,-0x4(%ebp)
  282240:	8b 45 fc             	mov    -0x4(%ebp),%eax
  282243:	0f b7 40 0c          	movzwl 0xc(%eax),%eax
  282247:	0f b7 c0             	movzwl %ax,%eax
  28224a:	89 45 f8             	mov    %eax,-0x8(%ebp)
  28224d:	8b 45 f8             	mov    -0x8(%ebp),%eax
  282250:	66 3b 45 ec          	cmp    -0x14(%ebp),%ax
  282254:	77 14                	ja     28226a <GUIMONO_IsInFont+0x40>
  282256:	8b 45 fc             	mov    -0x4(%ebp),%eax
  282259:	0f b7 40 0e          	movzwl 0xe(%eax),%eax
  28225d:	66 3b 45 ec          	cmp    -0x14(%ebp),%ax
  282261:	72 07                	jb     28226a <GUIMONO_IsInFont+0x40>
  282263:	b8 01 00 00 00       	mov    $0x1,%eax
  282268:	eb 34                	jmp    28229e <GUIMONO_IsInFont+0x74>
  28226a:	8b 45 fc             	mov    -0x4(%ebp),%eax
  28226d:	8b 40 08             	mov    0x8(%eax),%eax
  282270:	89 45 f4             	mov    %eax,-0xc(%ebp)
  282273:	83 7d f4 00          	cmpl   $0x0,-0xc(%ebp)
  282277:	74 20                	je     282299 <GUIMONO_IsInFont+0x6f>
  282279:	8b 45 f4             	mov    -0xc(%ebp),%eax
  28227c:	0f b7 00             	movzwl (%eax),%eax
  28227f:	66 3b 45 ec          	cmp    -0x14(%ebp),%ax
  282283:	77 14                	ja     282299 <GUIMONO_IsInFont+0x6f>
  282285:	8b 45 f4             	mov    -0xc(%ebp),%eax
  282288:	0f b7 40 02          	movzwl 0x2(%eax),%eax
  28228c:	66 3b 45 ec          	cmp    -0x14(%ebp),%ax
  282290:	72 07                	jb     282299 <GUIMONO_IsInFont+0x6f>
  282292:	b8 01 00 00 00       	mov    $0x1,%eax
  282297:	eb 05                	jmp    28229e <GUIMONO_IsInFont+0x74>
  282299:	b8 00 00 00 00       	mov    $0x0,%eax
  28229e:	c9                   	leave  
  28229f:	c3                   	ret    

002822a0 <Draw8Point>:
  2822a0:	55                   	push   %ebp
  2822a1:	89 e5                	mov    %esp,%ebp
  2822a3:	83 ec 18             	sub    $0x18,%esp
  2822a6:	8b 45 14             	mov    0x14(%ebp),%eax
  2822a9:	8b 55 0c             	mov    0xc(%ebp),%edx
  2822ac:	01 c2                	add    %eax,%edx
  2822ae:	8b 45 10             	mov    0x10(%ebp),%eax
  2822b1:	8b 4d 08             	mov    0x8(%ebp),%ecx
  2822b4:	01 c8                	add    %ecx,%eax
  2822b6:	89 54 24 04          	mov    %edx,0x4(%esp)
  2822ba:	89 04 24             	mov    %eax,(%esp)
  2822bd:	e8 0d 0f 00 00       	call   2831cf <LCD_DrawPixel>
  2822c2:	8b 45 14             	mov    0x14(%ebp),%eax
  2822c5:	8b 55 0c             	mov    0xc(%ebp),%edx
  2822c8:	01 c2                	add    %eax,%edx
  2822ca:	8b 45 10             	mov    0x10(%ebp),%eax
  2822cd:	8b 4d 08             	mov    0x8(%ebp),%ecx
  2822d0:	29 c1                	sub    %eax,%ecx
  2822d2:	89 c8                	mov    %ecx,%eax
  2822d4:	89 54 24 04          	mov    %edx,0x4(%esp)
  2822d8:	89 04 24             	mov    %eax,(%esp)
  2822db:	e8 ef 0e 00 00       	call   2831cf <LCD_DrawPixel>
  2822e0:	8b 45 10             	mov    0x10(%ebp),%eax
  2822e3:	8b 55 0c             	mov    0xc(%ebp),%edx
  2822e6:	01 c2                	add    %eax,%edx
  2822e8:	8b 45 14             	mov    0x14(%ebp),%eax
  2822eb:	8b 4d 08             	mov    0x8(%ebp),%ecx
  2822ee:	01 c8                	add    %ecx,%eax
  2822f0:	89 54 24 04          	mov    %edx,0x4(%esp)
  2822f4:	89 04 24             	mov    %eax,(%esp)
  2822f7:	e8 d3 0e 00 00       	call   2831cf <LCD_DrawPixel>
  2822fc:	8b 45 10             	mov    0x10(%ebp),%eax
  2822ff:	8b 55 0c             	mov    0xc(%ebp),%edx
  282302:	29 c2                	sub    %eax,%edx
  282304:	8b 45 14             	mov    0x14(%ebp),%eax
  282307:	8b 4d 08             	mov    0x8(%ebp),%ecx
  28230a:	01 c8                	add    %ecx,%eax
  28230c:	89 54 24 04          	mov    %edx,0x4(%esp)
  282310:	89 04 24             	mov    %eax,(%esp)
  282313:	e8 b7 0e 00 00       	call   2831cf <LCD_DrawPixel>
  282318:	83 7d 14 00          	cmpl   $0x0,0x14(%ebp)
  28231c:	74 76                	je     282394 <Draw8Point+0xf4>
  28231e:	8b 45 14             	mov    0x14(%ebp),%eax
  282321:	8b 55 0c             	mov    0xc(%ebp),%edx
  282324:	29 c2                	sub    %eax,%edx
  282326:	8b 45 10             	mov    0x10(%ebp),%eax
  282329:	8b 4d 08             	mov    0x8(%ebp),%ecx
  28232c:	01 c8                	add    %ecx,%eax
  28232e:	89 54 24 04          	mov    %edx,0x4(%esp)
  282332:	89 04 24             	mov    %eax,(%esp)
  282335:	e8 95 0e 00 00       	call   2831cf <LCD_DrawPixel>
  28233a:	8b 45 14             	mov    0x14(%ebp),%eax
  28233d:	8b 55 0c             	mov    0xc(%ebp),%edx
  282340:	29 c2                	sub    %eax,%edx
  282342:	8b 45 10             	mov    0x10(%ebp),%eax
  282345:	8b 4d 08             	mov    0x8(%ebp),%ecx
  282348:	29 c1                	sub    %eax,%ecx
  28234a:	89 c8                	mov    %ecx,%eax
  28234c:	89 54 24 04          	mov    %edx,0x4(%esp)
  282350:	89 04 24             	mov    %eax,(%esp)
  282353:	e8 77 0e 00 00       	call   2831cf <LCD_DrawPixel>
  282358:	8b 45 10             	mov    0x10(%ebp),%eax
  28235b:	8b 55 0c             	mov    0xc(%ebp),%edx
  28235e:	01 c2                	add    %eax,%edx
  282360:	8b 45 14             	mov    0x14(%ebp),%eax
  282363:	8b 4d 08             	mov    0x8(%ebp),%ecx
  282366:	29 c1                	sub    %eax,%ecx
  282368:	89 c8                	mov    %ecx,%eax
  28236a:	89 54 24 04          	mov    %edx,0x4(%esp)
  28236e:	89 04 24             	mov    %eax,(%esp)
  282371:	e8 59 0e 00 00       	call   2831cf <LCD_DrawPixel>
  282376:	8b 45 10             	mov    0x10(%ebp),%eax
  282379:	8b 55 0c             	mov    0xc(%ebp),%edx
  28237c:	29 c2                	sub    %eax,%edx
  28237e:	8b 45 14             	mov    0x14(%ebp),%eax
  282381:	8b 4d 08             	mov    0x8(%ebp),%ecx
  282384:	29 c1                	sub    %eax,%ecx
  282386:	89 c8                	mov    %ecx,%eax
  282388:	89 54 24 04          	mov    %edx,0x4(%esp)
  28238c:	89 04 24             	mov    %eax,(%esp)
  28238f:	e8 3b 0e 00 00       	call   2831cf <LCD_DrawPixel>
  282394:	c9                   	leave  
  282395:	c3                   	ret    

00282396 <GL_DrawCircle>:
  282396:	55                   	push   %ebp
  282397:	89 e5                	mov    %esp,%ebp
  282399:	83 ec 28             	sub    $0x28,%esp
  28239c:	8b 45 10             	mov    0x10(%ebp),%eax
  28239f:	69 c8 c3 02 00 00    	imul   $0x2c3,%eax,%ecx
  2823a5:	ba d3 4d 62 10       	mov    $0x10624dd3,%edx
  2823aa:	89 c8                	mov    %ecx,%eax
  2823ac:	f7 ea                	imul   %edx
  2823ae:	c1 fa 06             	sar    $0x6,%edx
  2823b1:	89 c8                	mov    %ecx,%eax
  2823b3:	c1 f8 1f             	sar    $0x1f,%eax
  2823b6:	29 c2                	sub    %eax,%edx
  2823b8:	89 d0                	mov    %edx,%eax
  2823ba:	83 c0 01             	add    $0x1,%eax
  2823bd:	89 45 ec             	mov    %eax,-0x14(%ebp)
  2823c0:	8b 45 10             	mov    0x10(%ebp),%eax
  2823c3:	0f af 45 10          	imul   0x10(%ebp),%eax
  2823c7:	89 c2                	mov    %eax,%edx
  2823c9:	8b 45 10             	mov    0x10(%ebp),%eax
  2823cc:	89 c1                	mov    %eax,%ecx
  2823ce:	c1 e9 1f             	shr    $0x1f,%ecx
  2823d1:	01 c8                	add    %ecx,%eax
  2823d3:	d1 f8                	sar    %eax
  2823d5:	01 d0                	add    %edx,%eax
  2823d7:	89 45 e8             	mov    %eax,-0x18(%ebp)
  2823da:	8b 45 10             	mov    0x10(%ebp),%eax
  2823dd:	89 45 f0             	mov    %eax,-0x10(%ebp)
  2823e0:	c7 44 24 0c 00 00 00 	movl   $0x0,0xc(%esp)
  2823e7:	00 
  2823e8:	8b 45 10             	mov    0x10(%ebp),%eax
  2823eb:	89 44 24 08          	mov    %eax,0x8(%esp)
  2823ef:	8b 45 0c             	mov    0xc(%ebp),%eax
  2823f2:	89 44 24 04          	mov    %eax,0x4(%esp)
  2823f6:	8b 45 08             	mov    0x8(%ebp),%eax
  2823f9:	89 04 24             	mov    %eax,(%esp)
  2823fc:	e8 9f fe ff ff       	call   2822a0 <Draw8Point>
  282401:	c7 45 f4 01 00 00 00 	movl   $0x1,-0xc(%ebp)
  282408:	eb 5f                	jmp    282469 <GL_DrawCircle+0xd3>
  28240a:	8b 45 f4             	mov    -0xc(%ebp),%eax
  28240d:	0f af 45 f4          	imul   -0xc(%ebp),%eax
  282411:	89 c2                	mov    %eax,%edx
  282413:	8b 45 f0             	mov    -0x10(%ebp),%eax
  282416:	0f af 45 f0          	imul   -0x10(%ebp),%eax
  28241a:	01 d0                	add    %edx,%eax
  28241c:	3b 45 e8             	cmp    -0x18(%ebp),%eax
  28241f:	7e 24                	jle    282445 <GL_DrawCircle+0xaf>
  282421:	8b 45 f0             	mov    -0x10(%ebp),%eax
  282424:	89 44 24 0c          	mov    %eax,0xc(%esp)
  282428:	8b 45 f4             	mov    -0xc(%ebp),%eax
  28242b:	89 44 24 08          	mov    %eax,0x8(%esp)
  28242f:	8b 45 0c             	mov    0xc(%ebp),%eax
  282432:	89 44 24 04          	mov    %eax,0x4(%esp)
  282436:	8b 45 08             	mov    0x8(%ebp),%eax
  282439:	89 04 24             	mov    %eax,(%esp)
  28243c:	e8 5f fe ff ff       	call   2822a0 <Draw8Point>
  282441:	83 6d f0 01          	subl   $0x1,-0x10(%ebp)
  282445:	8b 45 f0             	mov    -0x10(%ebp),%eax
  282448:	89 44 24 0c          	mov    %eax,0xc(%esp)
  28244c:	8b 45 f4             	mov    -0xc(%ebp),%eax
  28244f:	89 44 24 08          	mov    %eax,0x8(%esp)
  282453:	8b 45 0c             	mov    0xc(%ebp),%eax
  282456:	89 44 24 04          	mov    %eax,0x4(%esp)
  28245a:	8b 45 08             	mov    0x8(%ebp),%eax
  28245d:	89 04 24             	mov    %eax,(%esp)
  282460:	e8 3b fe ff ff       	call   2822a0 <Draw8Point>
  282465:	83 45 f4 01          	addl   $0x1,-0xc(%ebp)
  282469:	8b 45 f4             	mov    -0xc(%ebp),%eax
  28246c:	3b 45 ec             	cmp    -0x14(%ebp),%eax
  28246f:	7e 99                	jle    28240a <GL_DrawCircle+0x74>
  282471:	c9                   	leave  
  282472:	c3                   	ret    

00282473 <GUI_DrawCircle>:
  282473:	55                   	push   %ebp
  282474:	89 e5                	mov    %esp,%ebp
  282476:	83 ec 18             	sub    $0x18,%esp
  282479:	8b 45 10             	mov    0x10(%ebp),%eax
  28247c:	89 44 24 08          	mov    %eax,0x8(%esp)
  282480:	8b 45 0c             	mov    0xc(%ebp),%eax
  282483:	89 44 24 04          	mov    %eax,0x4(%esp)
  282487:	8b 45 08             	mov    0x8(%ebp),%eax
  28248a:	89 04 24             	mov    %eax,(%esp)
  28248d:	e8 04 ff ff ff       	call   282396 <GL_DrawCircle>
  282492:	c9                   	leave  
  282493:	c3                   	ret    

00282494 <GL_FillCircle>:
  282494:	55                   	push   %ebp
  282495:	89 e5                	mov    %esp,%ebp
  282497:	53                   	push   %ebx
  282498:	83 ec 24             	sub    $0x24,%esp
  28249b:	8b 45 10             	mov    0x10(%ebp),%eax
  28249e:	69 c8 c3 02 00 00    	imul   $0x2c3,%eax,%ecx
  2824a4:	ba d3 4d 62 10       	mov    $0x10624dd3,%edx
  2824a9:	89 c8                	mov    %ecx,%eax
  2824ab:	f7 ea                	imul   %edx
  2824ad:	c1 fa 06             	sar    $0x6,%edx
  2824b0:	89 c8                	mov    %ecx,%eax
  2824b2:	c1 f8 1f             	sar    $0x1f,%eax
  2824b5:	29 c2                	sub    %eax,%edx
  2824b7:	89 d0                	mov    %edx,%eax
  2824b9:	83 c0 01             	add    $0x1,%eax
  2824bc:	89 45 ec             	mov    %eax,-0x14(%ebp)
  2824bf:	8b 45 10             	mov    0x10(%ebp),%eax
  2824c2:	0f af 45 10          	imul   0x10(%ebp),%eax
  2824c6:	89 c2                	mov    %eax,%edx
  2824c8:	8b 45 10             	mov    0x10(%ebp),%eax
  2824cb:	89 c1                	mov    %eax,%ecx
  2824cd:	c1 e9 1f             	shr    $0x1f,%ecx
  2824d0:	01 c8                	add    %ecx,%eax
  2824d2:	d1 f8                	sar    %eax
  2824d4:	01 d0                	add    %edx,%eax
  2824d6:	89 45 e8             	mov    %eax,-0x18(%ebp)
  2824d9:	8b 45 10             	mov    0x10(%ebp),%eax
  2824dc:	89 45 f0             	mov    %eax,-0x10(%ebp)
  2824df:	8b 45 10             	mov    0x10(%ebp),%eax
  2824e2:	8b 55 08             	mov    0x8(%ebp),%edx
  2824e5:	01 d0                	add    %edx,%eax
  2824e7:	8b 55 10             	mov    0x10(%ebp),%edx
  2824ea:	8b 4d 08             	mov    0x8(%ebp),%ecx
  2824ed:	29 d1                	sub    %edx,%ecx
  2824ef:	89 ca                	mov    %ecx,%edx
  2824f1:	89 44 24 08          	mov    %eax,0x8(%esp)
  2824f5:	8b 45 0c             	mov    0xc(%ebp),%eax
  2824f8:	89 44 24 04          	mov    %eax,0x4(%esp)
  2824fc:	89 14 24             	mov    %edx,(%esp)
  2824ff:	e8 54 0d 00 00       	call   283258 <LCD_DrawHLine>
  282504:	c7 45 f4 01 00 00 00 	movl   $0x1,-0xc(%ebp)
  28250b:	e9 dd 00 00 00       	jmp    2825ed <GL_FillCircle+0x159>
  282510:	8b 45 f4             	mov    -0xc(%ebp),%eax
  282513:	0f af 45 f4          	imul   -0xc(%ebp),%eax
  282517:	89 c2                	mov    %eax,%edx
  282519:	8b 45 f0             	mov    -0x10(%ebp),%eax
  28251c:	0f af 45 f0          	imul   -0x10(%ebp),%eax
  282520:	01 d0                	add    %edx,%eax
  282522:	3b 45 e8             	cmp    -0x18(%ebp),%eax
  282525:	7e 6c                	jle    282593 <GL_FillCircle+0xff>
  282527:	8b 45 f0             	mov    -0x10(%ebp),%eax
  28252a:	3b 45 ec             	cmp    -0x14(%ebp),%eax
  28252d:	7e 60                	jle    28258f <GL_FillCircle+0xfb>
  28252f:	8b 45 f4             	mov    -0xc(%ebp),%eax
  282532:	8b 55 08             	mov    0x8(%ebp),%edx
  282535:	01 d0                	add    %edx,%eax
  282537:	8d 48 ff             	lea    -0x1(%eax),%ecx
  28253a:	8b 45 f0             	mov    -0x10(%ebp),%eax
  28253d:	8b 55 0c             	mov    0xc(%ebp),%edx
  282540:	01 c2                	add    %eax,%edx
  282542:	8b 45 f4             	mov    -0xc(%ebp),%eax
  282545:	8b 5d 08             	mov    0x8(%ebp),%ebx
  282548:	29 c3                	sub    %eax,%ebx
  28254a:	89 d8                	mov    %ebx,%eax
  28254c:	83 c0 01             	add    $0x1,%eax
  28254f:	89 4c 24 08          	mov    %ecx,0x8(%esp)
  282553:	89 54 24 04          	mov    %edx,0x4(%esp)
  282557:	89 04 24             	mov    %eax,(%esp)
  28255a:	e8 f9 0c 00 00       	call   283258 <LCD_DrawHLine>
  28255f:	8b 45 f4             	mov    -0xc(%ebp),%eax
  282562:	8b 55 08             	mov    0x8(%ebp),%edx
  282565:	01 d0                	add    %edx,%eax
  282567:	8d 48 ff             	lea    -0x1(%eax),%ecx
  28256a:	8b 45 f0             	mov    -0x10(%ebp),%eax
  28256d:	8b 55 0c             	mov    0xc(%ebp),%edx
  282570:	29 c2                	sub    %eax,%edx
  282572:	8b 45 f4             	mov    -0xc(%ebp),%eax
  282575:	8b 5d 08             	mov    0x8(%ebp),%ebx
  282578:	29 c3                	sub    %eax,%ebx
  28257a:	89 d8                	mov    %ebx,%eax
  28257c:	83 c0 01             	add    $0x1,%eax
  28257f:	89 4c 24 08          	mov    %ecx,0x8(%esp)
  282583:	89 54 24 04          	mov    %edx,0x4(%esp)
  282587:	89 04 24             	mov    %eax,(%esp)
  28258a:	e8 c9 0c 00 00       	call   283258 <LCD_DrawHLine>
  28258f:	83 6d f0 01          	subl   $0x1,-0x10(%ebp)
  282593:	8b 45 f0             	mov    -0x10(%ebp),%eax
  282596:	8b 55 08             	mov    0x8(%ebp),%edx
  282599:	8d 0c 02             	lea    (%edx,%eax,1),%ecx
  28259c:	8b 45 f4             	mov    -0xc(%ebp),%eax
  28259f:	8b 55 0c             	mov    0xc(%ebp),%edx
  2825a2:	01 c2                	add    %eax,%edx
  2825a4:	8b 45 f0             	mov    -0x10(%ebp),%eax
  2825a7:	8b 5d 08             	mov    0x8(%ebp),%ebx
  2825aa:	29 c3                	sub    %eax,%ebx
  2825ac:	89 d8                	mov    %ebx,%eax
  2825ae:	89 4c 24 08          	mov    %ecx,0x8(%esp)
  2825b2:	89 54 24 04          	mov    %edx,0x4(%esp)
  2825b6:	89 04 24             	mov    %eax,(%esp)
  2825b9:	e8 9a 0c 00 00       	call   283258 <LCD_DrawHLine>
  2825be:	8b 45 f0             	mov    -0x10(%ebp),%eax
  2825c1:	8b 55 08             	mov    0x8(%ebp),%edx
  2825c4:	8d 0c 02             	lea    (%edx,%eax,1),%ecx
  2825c7:	8b 45 f4             	mov    -0xc(%ebp),%eax
  2825ca:	8b 55 0c             	mov    0xc(%ebp),%edx
  2825cd:	29 c2                	sub    %eax,%edx
  2825cf:	8b 45 f0             	mov    -0x10(%ebp),%eax
  2825d2:	8b 5d 08             	mov    0x8(%ebp),%ebx
  2825d5:	29 c3                	sub    %eax,%ebx
  2825d7:	89 d8                	mov    %ebx,%eax
  2825d9:	89 4c 24 08          	mov    %ecx,0x8(%esp)
  2825dd:	89 54 24 04          	mov    %edx,0x4(%esp)
  2825e1:	89 04 24             	mov    %eax,(%esp)
  2825e4:	e8 6f 0c 00 00       	call   283258 <LCD_DrawHLine>
  2825e9:	83 45 f4 01          	addl   $0x1,-0xc(%ebp)
  2825ed:	8b 45 f4             	mov    -0xc(%ebp),%eax
  2825f0:	3b 45 ec             	cmp    -0x14(%ebp),%eax
  2825f3:	0f 8e 17 ff ff ff    	jle    282510 <GL_FillCircle+0x7c>
  2825f9:	83 c4 24             	add    $0x24,%esp
  2825fc:	5b                   	pop    %ebx
  2825fd:	5d                   	pop    %ebp
  2825fe:	c3                   	ret    

002825ff <GUI_FillCircle>:
  2825ff:	55                   	push   %ebp
  282600:	89 e5                	mov    %esp,%ebp
  282602:	83 ec 18             	sub    $0x18,%esp
  282605:	8b 45 10             	mov    0x10(%ebp),%eax
  282608:	89 44 24 08          	mov    %eax,0x8(%esp)
  28260c:	8b 45 0c             	mov    0xc(%ebp),%eax
  28260f:	89 44 24 04          	mov    %eax,0x4(%esp)
  282613:	8b 45 08             	mov    0x8(%ebp),%eax
  282616:	89 04 24             	mov    %eax,(%esp)
  282619:	e8 76 fe ff ff       	call   282494 <GL_FillCircle>
  28261e:	c9                   	leave  
  28261f:	c3                   	ret    

00282620 <GL_FillEllipse>:
  282620:	55                   	push   %ebp
  282621:	89 e5                	mov    %esp,%ebp
  282623:	53                   	push   %ebx
  282624:	83 ec 34             	sub    $0x34,%esp
  282627:	8b 45 10             	mov    0x10(%ebp),%eax
  28262a:	89 45 ec             	mov    %eax,-0x14(%ebp)
  28262d:	8b 45 14             	mov    0x14(%ebp),%eax
  282630:	89 45 e8             	mov    %eax,-0x18(%ebp)
  282633:	8b 45 ec             	mov    -0x14(%ebp),%eax
  282636:	0f af 45 ec          	imul   -0x14(%ebp),%eax
  28263a:	0f af 45 e8          	imul   -0x18(%ebp),%eax
  28263e:	0f af 45 e8          	imul   -0x18(%ebp),%eax
  282642:	89 c2                	mov    %eax,%edx
  282644:	8b 45 ec             	mov    -0x14(%ebp),%eax
  282647:	0f af 45 ec          	imul   -0x14(%ebp),%eax
  28264b:	0f af 45 e8          	imul   -0x18(%ebp),%eax
  28264f:	d1 e8                	shr    %eax
  282651:	01 d0                	add    %edx,%eax
  282653:	89 45 e4             	mov    %eax,-0x1c(%ebp)
  282656:	8b 45 10             	mov    0x10(%ebp),%eax
  282659:	89 45 f4             	mov    %eax,-0xc(%ebp)
  28265c:	c7 45 f0 00 00 00 00 	movl   $0x0,-0x10(%ebp)
  282663:	e9 b5 00 00 00       	jmp    28271d <GL_FillEllipse+0xfd>
  282668:	8b 45 10             	mov    0x10(%ebp),%eax
  28266b:	0f af 45 10          	imul   0x10(%ebp),%eax
  28266f:	89 c2                	mov    %eax,%edx
  282671:	8b 45 f0             	mov    -0x10(%ebp),%eax
  282674:	0f af 45 f0          	imul   -0x10(%ebp),%eax
  282678:	0f af c2             	imul   %edx,%eax
  28267b:	89 45 e0             	mov    %eax,-0x20(%ebp)
  28267e:	eb 04                	jmp    282684 <GL_FillEllipse+0x64>
  282680:	83 6d f4 01          	subl   $0x1,-0xc(%ebp)
  282684:	8b 45 14             	mov    0x14(%ebp),%eax
  282687:	0f af 45 14          	imul   0x14(%ebp),%eax
  28268b:	89 c2                	mov    %eax,%edx
  28268d:	8b 45 f4             	mov    -0xc(%ebp),%eax
  282690:	0f af 45 f4          	imul   -0xc(%ebp),%eax
  282694:	0f af d0             	imul   %eax,%edx
  282697:	8b 45 e0             	mov    -0x20(%ebp),%eax
  28269a:	01 d0                	add    %edx,%eax
  28269c:	89 45 dc             	mov    %eax,-0x24(%ebp)
  28269f:	83 7d f4 00          	cmpl   $0x0,-0xc(%ebp)
  2826a3:	7e 0f                	jle    2826b4 <GL_FillEllipse+0x94>
  2826a5:	8b 45 dc             	mov    -0x24(%ebp),%eax
  2826a8:	3b 45 e4             	cmp    -0x1c(%ebp),%eax
  2826ab:	7e 07                	jle    2826b4 <GL_FillEllipse+0x94>
  2826ad:	b8 01 00 00 00       	mov    $0x1,%eax
  2826b2:	eb 05                	jmp    2826b9 <GL_FillEllipse+0x99>
  2826b4:	b8 00 00 00 00       	mov    $0x0,%eax
  2826b9:	85 c0                	test   %eax,%eax
  2826bb:	75 c3                	jne    282680 <GL_FillEllipse+0x60>
  2826bd:	8b 45 f4             	mov    -0xc(%ebp),%eax
  2826c0:	8b 55 08             	mov    0x8(%ebp),%edx
  2826c3:	8d 0c 02             	lea    (%edx,%eax,1),%ecx
  2826c6:	8b 45 f0             	mov    -0x10(%ebp),%eax
  2826c9:	8b 55 0c             	mov    0xc(%ebp),%edx
  2826cc:	01 c2                	add    %eax,%edx
  2826ce:	8b 45 f4             	mov    -0xc(%ebp),%eax
  2826d1:	8b 5d 08             	mov    0x8(%ebp),%ebx
  2826d4:	29 c3                	sub    %eax,%ebx
  2826d6:	89 d8                	mov    %ebx,%eax
  2826d8:	89 4c 24 08          	mov    %ecx,0x8(%esp)
  2826dc:	89 54 24 04          	mov    %edx,0x4(%esp)
  2826e0:	89 04 24             	mov    %eax,(%esp)
  2826e3:	e8 70 0b 00 00       	call   283258 <LCD_DrawHLine>
  2826e8:	83 7d f0 00          	cmpl   $0x0,-0x10(%ebp)
  2826ec:	74 2b                	je     282719 <GL_FillEllipse+0xf9>
  2826ee:	8b 45 f4             	mov    -0xc(%ebp),%eax
  2826f1:	8b 55 08             	mov    0x8(%ebp),%edx
  2826f4:	8d 0c 02             	lea    (%edx,%eax,1),%ecx
  2826f7:	8b 45 f0             	mov    -0x10(%ebp),%eax
  2826fa:	8b 55 0c             	mov    0xc(%ebp),%edx
  2826fd:	29 c2                	sub    %eax,%edx
  2826ff:	8b 45 f4             	mov    -0xc(%ebp),%eax
  282702:	8b 5d 08             	mov    0x8(%ebp),%ebx
  282705:	29 c3                	sub    %eax,%ebx
  282707:	89 d8                	mov    %ebx,%eax
  282709:	89 4c 24 08          	mov    %ecx,0x8(%esp)
  28270d:	89 54 24 04          	mov    %edx,0x4(%esp)
  282711:	89 04 24             	mov    %eax,(%esp)
  282714:	e8 3f 0b 00 00       	call   283258 <LCD_DrawHLine>
  282719:	83 45 f0 01          	addl   $0x1,-0x10(%ebp)
  28271d:	8b 45 f0             	mov    -0x10(%ebp),%eax
  282720:	3b 45 14             	cmp    0x14(%ebp),%eax
