
cobj.out:     file format elf32-i386


Disassembly of section .text:

00280000 <bootmain>:
#define black 0
#define red   1
#define green 2

void bootmain(void)
{
  280000:	55                   	push   %ebp
  280001:	89 e5                	mov    %esp,%ebp
  280003:	53                   	push   %ebx
  280004:	81 ec 10 01 00 00    	sub    $0x110,%esp
static char font[40];	//sprintf buffer
int i=124567;		//sprintf variable i for test
char mousepic[256];     //mouse logo buffer
struct boot_info *bootp=(struct boot_info *)ADDR_BOOT;
  clear_screen(40);   	//read
  28000a:	6a 28                	push   $0x28
  28000c:	e8 85 00 00 00       	call   280096 <clear_screen>

static __inline void
sti(void)
{

	__asm __volatile("sti");
  280011:	fb                   	sti    
 	
  sti();		//enable cpu interrupt
  init_screen((struct boot_info * )bootp);
  280012:	c7 04 24 f0 0f 00 00 	movl   $0xff0,(%esp)




//display mouse logo
init_mouse(mousepic,7);//7　means background color:white
  280019:	8d 9d f8 fe ff ff    	lea    -0x108(%ebp),%ebx
char mousepic[256];     //mouse logo buffer
struct boot_info *bootp=(struct boot_info *)ADDR_BOOT;
  clear_screen(40);   	//read
 	
  sti();		//enable cpu interrupt
  init_screen((struct boot_info * )bootp);
  28001f:	e8 c4 02 00 00       	call   2802e8 <init_screen>
  init_palette();  //color table from 0 to 15
  280024:	e8 d6 00 00 00       	call   2800ff <init_palette>

  draw_window();  
  280029:	e8 59 01 00 00       	call   280187 <draw_window>




//display mouse logo
init_mouse(mousepic,7);//7　means background color:white
  28002e:	58                   	pop    %eax
  28002f:	5a                   	pop    %edx
  280030:	6a 07                	push   $0x7
  280032:	53                   	push   %ebx
  280033:	e8 cf 02 00 00       	call   280307 <init_mouse>
display_mouse(bootp->vram,bootp->xsize,16,16,60,60,mousepic,16);
  280038:	6a 10                	push   $0x10
  28003a:	53                   	push   %ebx
  28003b:	6a 3c                	push   $0x3c
  28003d:	6a 3c                	push   $0x3c
  28003f:	6a 10                	push   $0x10
  280041:	6a 10                	push   $0x10
  280043:	0f bf 05 f4 0f 00 00 	movswl 0xff4,%eax
  28004a:	50                   	push   %eax
  28004b:	ff 35 f8 0f 00 00    	pushl  0xff8
  280051:	e8 01 03 00 00       	call   280357 <display_mouse>
init_gdtidt();
  280056:	83 c4 30             	add    $0x30,%esp
  280059:	e8 ac 06 00 00       	call   28070a <init_gdtidt>
init_pic();//函数中：　irq 1(keyboard)对应设置中断号int0x21,    irq　12(mouse)对应的中断号是int0x2c 要写中断服务程序了。
  28005e:	e8 dc 07 00 00       	call   28083f <init_pic>
// out:write a data to a port
static __inline void
outb(int port, uint8_t data)
{
  //data是变量0%0 , port是变量word１%w1
	__asm __volatile("outb %0,%w1" : : "a" (data), "d" (port));
  280063:	ba 21 00 00 00       	mov    $0x21,%edx
  280068:	b0 f9                	mov    $0xf9,%al
  28006a:	ee                   	out    %al,(%dx)
  28006b:	b0 ef                	mov    $0xef,%al
  28006d:	b2 a1                	mov    $0xa1,%dl
  28006f:	ee                   	out    %al,(%dx)
//int addr=inthandler21;
//printdebug(addr,0);

//打印出int0x21处的idt值，主要看offset是否与　asm_inthandler21一样（看反汇编，可以看到地址）
int * addr=(int *)(0x0026f800+8*0x21);
printdebug(*(addr),0);
  280070:	51                   	push   %ecx
  280071:	51                   	push   %ecx
  280072:	6a 00                	push   $0x0
  280074:	ff 35 08 f9 26 00    	pushl  0x26f908
  28007a:	e8 34 05 00 00       	call   2805b3 <printdebug>
printdebug(*(addr+1),160);
  28007f:	5b                   	pop    %ebx
  280080:	58                   	pop    %eax
  280081:	68 a0 00 00 00       	push   $0xa0
  280086:	ff 35 0c f9 26 00    	pushl  0x26f90c
  28008c:	e8 22 05 00 00       	call   2805b3 <printdebug>
  280091:	83 c4 10             	add    $0x10,%esp
  280094:	eb fe                	jmp    280094 <bootmain+0x94>

00280096 <clear_screen>:
#include<header.h>

void clear_screen(char color) //15:pure white
{
  280096:	55                   	push   %ebp
  int i;
  for(i=0xa0000;i<0xaffff;i++)
  280097:	b8 00 00 0a 00       	mov    $0xa0000,%eax
#include<header.h>

void clear_screen(char color) //15:pure white
{
  28009c:	89 e5                	mov    %esp,%ebp
  28009e:	8a 55 08             	mov    0x8(%ebp),%dl
  int i;
  for(i=0xa0000;i<0xaffff;i++)
  {
  write_mem8(i,color);  //if we write 15 ,all pixels color will be white,15 mens pure white ,so the screen changes into white
  2800a1:	88 10                	mov    %dl,(%eax)
#include<header.h>

void clear_screen(char color) //15:pure white
{
  int i;
  for(i=0xa0000;i<0xaffff;i++)
  2800a3:	40                   	inc    %eax
  2800a4:	3d ff ff 0a 00       	cmp    $0xaffff,%eax
  2800a9:	75 f6                	jne    2800a1 <clear_screen+0xb>
  {
  write_mem8(i,color);  //if we write 15 ,all pixels color will be white,15 mens pure white ,so the screen changes into white

  }
}
  2800ab:	5d                   	pop    %ebp
  2800ac:	c3                   	ret    

002800ad <color_screen>:

void color_screen(char color) //15:pure white
{
  2800ad:	55                   	push   %ebp
  int i;
  color=color;
  for(i=0xa0000;i<0xaffff;i++)
  2800ae:	b8 00 00 0a 00       	mov    $0xa0000,%eax

  }
}

void color_screen(char color) //15:pure white
{
  2800b3:	89 e5                	mov    %esp,%ebp
  int i;
  color=color;
  for(i=0xa0000;i<0xaffff;i++)
  {
  write_mem8(i,i);  //if we write 15 ,all pixels color will be white,15 mens pure white ,so the screen changes into white
  2800b5:	88 00                	mov    %al,(%eax)

void color_screen(char color) //15:pure white
{
  int i;
  color=color;
  for(i=0xa0000;i<0xaffff;i++)
  2800b7:	40                   	inc    %eax
  2800b8:	3d ff ff 0a 00       	cmp    $0xaffff,%eax
  2800bd:	75 f6                	jne    2800b5 <color_screen+0x8>
  {
  write_mem8(i,i);  //if we write 15 ,all pixels color will be white,15 mens pure white ,so the screen changes into white

  }
}
  2800bf:	5d                   	pop    %ebp
  2800c0:	c3                   	ret    

002800c1 <set_palette>:
   set_palette(0,255,table_rgb);
}

//设置调色板，  只用到了16个color,后面的都没有用到。
void set_palette(int start,int end, unsigned char *rgb)
{
  2800c1:	55                   	push   %ebp
  2800c2:	89 e5                	mov    %esp,%ebp
  2800c4:	56                   	push   %esi
  2800c5:	8b 4d 10             	mov    0x10(%ebp),%ecx
  2800c8:	53                   	push   %ebx
  2800c9:	8b 5d 08             	mov    0x8(%ebp),%ebx
//read eflags and write_eflags
static __inline uint32_t
read_eflags(void)
{
        uint32_t eflags;
        __asm __volatile("pushfl; popl %0" : "=r" (eflags));
  2800cc:	9c                   	pushf  
  2800cd:	5e                   	pop    %esi
  int i,eflag;
  eflag=read_eflags();   //记录从前的cpsr值
 
  io_cli(); // disable interrupt
  2800ce:	fa                   	cli    
// out:write a data to a port
static __inline void
outb(int port, uint8_t data)
{
  //data是变量0%0 , port是变量word１%w1
	__asm __volatile("outb %0,%w1" : : "a" (data), "d" (port));
  2800cf:	ba c8 03 00 00       	mov    $0x3c8,%edx
  //为什么写port 0x03c8
  
  //rgb=rgb+;
  outb(0x03c8,start);
  2800d4:	0f b6 c3             	movzbl %bl,%eax
  2800d7:	ee                   	out    %al,(%dx)
  2800d8:	b2 c9                	mov    $0xc9,%dl
  for(i=start;i<=end;i++)
  2800da:	3b 5d 0c             	cmp    0xc(%ebp),%ebx
  2800dd:	7f 1a                	jg     2800f9 <set_palette+0x38>
  {
    outb(0x03c9,*(rgb)/4);    //outb函数是往指定的设备，送数据。
  2800df:	8a 01                	mov    (%ecx),%al
  2800e1:	c0 e8 02             	shr    $0x2,%al
  2800e4:	ee                   	out    %al,(%dx)
    outb(0x03c9,*(rgb+1)/4);   
  2800e5:	8a 41 01             	mov    0x1(%ecx),%al
  2800e8:	c0 e8 02             	shr    $0x2,%al
  2800eb:	ee                   	out    %al,(%dx)
    outb(0x03c9,*(rgb+2)/4);   
  2800ec:	8a 41 02             	mov    0x2(%ecx),%al
  2800ef:	c0 e8 02             	shr    $0x2,%al
  2800f2:	ee                   	out    %al,(%dx)
    rgb=rgb+3;
  2800f3:	83 c1 03             	add    $0x3,%ecx
  io_cli(); // disable interrupt
  //为什么写port 0x03c8
  
  //rgb=rgb+;
  outb(0x03c8,start);
  for(i=start;i<=end;i++)
  2800f6:	43                   	inc    %ebx
  2800f7:	eb e1                	jmp    2800da <set_palette+0x19>
}

static __inline void
write_eflags(uint32_t eflags)
{
        __asm __volatile("pushl %0; popfl" : : "r" (eflags));
  2800f9:	56                   	push   %esi
  2800fa:	9d                   	popf   
  }
  
write_eflags(eflag);  //恢复从前的cpsr
  return;
  
}
  2800fb:	5b                   	pop    %ebx
  2800fc:	5e                   	pop    %esi
  2800fd:	5d                   	pop    %ebp
  2800fe:	c3                   	ret    

002800ff <init_palette>:
}

//初始化调色板，table_rgb[]保存了16种color的编码。
//什么调色板是这样进行设置，这个与x86的port 0x03c8 0x03c9
void init_palette(void)
{
  2800ff:	55                   	push   %ebp
  //16种color，每个color三个字节。
unsigned char table_rgb[16*3]={
  280100:	b9 0c 00 00 00       	mov    $0xc,%ecx
}

//初始化调色板，table_rgb[]保存了16种color的编码。
//什么调色板是这样进行设置，这个与x86的port 0x03c8 0x03c9
void init_palette(void)
{
  280105:	89 e5                	mov    %esp,%ebp
  280107:	57                   	push   %edi
  280108:	56                   	push   %esi
  //16种color，每个color三个字节。
unsigned char table_rgb[16*3]={
  280109:	be c4 22 28 00       	mov    $0x2822c4,%esi
}

//初始化调色板，table_rgb[]保存了16种color的编码。
//什么调色板是这样进行设置，这个与x86的port 0x03c8 0x03c9
void init_palette(void)
{
  28010e:	83 ec 30             	sub    $0x30,%esp
    0x00,0x00,0x84,   /*12:dark 青*/
    0x84,0x00,0x84,   /*13:dark purper*/
    0x00,0x84,0x84,   /*14:light blue*/
    0x84,0x84,0x84,   /*15:dark gray*/
  };
   set_palette(0,255,table_rgb);
  280111:	8d 45 c8             	lea    -0x38(%ebp),%eax
//初始化调色板，table_rgb[]保存了16种color的编码。
//什么调色板是这样进行设置，这个与x86的port 0x03c8 0x03c9
void init_palette(void)
{
  //16种color，每个color三个字节。
unsigned char table_rgb[16*3]={
  280114:	8d 7d c8             	lea    -0x38(%ebp),%edi
  280117:	f3 a5                	rep movsl %ds:(%esi),%es:(%edi)
    0x00,0x00,0x84,   /*12:dark 青*/
    0x84,0x00,0x84,   /*13:dark purper*/
    0x00,0x84,0x84,   /*14:light blue*/
    0x84,0x84,0x84,   /*15:dark gray*/
  };
   set_palette(0,255,table_rgb);
  280119:	50                   	push   %eax
  28011a:	68 ff 00 00 00       	push   $0xff
  28011f:	6a 00                	push   $0x0
  280121:	e8 9b ff ff ff       	call   2800c1 <set_palette>
  280126:	83 c4 0c             	add    $0xc,%esp
}
  280129:	8d 65 f8             	lea    -0x8(%ebp),%esp
  28012c:	5e                   	pop    %esi
  28012d:	5f                   	pop    %edi
  28012e:	5d                   	pop    %ebp
  28012f:	c3                   	ret    

00280130 <boxfill8>:
  return;
  
}

void boxfill8(unsigned char *vram,int xsize,unsigned char color,int x0,int y0,int x1,int y1)
{
  280130:	55                   	push   %ebp
  280131:	89 e5                	mov    %esp,%ebp
  280133:	8b 4d 18             	mov    0x18(%ebp),%ecx
  280136:	8b 45 0c             	mov    0xc(%ebp),%eax
  280139:	53                   	push   %ebx
  28013a:	8a 5d 10             	mov    0x10(%ebp),%bl
  28013d:	0f af c1             	imul   %ecx,%eax
  280140:	03 45 08             	add    0x8(%ebp),%eax
 int x,y;
 for(y=y0;y<=y1;y++)
  280143:	3b 4d 20             	cmp    0x20(%ebp),%ecx
  280146:	7f 14                	jg     28015c <boxfill8+0x2c>
  280148:	8b 55 14             	mov    0x14(%ebp),%edx
 {
   for(x=x0;x<=x1;x++)
  28014b:	3b 55 1c             	cmp    0x1c(%ebp),%edx
  28014e:	7f 06                	jg     280156 <boxfill8+0x26>
   {
      vram[y*xsize+x]=color;
  280150:	88 1c 10             	mov    %bl,(%eax,%edx,1)
void boxfill8(unsigned char *vram,int xsize,unsigned char color,int x0,int y0,int x1,int y1)
{
 int x,y;
 for(y=y0;y<=y1;y++)
 {
   for(x=x0;x<=x1;x++)
  280153:	42                   	inc    %edx
  280154:	eb f5                	jmp    28014b <boxfill8+0x1b>
}

void boxfill8(unsigned char *vram,int xsize,unsigned char color,int x0,int y0,int x1,int y1)
{
 int x,y;
 for(y=y0;y<=y1;y++)
  280156:	41                   	inc    %ecx
  280157:	03 45 0c             	add    0xc(%ebp),%eax
  28015a:	eb e7                	jmp    280143 <boxfill8+0x13>
   {
      vram[y*xsize+x]=color;
   }
 }
   
}
  28015c:	5b                   	pop    %ebx
  28015d:	5d                   	pop    %ebp
  28015e:	c3                   	ret    

0028015f <boxfill>:
void boxfill(unsigned char color,int x0,int y0,int x1,int y1)
{
  28015f:	55                   	push   %ebp
  280160:	89 e5                	mov    %esp,%ebp
  boxfill8((unsigned char *)VRAM,320,color,x0,y0,x1,y1);
  280162:	ff 75 18             	pushl  0x18(%ebp)
  280165:	ff 75 14             	pushl  0x14(%ebp)
  280168:	ff 75 10             	pushl  0x10(%ebp)
  28016b:	ff 75 0c             	pushl  0xc(%ebp)
  28016e:	0f b6 45 08          	movzbl 0x8(%ebp),%eax
  280172:	50                   	push   %eax
  280173:	68 40 01 00 00       	push   $0x140
  280178:	68 00 00 0a 00       	push   $0xa0000
  28017d:	e8 ae ff ff ff       	call   280130 <boxfill8>
  280182:	83 c4 1c             	add    $0x1c,%esp
}
  280185:	c9                   	leave  
  280186:	c3                   	ret    

00280187 <draw_window>:

void draw_window()
{ 
  280187:	55                   	push   %ebp
  280188:	89 e5                	mov    %esp,%ebp
  int x=320,y=200;
    p=(unsigned char*)VRAM;
//     boxfill8(p,320,110,20,20,250,150);
    
    //draw a window
    boxfill(7 ,0, 0   ,x-1,y-29);
  28018a:	68 ab 00 00 00       	push   $0xab
  28018f:	68 3f 01 00 00       	push   $0x13f
  280194:	6a 00                	push   $0x0
  280196:	6a 00                	push   $0x0
  280198:	6a 07                	push   $0x7
  28019a:	e8 c0 ff ff ff       	call   28015f <boxfill>
//task button    
    boxfill(8  ,0, y-28,x-1,y-28);
  28019f:	68 ac 00 00 00       	push   $0xac
  2801a4:	68 3f 01 00 00       	push   $0x13f
  2801a9:	68 ac 00 00 00       	push   $0xac
  2801ae:	6a 00                	push   $0x0
  2801b0:	6a 08                	push   $0x8
  2801b2:	e8 a8 ff ff ff       	call   28015f <boxfill>
    boxfill(7  ,0, y-27,x-1,y-27);
  2801b7:	83 c4 28             	add    $0x28,%esp
  2801ba:	68 ad 00 00 00       	push   $0xad
  2801bf:	68 3f 01 00 00       	push   $0x13f
  2801c4:	68 ad 00 00 00       	push   $0xad
  2801c9:	6a 00                	push   $0x0
  2801cb:	6a 07                	push   $0x7
  2801cd:	e8 8d ff ff ff       	call   28015f <boxfill>
    boxfill(8  ,0, y-26,x-1,y-1);
  2801d2:	68 c7 00 00 00       	push   $0xc7
  2801d7:	68 3f 01 00 00       	push   $0x13f
  2801dc:	68 ae 00 00 00       	push   $0xae
  2801e1:	6a 00                	push   $0x0
  2801e3:	6a 08                	push   $0x8
  2801e5:	e8 75 ff ff ff       	call   28015f <boxfill>
    
    
//left button    
    boxfill(7, 3,  y-24, 59,  y-24);
  2801ea:	83 c4 28             	add    $0x28,%esp
  2801ed:	68 b0 00 00 00       	push   $0xb0
  2801f2:	6a 3b                	push   $0x3b
  2801f4:	68 b0 00 00 00       	push   $0xb0
  2801f9:	6a 03                	push   $0x3
  2801fb:	6a 07                	push   $0x7
  2801fd:	e8 5d ff ff ff       	call   28015f <boxfill>
    boxfill(7, 2,  y-24, 2 ,  y-4);  
  280202:	68 c4 00 00 00       	push   $0xc4
  280207:	6a 02                	push   $0x2
  280209:	68 b0 00 00 00       	push   $0xb0
  28020e:	6a 02                	push   $0x2
  280210:	6a 07                	push   $0x7
  280212:	e8 48 ff ff ff       	call   28015f <boxfill>
    boxfill(15, 3,  y-4,  59,  y-4);
  280217:	83 c4 28             	add    $0x28,%esp
  28021a:	68 c4 00 00 00       	push   $0xc4
  28021f:	6a 3b                	push   $0x3b
  280221:	68 c4 00 00 00       	push   $0xc4
  280226:	6a 03                	push   $0x3
  280228:	6a 0f                	push   $0xf
  28022a:	e8 30 ff ff ff       	call   28015f <boxfill>
    boxfill(15, 59, y-23, 59,  y-5);
  28022f:	68 c3 00 00 00       	push   $0xc3
  280234:	6a 3b                	push   $0x3b
  280236:	68 b1 00 00 00       	push   $0xb1
  28023b:	6a 3b                	push   $0x3b
  28023d:	6a 0f                	push   $0xf
  28023f:	e8 1b ff ff ff       	call   28015f <boxfill>
    boxfill(0, 2,  y-3,  59,  y-3);
  280244:	83 c4 28             	add    $0x28,%esp
  280247:	68 c5 00 00 00       	push   $0xc5
  28024c:	6a 3b                	push   $0x3b
  28024e:	68 c5 00 00 00       	push   $0xc5
  280253:	6a 02                	push   $0x2
  280255:	6a 00                	push   $0x0
  280257:	e8 03 ff ff ff       	call   28015f <boxfill>
    boxfill(0, 60, y-24, 60,  y-3);  
  28025c:	68 c5 00 00 00       	push   $0xc5
  280261:	6a 3c                	push   $0x3c
  280263:	68 b0 00 00 00       	push   $0xb0
  280268:	6a 3c                	push   $0x3c
  28026a:	6a 00                	push   $0x0
  28026c:	e8 ee fe ff ff       	call   28015f <boxfill>

// 
//right button    
    boxfill(15, x-47, y-24,x-4,y-24);
  280271:	83 c4 28             	add    $0x28,%esp
  280274:	68 b0 00 00 00       	push   $0xb0
  280279:	68 3c 01 00 00       	push   $0x13c
  28027e:	68 b0 00 00 00       	push   $0xb0
  280283:	68 11 01 00 00       	push   $0x111
  280288:	6a 0f                	push   $0xf
  28028a:	e8 d0 fe ff ff       	call   28015f <boxfill>
    boxfill(15, x-47, y-23,x-47,y-4);  
  28028f:	68 c4 00 00 00       	push   $0xc4
  280294:	68 11 01 00 00       	push   $0x111
  280299:	68 b1 00 00 00       	push   $0xb1
  28029e:	68 11 01 00 00       	push   $0x111
  2802a3:	6a 0f                	push   $0xf
  2802a5:	e8 b5 fe ff ff       	call   28015f <boxfill>
    boxfill(7, x-47, y-3,x-4,y-3);
  2802aa:	83 c4 28             	add    $0x28,%esp
  2802ad:	68 c5 00 00 00       	push   $0xc5
  2802b2:	68 3c 01 00 00       	push   $0x13c
  2802b7:	68 c5 00 00 00       	push   $0xc5
  2802bc:	68 11 01 00 00       	push   $0x111
  2802c1:	6a 07                	push   $0x7
  2802c3:	e8 97 fe ff ff       	call   28015f <boxfill>
    boxfill(7, x-3, y-24,x-3,y-3);
  2802c8:	68 c5 00 00 00       	push   $0xc5
  2802cd:	68 3d 01 00 00       	push   $0x13d
  2802d2:	68 b0 00 00 00       	push   $0xb0
  2802d7:	68 3d 01 00 00       	push   $0x13d
  2802dc:	6a 07                	push   $0x7
  2802de:	e8 7c fe ff ff       	call   28015f <boxfill>
  2802e3:	83 c4 28             	add    $0x28,%esp
}
  2802e6:	c9                   	leave  
  2802e7:	c3                   	ret    

002802e8 <init_screen>:


void init_screen(struct boot_info * bootp)
{
  2802e8:	55                   	push   %ebp
  2802e9:	89 e5                	mov    %esp,%ebp
  2802eb:	8b 45 08             	mov    0x8(%ebp),%eax
  bootp->vram=(char *)VRAM;
  2802ee:	c7 40 08 00 00 0a 00 	movl   $0xa0000,0x8(%eax)
  bootp->color_mode=8;
  2802f5:	c6 40 02 08          	movb   $0x8,0x2(%eax)
  bootp->xsize=320;
  2802f9:	66 c7 40 04 40 01    	movw   $0x140,0x4(%eax)
  bootp->ysize=200;
  2802ff:	66 c7 40 06 c8 00    	movw   $0xc8,0x6(%eax)
  
}
  280305:	5d                   	pop    %ebp
  280306:	c3                   	ret    

00280307 <init_mouse>:

///关于mouse的函数
void init_mouse(char *mouse,char bg)
{
  280307:	55                   	push   %ebp
  280308:	31 c9                	xor    %ecx,%ecx
  28030a:	89 e5                	mov    %esp,%ebp
  28030c:	8a 45 0c             	mov    0xc(%ebp),%al
  28030f:	8b 55 08             	mov    0x8(%ebp),%edx
  280312:	56                   	push   %esi
  280313:	53                   	push   %ebx
  280314:	89 c6                	mov    %eax,%esi
  280316:	31 c0                	xor    %eax,%eax
	int x,y;
	for(y=0;y<16;y++)
	{
	  for(x=0;x<16;x++)
	  {
	    switch (cursor[y][x])
  280318:	8a 9c 01 f4 22 28 00 	mov    0x2822f4(%ecx,%eax,1),%bl
  28031f:	80 fb 2e             	cmp    $0x2e,%bl
  280322:	74 10                	je     280334 <init_mouse+0x2d>
  280324:	80 fb 4f             	cmp    $0x4f,%bl
  280327:	74 12                	je     28033b <init_mouse+0x34>
  280329:	80 fb 2a             	cmp    $0x2a,%bl
  28032c:	75 11                	jne    28033f <init_mouse+0x38>
	    {
	      case '.':mouse[x+16*y]=bg;break;  //background
	      case '*':mouse[x+16*y]=outline;break;   //outline
  28032e:	c6 04 02 00          	movb   $0x0,(%edx,%eax,1)
  280332:	eb 0b                	jmp    28033f <init_mouse+0x38>
	{
	  for(x=0;x<16;x++)
	  {
	    switch (cursor[y][x])
	    {
	      case '.':mouse[x+16*y]=bg;break;  //background
  280334:	89 f3                	mov    %esi,%ebx
  280336:	88 1c 02             	mov    %bl,(%edx,%eax,1)
  280339:	eb 04                	jmp    28033f <init_mouse+0x38>
	      case '*':mouse[x+16*y]=outline;break;   //outline
	      case 'O':mouse[x+16*y]=inside;break;  //inside
  28033b:	c6 04 02 02          	movb   $0x2,(%edx,%eax,1)
		".............***"
	};
	int x,y;
	for(y=0;y<16;y++)
	{
	  for(x=0;x<16;x++)
  28033f:	40                   	inc    %eax
  280340:	83 f8 10             	cmp    $0x10,%eax
  280343:	75 d3                	jne    280318 <init_mouse+0x11>
  280345:	83 c1 10             	add    $0x10,%ecx
  280348:	83 c2 10             	add    $0x10,%edx
		"*..........*OOO*",
		"............*OO*",
		".............***"
	};
	int x,y;
	for(y=0;y<16;y++)
  28034b:	81 f9 00 01 00 00    	cmp    $0x100,%ecx
  280351:	75 c3                	jne    280316 <init_mouse+0xf>
	    
	  }
	  
	}
  
}
  280353:	5b                   	pop    %ebx
  280354:	5e                   	pop    %esi
  280355:	5d                   	pop    %ebp
  280356:	c3                   	ret    

00280357 <display_mouse>:

void display_mouse(char *vram,int xsize,int pxsize,int pysize,int px0,int py0,char *buf,int bxsize)
{
  280357:	55                   	push   %ebp
  280358:	89 e5                	mov    %esp,%ebp
  28035a:	8b 45 1c             	mov    0x1c(%ebp),%eax
  28035d:	56                   	push   %esi
  int x,y;
  for(y=0;y<pysize;y++)
  28035e:	31 f6                	xor    %esi,%esi
	}
  
}

void display_mouse(char *vram,int xsize,int pxsize,int pysize,int px0,int py0,char *buf,int bxsize)
{
  280360:	53                   	push   %ebx
  280361:	8b 5d 20             	mov    0x20(%ebp),%ebx
  280364:	0f af 45 0c          	imul   0xc(%ebp),%eax
  280368:	03 45 18             	add    0x18(%ebp),%eax
  28036b:	03 45 08             	add    0x8(%ebp),%eax
  int x,y;
  for(y=0;y<pysize;y++)
  28036e:	3b 75 14             	cmp    0x14(%ebp),%esi
  280371:	7d 19                	jge    28038c <display_mouse+0x35>
  280373:	31 d2                	xor    %edx,%edx
  {
    for(x=0;x<pxsize;x++)
  280375:	3b 55 10             	cmp    0x10(%ebp),%edx
  280378:	7d 09                	jge    280383 <display_mouse+0x2c>
    {
     vram[(py0+y)*xsize+(px0+x)]=buf[y*bxsize+x];
  28037a:	8a 0c 13             	mov    (%ebx,%edx,1),%cl
  28037d:	88 0c 10             	mov    %cl,(%eax,%edx,1)
void display_mouse(char *vram,int xsize,int pxsize,int pysize,int px0,int py0,char *buf,int bxsize)
{
  int x,y;
  for(y=0;y<pysize;y++)
  {
    for(x=0;x<pxsize;x++)
  280380:	42                   	inc    %edx
  280381:	eb f2                	jmp    280375 <display_mouse+0x1e>
}

void display_mouse(char *vram,int xsize,int pxsize,int pysize,int px0,int py0,char *buf,int bxsize)
{
  int x,y;
  for(y=0;y<pysize;y++)
  280383:	46                   	inc    %esi
  280384:	03 5d 24             	add    0x24(%ebp),%ebx
  280387:	03 45 0c             	add    0xc(%ebp),%eax
  28038a:	eb e2                	jmp    28036e <display_mouse+0x17>
    {
     vram[(py0+y)*xsize+(px0+x)]=buf[y*bxsize+x];
    }
  }
  
}
  28038c:	5b                   	pop    %ebx
  28038d:	5e                   	pop    %esi
  28038e:	5d                   	pop    %ebp
  28038f:	c3                   	ret    

00280390 <itoa>:
sprintf(font,"Debug:var=%x" ,i);
puts8((char *)VRAM ,320,x,150,1,font);

}

void itoa(int value,char *buf){
  280390:	55                   	push   %ebp
    char tmp_buf[10] = {0};
  280391:	31 c0                	xor    %eax,%eax
sprintf(font,"Debug:var=%x" ,i);
puts8((char *)VRAM ,320,x,150,1,font);

}

void itoa(int value,char *buf){
  280393:	89 e5                	mov    %esp,%ebp
    char tmp_buf[10] = {0};
  280395:	b9 0a 00 00 00       	mov    $0xa,%ecx
sprintf(font,"Debug:var=%x" ,i);
puts8((char *)VRAM ,320,x,150,1,font);

}

void itoa(int value,char *buf){
  28039a:	57                   	push   %edi
  28039b:	56                   	push   %esi
  28039c:	53                   	push   %ebx
  28039d:	83 ec 10             	sub    $0x10,%esp
  2803a0:	8b 55 08             	mov    0x8(%ebp),%edx
    char tmp_buf[10] = {0};
  2803a3:	8d 7d ea             	lea    -0x16(%ebp),%edi
sprintf(font,"Debug:var=%x" ,i);
puts8((char *)VRAM ,320,x,150,1,font);

}

void itoa(int value,char *buf){
  2803a6:	8b 5d 0c             	mov    0xc(%ebp),%ebx
    char tmp_buf[10] = {0};
  2803a9:	f3 aa                	rep stos %al,%es:(%edi)
  2803ab:	8d 7d ea             	lea    -0x16(%ebp),%edi
    char *tbp = tmp_buf;
    if((value >> 31) & 0x1)
  2803ae:	85 d2                	test   %edx,%edx
  2803b0:	79 06                	jns    2803b8 <itoa+0x28>
    { /* neg num */
        *buf++ = '-';//得到负号
  2803b2:	c6 03 2d             	movb   $0x2d,(%ebx)
        value = ~value + 1; //将负数变为正数
  2803b5:	f7 da                	neg    %edx
void itoa(int value,char *buf){
    char tmp_buf[10] = {0};
    char *tbp = tmp_buf;
    if((value >> 31) & 0x1)
    { /* neg num */
        *buf++ = '-';//得到负号
  2803b7:	43                   	inc    %ebx
  2803b8:	89 f9                	mov    %edi,%ecx
    
    
  
    do
    {
        *tbp++ = ('0' + (char)(value % 10));//得到低位数字
  2803ba:	be 0a 00 00 00       	mov    $0xa,%esi
  2803bf:	89 d0                	mov    %edx,%eax
  2803c1:	41                   	inc    %ecx
  2803c2:	99                   	cltd   
  2803c3:	f7 fe                	idiv   %esi
  2803c5:	83 c2 30             	add    $0x30,%edx
        value /= 10;
    }while(value);
  2803c8:	85 c0                	test   %eax,%eax
    
    
  
    do
    {
        *tbp++ = ('0' + (char)(value % 10));//得到低位数字
  2803ca:	88 51 ff             	mov    %dl,-0x1(%ecx)
        value /= 10;
  2803cd:	89 c2                	mov    %eax,%edx
    }while(value);
  2803cf:	75 ee                	jne    2803bf <itoa+0x2f>
    
    
  
    do
    {
        *tbp++ = ('0' + (char)(value % 10));//得到低位数字
  2803d1:	89 ce                	mov    %ecx,%esi
  2803d3:	89 d8                	mov    %ebx,%eax
        value /= 10;
    }while(value);
    
    
    while(tmp_buf != tbp)
  2803d5:	39 f9                	cmp    %edi,%ecx
  2803d7:	74 09                	je     2803e2 <itoa+0x52>
    {
      tbp--;
  2803d9:	49                   	dec    %ecx
      *buf++ = *tbp;
  2803da:	8a 11                	mov    (%ecx),%dl
  2803dc:	40                   	inc    %eax
  2803dd:	88 50 ff             	mov    %dl,-0x1(%eax)
  2803e0:	eb f3                	jmp    2803d5 <itoa+0x45>
  2803e2:	89 f0                	mov    %esi,%eax
  2803e4:	29 c8                	sub    %ecx,%eax

    }
    *buf='\0';
  2803e6:	c6 04 03 00          	movb   $0x0,(%ebx,%eax,1)
    
    
}
  2803ea:	83 c4 10             	add    $0x10,%esp
  2803ed:	5b                   	pop    %ebx
  2803ee:	5e                   	pop    %esi
  2803ef:	5f                   	pop    %edi
  2803f0:	5d                   	pop    %ebp
  2803f1:	c3                   	ret    

002803f2 <xtoa>:
    else
        value = value + 48;
    return value;
}

void xtoa(unsigned int value,char *buf){
  2803f2:	55                   	push   %ebp
    char tmp_buf[30] = {0};
  2803f3:	31 c0                	xor    %eax,%eax
    else
        value = value + 48;
    return value;
}

void xtoa(unsigned int value,char *buf){
  2803f5:	89 e5                	mov    %esp,%ebp
    char tmp_buf[30] = {0};
  2803f7:	b9 1e 00 00 00       	mov    $0x1e,%ecx
    else
        value = value + 48;
    return value;
}

void xtoa(unsigned int value,char *buf){
  2803fc:	57                   	push   %edi
  2803fd:	56                   	push   %esi
  2803fe:	53                   	push   %ebx
  2803ff:	83 ec 20             	sub    $0x20,%esp
  280402:	8b 55 0c             	mov    0xc(%ebp),%edx
    char tmp_buf[30] = {0};
  280405:	8d 7d d6             	lea    -0x2a(%ebp),%edi
  280408:	f3 aa                	rep stos %al,%es:(%edi)
    char *tbp = tmp_buf;
  28040a:	8d 45 d6             	lea    -0x2a(%ebp),%eax

    *buf++='0';
  28040d:	c6 02 30             	movb   $0x30,(%edx)
    *buf++='x';
  280410:	8d 72 02             	lea    0x2(%edx),%esi
  280413:	c6 42 01 78          	movb   $0x78,0x1(%edx)
  
    do
    {
        // *tbp++ = ('0' + (char)(value % 16));//得到低位数字
	*tbp++=fourbtoc(value&0x0000000f);
  280417:	8b 5d 08             	mov    0x8(%ebp),%ebx
  28041a:	40                   	inc    %eax
  28041b:	83 e3 0f             	and    $0xf,%ebx
    
    
}
static  inline char fourbtoc(int value){
    if(value >= 10)
        value = value - 10 + 65;
  28041e:	83 fb 0a             	cmp    $0xa,%ebx
  280421:	8d 4b 37             	lea    0x37(%ebx),%ecx
  280424:	8d 7b 30             	lea    0x30(%ebx),%edi
  280427:	0f 4c cf             	cmovl  %edi,%ecx
        // *tbp++ = ('0' + (char)(value % 16));//得到低位数字
	*tbp++=fourbtoc(value&0x0000000f);
        
        //*tbp++ = ((value % 16)>9)?('A' + (char)(value % 16-10)):('0' + (char)(value % 16));//得到低位数字
        value >>= 4;
    }while(value);
  28042a:	c1 6d 08 04          	shrl   $0x4,0x8(%ebp)
static  inline char fourbtoc(int value){
    if(value >= 10)
        value = value - 10 + 65;
    else
        value = value + 48;
    return value;
  28042e:	88 48 ff             	mov    %cl,-0x1(%eax)
        // *tbp++ = ('0' + (char)(value % 16));//得到低位数字
	*tbp++=fourbtoc(value&0x0000000f);
        
        //*tbp++ = ((value % 16)>9)?('A' + (char)(value % 16-10)):('0' + (char)(value % 16));//得到低位数字
        value >>= 4;
    }while(value);
  280431:	75 e4                	jne    280417 <xtoa+0x25>
    *buf++='x';
  
    do
    {
        // *tbp++ = ('0' + (char)(value % 16));//得到低位数字
	*tbp++=fourbtoc(value&0x0000000f);
  280433:	89 c3                	mov    %eax,%ebx
        //*tbp++ = ((value % 16)>9)?('A' + (char)(value % 16-10)):('0' + (char)(value % 16));//得到低位数字
        value >>= 4;
    }while(value);
    
    
    while(tmp_buf != tbp)
  280435:	8d 7d d6             	lea    -0x2a(%ebp),%edi
  280438:	39 f8                	cmp    %edi,%eax
  28043a:	74 09                	je     280445 <xtoa+0x53>
    {
      tbp--;
  28043c:	48                   	dec    %eax
      *buf++ = *tbp;
  28043d:	8a 08                	mov    (%eax),%cl
  28043f:	46                   	inc    %esi
  280440:	88 4e ff             	mov    %cl,-0x1(%esi)
  280443:	eb f0                	jmp    280435 <xtoa+0x43>
  280445:	29 c3                	sub    %eax,%ebx

    }
    *buf='\0';
  280447:	c6 44 1a 02 00       	movb   $0x0,0x2(%edx,%ebx,1)
    
    
}
  28044c:	83 c4 20             	add    $0x20,%esp
  28044f:	5b                   	pop    %ebx
  280450:	5e                   	pop    %esi
  280451:	5f                   	pop    %edi
  280452:	5d                   	pop    %ebp
  280453:	c3                   	ret    

00280454 <sprintf>:



//实现可变参数的打印，主要是为了观察打印的变量。
void sprintf(char *str,char *format ,...)
{
  280454:	55                   	push   %ebp
  280455:	89 e5                	mov    %esp,%ebp
  280457:	57                   	push   %edi
  280458:	56                   	push   %esi
  280459:	53                   	push   %ebx
  28045a:	83 ec 10             	sub    $0x10,%esp
  28045d:	8b 5d 08             	mov    0x8(%ebp),%ebx
  
   int *var=(int *)(&format)+1; //得到第一个可变参数的地址
  280460:	8d 75 10             	lea    0x10(%ebp),%esi
   char buffer[10];
   char *buf=buffer;
  while(*format)
  280463:	8b 7d 0c             	mov    0xc(%ebp),%edi
  280466:	8a 07                	mov    (%edi),%al
  280468:	84 c0                	test   %al,%al
  28046a:	0f 84 83 00 00 00    	je     2804f3 <sprintf+0x9f>
  280470:	8d 4f 01             	lea    0x1(%edi),%ecx
  {
      if(*format!='%')
  280473:	3c 25                	cmp    $0x25,%al
      {
	*str++=*format++;
  280475:	89 4d 0c             	mov    %ecx,0xc(%ebp)
   int *var=(int *)(&format)+1; //得到第一个可变参数的地址
   char buffer[10];
   char *buf=buffer;
  while(*format)
  {
      if(*format!='%')
  280478:	74 05                	je     28047f <sprintf+0x2b>
      {
	*str++=*format++;
  28047a:	88 03                	mov    %al,(%ebx)
  28047c:	43                   	inc    %ebx
	continue;
  28047d:	eb e4                	jmp    280463 <sprintf+0xf>
      }
      else
      {
	format++;
	switch (*format)
  28047f:	8a 47 01             	mov    0x1(%edi),%al
  280482:	3c 73                	cmp    $0x73,%al
  280484:	74 46                	je     2804cc <sprintf+0x78>
  280486:	3c 78                	cmp    $0x78,%al
  280488:	74 23                	je     2804ad <sprintf+0x59>
  28048a:	3c 64                	cmp    $0x64,%al
  28048c:	75 53                	jne    2804e1 <sprintf+0x8d>
	{
	  case 'd':itoa(*var,buf);while(*buf){*str++=*buf++;};break;
  28048e:	8d 45 ea             	lea    -0x16(%ebp),%eax
  280491:	50                   	push   %eax
  280492:	ff 36                	pushl  (%esi)
  280494:	e8 f7 fe ff ff       	call   280390 <itoa>
  280499:	59                   	pop    %ecx
  28049a:	8d 4d ea             	lea    -0x16(%ebp),%ecx
  28049d:	58                   	pop    %eax
  28049e:	89 d8                	mov    %ebx,%eax
  2804a0:	8a 19                	mov    (%ecx),%bl
  2804a2:	84 db                	test   %bl,%bl
  2804a4:	74 3d                	je     2804e3 <sprintf+0x8f>
  2804a6:	40                   	inc    %eax
  2804a7:	41                   	inc    %ecx
  2804a8:	88 58 ff             	mov    %bl,-0x1(%eax)
  2804ab:	eb f3                	jmp    2804a0 <sprintf+0x4c>
	  case 'x':xtoa(*var,buf);while(*buf){*str++=*buf++;};break;
  2804ad:	8d 45 ea             	lea    -0x16(%ebp),%eax
  2804b0:	50                   	push   %eax
  2804b1:	ff 36                	pushl  (%esi)
  2804b3:	e8 3a ff ff ff       	call   2803f2 <xtoa>
  2804b8:	8d 4d ea             	lea    -0x16(%ebp),%ecx
  2804bb:	58                   	pop    %eax
  2804bc:	89 d8                	mov    %ebx,%eax
  2804be:	5a                   	pop    %edx
  2804bf:	8a 19                	mov    (%ecx),%bl
  2804c1:	84 db                	test   %bl,%bl
  2804c3:	74 1e                	je     2804e3 <sprintf+0x8f>
  2804c5:	40                   	inc    %eax
  2804c6:	41                   	inc    %ecx
  2804c7:	88 58 ff             	mov    %bl,-0x1(%eax)
  2804ca:	eb f3                	jmp    2804bf <sprintf+0x6b>
	  case 's':buf=(char*)(*var);while(*buf){*str++=*buf++;};break;
  2804cc:	8b 16                	mov    (%esi),%edx
  2804ce:	89 d8                	mov    %ebx,%eax
  2804d0:	89 c1                	mov    %eax,%ecx
  2804d2:	29 d9                	sub    %ebx,%ecx
  2804d4:	8a 0c 11             	mov    (%ecx,%edx,1),%cl
  2804d7:	84 c9                	test   %cl,%cl
  2804d9:	74 08                	je     2804e3 <sprintf+0x8f>
  2804db:	40                   	inc    %eax
  2804dc:	88 48 ff             	mov    %cl,-0x1(%eax)
  2804df:	eb ef                	jmp    2804d0 <sprintf+0x7c>
	continue;
      }
      else
      {
	format++;
	switch (*format)
  2804e1:	89 d8                	mov    %ebx,%eax
	  case 's':buf=(char*)(*var);while(*buf){*str++=*buf++;};break;
	  
	}
	buf=buffer;
	var++;
	format++;
  2804e3:	83 c7 02             	add    $0x2,%edi
	  case 'x':xtoa(*var,buf);while(*buf){*str++=*buf++;};break;
	  case 's':buf=(char*)(*var);while(*buf){*str++=*buf++;};break;
	  
	}
	buf=buffer;
	var++;
  2804e6:	83 c6 04             	add    $0x4,%esi
	format++;
  2804e9:	89 7d 0c             	mov    %edi,0xc(%ebp)
  2804ec:	89 c3                	mov    %eax,%ebx
  2804ee:	e9 70 ff ff ff       	jmp    280463 <sprintf+0xf>
	
      }
    
  }
  *str='\0';
  2804f3:	c6 03 00             	movb   $0x0,(%ebx)
  
}
  2804f6:	8d 65 f4             	lea    -0xc(%ebp),%esp
  2804f9:	5b                   	pop    %ebx
  2804fa:	5e                   	pop    %esi
  2804fb:	5f                   	pop    %edi
  2804fc:	5d                   	pop    %ebp
  2804fd:	c3                   	ret    

002804fe <putfont8>:
}
  
}

void putfont8(char *vram ,int xsize,int x,int y,char color,char *font)//x=0 311 y=0 183
{
  2804fe:	55                   	push   %ebp
  int row,col;
  char d;
  for(row=0;row<16;row++)
  2804ff:	31 d2                	xor    %edx,%edx
}
  
}

void putfont8(char *vram ,int xsize,int x,int y,char color,char *font)//x=0 311 y=0 183
{
  280501:	89 e5                	mov    %esp,%ebp
  280503:	57                   	push   %edi
  for(row=0;row<16;row++)
  {
    d=font[row];
    for(col=0;col<8;col++)
    {
      if(d&(0x80>>col))
  280504:	bf 80 00 00 00       	mov    $0x80,%edi
}
  
}

void putfont8(char *vram ,int xsize,int x,int y,char color,char *font)//x=0 311 y=0 183
{
  280509:	56                   	push   %esi
  28050a:	53                   	push   %ebx
  28050b:	83 ec 01             	sub    $0x1,%esp
  28050e:	8a 45 18             	mov    0x18(%ebp),%al
  280511:	88 45 f3             	mov    %al,-0xd(%ebp)
  280514:	8b 45 14             	mov    0x14(%ebp),%eax
  280517:	0f af 45 0c          	imul   0xc(%ebp),%eax
  28051b:	03 45 10             	add    0x10(%ebp),%eax
  28051e:	03 45 08             	add    0x8(%ebp),%eax
  for(row=0;row<16;row++)
  {
    d=font[row];
    for(col=0;col<8;col++)
    {
      if(d&(0x80>>col))
  280521:	8b 75 1c             	mov    0x1c(%ebp),%esi
  int row,col;
  char d;
  for(row=0;row<16;row++)
  {
    d=font[row];
    for(col=0;col<8;col++)
  280524:	31 c9                	xor    %ecx,%ecx
    {
      if(d&(0x80>>col))
  280526:	0f be 34 16          	movsbl (%esi,%edx,1),%esi
  28052a:	89 fb                	mov    %edi,%ebx
  28052c:	d3 fb                	sar    %cl,%ebx
  28052e:	85 f3                	test   %esi,%ebx
  280530:	74 06                	je     280538 <putfont8+0x3a>
      {
	vram[(y+row)*xsize+x+col]=color;
  280532:	8a 5d f3             	mov    -0xd(%ebp),%bl
  280535:	88 1c 08             	mov    %bl,(%eax,%ecx,1)
  int row,col;
  char d;
  for(row=0;row<16;row++)
  {
    d=font[row];
    for(col=0;col<8;col++)
  280538:	41                   	inc    %ecx
  280539:	83 f9 08             	cmp    $0x8,%ecx
  28053c:	75 ec                	jne    28052a <putfont8+0x2c>

void putfont8(char *vram ,int xsize,int x,int y,char color,char *font)//x=0 311 y=0 183
{
  int row,col;
  char d;
  for(row=0;row<16;row++)
  28053e:	42                   	inc    %edx
  28053f:	03 45 0c             	add    0xc(%ebp),%eax
  280542:	83 fa 10             	cmp    $0x10,%edx
  280545:	75 da                	jne    280521 <putfont8+0x23>
    }
    
  }
  return;
  
}
  280547:	83 c4 01             	add    $0x1,%esp
  28054a:	5b                   	pop    %ebx
  28054b:	5e                   	pop    %esi
  28054c:	5f                   	pop    %edi
  28054d:	5d                   	pop    %ebp
  28054e:	c3                   	ret    

0028054f <puts8>:
  *str='\0';
  
}

void puts8(char *vram ,int xsize,int x,int y,char color,char *font)//x=0 311 y=0 183
{
  28054f:	55                   	push   %ebp
  280550:	89 e5                	mov    %esp,%ebp
  280552:	57                   	push   %edi
  280553:	8b 7d 14             	mov    0x14(%ebp),%edi
  280556:	56                   	push   %esi
      y=y+16;
      
    }
    else
    {  
    putfont8((char *)vram ,xsize,x,y,color,(char *)(Font8x16+(*font)*16));
  280557:	0f be 75 18          	movsbl 0x18(%ebp),%esi
  *str='\0';
  
}

void puts8(char *vram ,int xsize,int x,int y,char color,char *font)//x=0 311 y=0 183
{
  28055b:	53                   	push   %ebx
  28055c:	8b 5d 10             	mov    0x10(%ebp),%ebx
  
 while(*font)
  28055f:	8b 45 1c             	mov    0x1c(%ebp),%eax
  280562:	0f be 00             	movsbl (%eax),%eax
  280565:	84 c0                	test   %al,%al
  280567:	74 42                	je     2805ab <puts8+0x5c>
 {
    if(*font=='\n')
  280569:	3c 0a                	cmp    $0xa,%al
  28056b:	75 05                	jne    280572 <puts8+0x23>
    {
      x=0;
      y=y+16;
  28056d:	83 c7 10             	add    $0x10,%edi
  280570:	eb 32                	jmp    2805a4 <puts8+0x55>
      
    }
    else
    {  
    putfont8((char *)vram ,xsize,x,y,color,(char *)(Font8x16+(*font)*16));
  280572:	c1 e0 04             	shl    $0x4,%eax
  280575:	05 f4 08 28 00       	add    $0x2808f4,%eax
  28057a:	50                   	push   %eax
  28057b:	56                   	push   %esi
  28057c:	57                   	push   %edi
  28057d:	53                   	push   %ebx
    x+=8;
  28057e:	83 c3 08             	add    $0x8,%ebx
      y=y+16;
      
    }
    else
    {  
    putfont8((char *)vram ,xsize,x,y,color,(char *)(Font8x16+(*font)*16));
  280581:	ff 75 0c             	pushl  0xc(%ebp)
  280584:	ff 75 08             	pushl  0x8(%ebp)
  280587:	e8 72 ff ff ff       	call   2804fe <putfont8>
    x+=8;
    if(x>312)
  28058c:	83 c4 18             	add    $0x18,%esp
  28058f:	81 fb 38 01 00 00    	cmp    $0x138,%ebx
  280595:	7e 0f                	jle    2805a6 <puts8+0x57>
       {
	  x=0;
	  y+=16;
  280597:	83 c7 10             	add    $0x10,%edi
	  if(y>183)
  28059a:	81 ff b7 00 00 00    	cmp    $0xb7,%edi
  2805a0:	7e 02                	jle    2805a4 <puts8+0x55>
	  {
	    x=0;
	    y=0;
  2805a2:	31 ff                	xor    %edi,%edi
       {
	  x=0;
	  y+=16;
	  if(y>183)
	  {
	    x=0;
  2805a4:	31 db                	xor    %ebx,%ebx
	    
	  }
        }    
    }
    
    font++;
  2805a6:	ff 45 1c             	incl   0x1c(%ebp)
  2805a9:	eb b4                	jmp    28055f <puts8+0x10>
}
  
}
  2805ab:	8d 65 f4             	lea    -0xc(%ebp),%esp
  2805ae:	5b                   	pop    %ebx
  2805af:	5e                   	pop    %esi
  2805b0:	5f                   	pop    %edi
  2805b1:	5d                   	pop    %ebp
  2805b2:	c3                   	ret    

002805b3 <printdebug>:
#include<header.h>


void printdebug(int i,int x)
{
  2805b3:	55                   	push   %ebp
  2805b4:	89 e5                	mov    %esp,%ebp
  2805b6:	53                   	push   %ebx
  2805b7:	83 ec 20             	sub    $0x20,%esp
char font[30];
sprintf(font,"Debug:var=%x" ,i);
  2805ba:	ff 75 08             	pushl  0x8(%ebp)
  2805bd:	8d 5d de             	lea    -0x22(%ebp),%ebx
  2805c0:	68 9c 27 28 00       	push   $0x28279c
  2805c5:	53                   	push   %ebx
  2805c6:	e8 89 fe ff ff       	call   280454 <sprintf>
puts8((char *)VRAM ,320,x,150,1,font);
  2805cb:	53                   	push   %ebx
  2805cc:	6a 01                	push   $0x1
  2805ce:	68 96 00 00 00       	push   $0x96
  2805d3:	ff 75 0c             	pushl  0xc(%ebp)
  2805d6:	68 40 01 00 00       	push   $0x140
  2805db:	68 00 00 0a 00       	push   $0xa0000
  2805e0:	e8 6a ff ff ff       	call   28054f <puts8>
  2805e5:	83 c4 24             	add    $0x24,%esp

}
  2805e8:	8b 5d fc             	mov    -0x4(%ebp),%ebx
  2805eb:	c9                   	leave  
  2805ec:	c3                   	ret    

002805ed <putfont16>:
      
  }
  
}
void putfont16(char *vram ,int xsize,int x,int y,char color,unsigned short *font)//x=0 311 y=0 183
{
  2805ed:	55                   	push   %ebp
  2805ee:	31 c9                	xor    %ecx,%ecx
  2805f0:	89 e5                	mov    %esp,%ebp
  2805f2:	57                   	push   %edi
  2805f3:	56                   	push   %esi
  2805f4:	53                   	push   %ebx
  2805f5:	52                   	push   %edx
  2805f6:	8b 55 14             	mov    0x14(%ebp),%edx
  2805f9:	0f af 55 0c          	imul   0xc(%ebp),%edx
  2805fd:	8b 45 10             	mov    0x10(%ebp),%eax
  280600:	03 45 08             	add    0x8(%ebp),%eax
  280603:	8a 5d 18             	mov    0x18(%ebp),%bl
  280606:	01 d0                	add    %edx,%eax
  int row,col;
  unsigned short  d;
  unsigned short *pt=(unsigned short *)(font-32*24);
  for(row=0;row<24;row++)
  280608:	31 d2                	xor    %edx,%edx
  28060a:	89 45 f0             	mov    %eax,-0x10(%ebp)
  {
    d=pt[row];
    for(col=0;col<16;col++)
    {
       if( (d&(1 << col) ))
  28060d:	8b 7d 1c             	mov    0x1c(%ebp),%edi
  280610:	8b 45 f0             	mov    -0x10(%ebp),%eax
  280613:	0f b7 bc 57 00 fa ff 	movzwl -0x600(%edi,%edx,2),%edi
  28061a:	ff 
  28061b:	8d 34 01             	lea    (%ecx,%eax,1),%esi
  unsigned short  d;
  unsigned short *pt=(unsigned short *)(font-32*24);
  for(row=0;row<24;row++)
  {
    d=pt[row];
    for(col=0;col<16;col++)
  28061e:	31 c0                	xor    %eax,%eax
    {
       if( (d&(1 << col) ))
  280620:	0f a3 c7             	bt     %eax,%edi
  280623:	73 03                	jae    280628 <putfont16+0x3b>
     // if((d<<col)&0x0001)
      {
	vram[(y+row)*xsize+x+col]=color;
  280625:	88 1c 06             	mov    %bl,(%esi,%eax,1)
  unsigned short  d;
  unsigned short *pt=(unsigned short *)(font-32*24);
  for(row=0;row<24;row++)
  {
    d=pt[row];
    for(col=0;col<16;col++)
  280628:	40                   	inc    %eax
  280629:	83 f8 10             	cmp    $0x10,%eax
  28062c:	75 f2                	jne    280620 <putfont16+0x33>
void putfont16(char *vram ,int xsize,int x,int y,char color,unsigned short *font)//x=0 311 y=0 183
{
  int row,col;
  unsigned short  d;
  unsigned short *pt=(unsigned short *)(font-32*24);
  for(row=0;row<24;row++)
  28062e:	42                   	inc    %edx
  28062f:	03 4d 0c             	add    0xc(%ebp),%ecx
  280632:	83 fa 18             	cmp    $0x18,%edx
  280635:	75 d6                	jne    28060d <putfont16+0x20>
    }
    
  }
  return;
  
}
  280637:	58                   	pop    %eax
  280638:	5b                   	pop    %ebx
  280639:	5e                   	pop    %esi
  28063a:	5f                   	pop    %edi
  28063b:	5d                   	pop    %ebp
  28063c:	c3                   	ret    

0028063d <puts16>:
  return;
  
}
//print string: big string
void puts16(char *vram ,int xsize,int x,int y,char color,char *font)
{
  28063d:	55                   	push   %ebp
  28063e:	89 e5                	mov    %esp,%ebp
  280640:	57                   	push   %edi
  280641:	8b 7d 10             	mov    0x10(%ebp),%edi
  280644:	56                   	push   %esi
  280645:	8b 75 14             	mov    0x14(%ebp),%esi
  280648:	53                   	push   %ebx
      
    }
    else
    {
	pt=(unsigned short *)((*font)*24+ASCII_Table);
	putfont16(vram ,xsize,x,y,color,pt);
  280649:	0f be 5d 18          	movsbl 0x18(%ebp),%ebx
}
//print string: big string
void puts16(char *vram ,int xsize,int x,int y,char color,char *font)
{
  unsigned short  *pt;
  while(*font)
  28064d:	8b 45 1c             	mov    0x1c(%ebp),%eax
  280650:	0f be 00             	movsbl (%eax),%eax
  280653:	84 c0                	test   %al,%al
  280655:	74 2d                	je     280684 <puts16+0x47>
  {
    if(*font=='\n')
  280657:	3c 0a                	cmp    $0xa,%al
  280659:	75 07                	jne    280662 <puts16+0x25>
    {
      x=0;
      y=y+24;
  28065b:	83 c6 18             	add    $0x18,%esi
  unsigned short  *pt;
  while(*font)
  {
    if(*font=='\n')
    {
      x=0;
  28065e:	31 ff                	xor    %edi,%edi
  280660:	eb 1d                	jmp    28067f <puts16+0x42>
      y=y+24;
      
    }
    else
    {
	pt=(unsigned short *)((*font)*24+ASCII_Table);
  280662:	6b c0 30             	imul   $0x30,%eax,%eax
  280665:	05 f4 10 28 00       	add    $0x2810f4,%eax
	putfont16(vram ,xsize,x,y,color,pt);
  28066a:	50                   	push   %eax
  28066b:	53                   	push   %ebx
  28066c:	56                   	push   %esi
  28066d:	57                   	push   %edi
	x=x+16;
  28066e:	83 c7 10             	add    $0x10,%edi
      
    }
    else
    {
	pt=(unsigned short *)((*font)*24+ASCII_Table);
	putfont16(vram ,xsize,x,y,color,pt);
  280671:	ff 75 0c             	pushl  0xc(%ebp)
  280674:	ff 75 08             	pushl  0x8(%ebp)
  280677:	e8 71 ff ff ff       	call   2805ed <putfont16>
	x=x+16;
  28067c:	83 c4 18             	add    $0x18,%esp
	   
	   
    }
    
     font++;
  28067f:	ff 45 1c             	incl   0x1c(%ebp)
  280682:	eb c9                	jmp    28064d <puts16+0x10>
      
  }
  
}
  280684:	8d 65 f4             	lea    -0xc(%ebp),%esp
  280687:	5b                   	pop    %ebx
  280688:	5e                   	pop    %esi
  280689:	5f                   	pop    %edi
  28068a:	5d                   	pop    %ebp
  28068b:	c3                   	ret    

0028068c <setgdt>:
#include<header.h>



void setgdt(struct GDT *sd ,unsigned int limit,int base,int access)//sd: selector describe
{
  28068c:	55                   	push   %ebp
  28068d:	89 e5                	mov    %esp,%ebp
  28068f:	8b 55 0c             	mov    0xc(%ebp),%edx
  280692:	57                   	push   %edi
  280693:	8b 45 08             	mov    0x8(%ebp),%eax
  280696:	56                   	push   %esi
  280697:	8b 7d 14             	mov    0x14(%ebp),%edi
  28069a:	53                   	push   %ebx
  28069b:	8b 5d 10             	mov    0x10(%ebp),%ebx
  if(limit>0xffff)
  28069e:	81 fa ff ff 00 00    	cmp    $0xffff,%edx
  2806a4:	76 09                	jbe    2806af <setgdt+0x23>
  {
    access|=0x8000;
  2806a6:	81 cf 00 80 00 00    	or     $0x8000,%edi
    limit /=0x1000;
  2806ac:	c1 ea 0c             	shr    $0xc,%edx
  }
  sd->limit_low=limit&0xffff;
  sd->base_low=base &0xffff;
  sd->base_mid=(base>>16)&0xff;
  2806af:	89 de                	mov    %ebx,%esi
  2806b1:	c1 fe 10             	sar    $0x10,%esi
  2806b4:	89 f1                	mov    %esi,%ecx
  2806b6:	88 48 04             	mov    %cl,0x4(%eax)
  sd->access_right=access&0xff;
  2806b9:	89 f9                	mov    %edi,%ecx
  sd->limit_high=((limit>>16)&0x0f)|((access>>8)&0xf0);//低４位是limt的高位，高４位是访问的权限设置。
  2806bb:	c1 ff 08             	sar    $0x8,%edi
    limit /=0x1000;
  }
  sd->limit_low=limit&0xffff;
  sd->base_low=base &0xffff;
  sd->base_mid=(base>>16)&0xff;
  sd->access_right=access&0xff;
  2806be:	88 48 05             	mov    %cl,0x5(%eax)
  sd->limit_high=((limit>>16)&0x0f)|((access>>8)&0xf0);//低４位是limt的高位，高４位是访问的权限设置。
  2806c1:	89 f9                	mov    %edi,%ecx
  if(limit>0xffff)
  {
    access|=0x8000;
    limit /=0x1000;
  }
  sd->limit_low=limit&0xffff;
  2806c3:	66 89 10             	mov    %dx,(%eax)
  sd->base_low=base &0xffff;
  sd->base_mid=(base>>16)&0xff;
  sd->access_right=access&0xff;
  sd->limit_high=((limit>>16)&0x0f)|((access>>8)&0xf0);//低４位是limt的高位，高４位是访问的权限设置。
  2806c6:	83 e1 f0             	and    $0xfffffff0,%ecx
  2806c9:	c1 ea 10             	shr    $0x10,%edx
  {
    access|=0x8000;
    limit /=0x1000;
  }
  sd->limit_low=limit&0xffff;
  sd->base_low=base &0xffff;
  2806cc:	66 89 58 02          	mov    %bx,0x2(%eax)
  sd->base_mid=(base>>16)&0xff;
  sd->access_right=access&0xff;
  sd->limit_high=((limit>>16)&0x0f)|((access>>8)&0xf0);//低４位是limt的高位，高４位是访问的权限设置。
  2806d0:	09 d1                	or     %edx,%ecx
  sd->base_high=(base>>24)&0xff;
  2806d2:	c1 eb 18             	shr    $0x18,%ebx
  }
  sd->limit_low=limit&0xffff;
  sd->base_low=base &0xffff;
  sd->base_mid=(base>>16)&0xff;
  sd->access_right=access&0xff;
  sd->limit_high=((limit>>16)&0x0f)|((access>>8)&0xf0);//低４位是limt的高位，高４位是访问的权限设置。
  2806d5:	88 48 06             	mov    %cl,0x6(%eax)
  sd->base_high=(base>>24)&0xff;
  2806d8:	88 58 07             	mov    %bl,0x7(%eax)
  
}
  2806db:	5b                   	pop    %ebx
  2806dc:	5e                   	pop    %esi
  2806dd:	5f                   	pop    %edi
  2806de:	5d                   	pop    %ebp
  2806df:	c3                   	ret    

002806e0 <setidt>:

void setidt(struct IDT *gd,int offset,int selector,int access)//gd: gate describe
{
  2806e0:	55                   	push   %ebp
  2806e1:	89 e5                	mov    %esp,%ebp
  2806e3:	8b 45 08             	mov    0x8(%ebp),%eax
  2806e6:	8b 4d 0c             	mov    0xc(%ebp),%ecx
  2806e9:	8b 55 14             	mov    0x14(%ebp),%edx
  //idt中有32位的offset address
  gd->offset_low=offset & 0xffff;
  2806ec:	66 89 08             	mov    %cx,(%eax)
  gd->offset_high=(offset>>16)&0xffff;
  2806ef:	c1 e9 10             	shr    $0x10,%ecx
  2806f2:	66 89 48 06          	mov    %cx,0x6(%eax)
  
  //16位的selector决定了base address
  gd->selector=selector;
  2806f6:	8b 4d 10             	mov    0x10(%ebp),%ecx
  
  gd->dw_count=(access>>8)&0xff;
  gd->access_right=(char)(access&0xff);//晕倒啊，是不是啊，天啊，访问权限是一个非常重要的量，错一点都不行的
  2806f9:	88 50 05             	mov    %dl,0x5(%eax)
  //idt中有32位的offset address
  gd->offset_low=offset & 0xffff;
  gd->offset_high=(offset>>16)&0xffff;
  
  //16位的selector决定了base address
  gd->selector=selector;
  2806fc:	66 89 48 02          	mov    %cx,0x2(%eax)
  
  gd->dw_count=(access>>8)&0xff;
  280700:	89 d1                	mov    %edx,%ecx
  280702:	c1 f9 08             	sar    $0x8,%ecx
  280705:	88 48 04             	mov    %cl,0x4(%eax)
  gd->access_right=(char)(access&0xff);//晕倒啊，是不是啊，天啊，访问权限是一个非常重要的量，错一点都不行的
  
  
}
  280708:	5d                   	pop    %ebp
  280709:	c3                   	ret    

0028070a <init_gdtidt>:



void  init_gdtidt()
{
  28070a:	55                   	push   %ebp
  28070b:	89 e5                	mov    %esp,%ebp
  28070d:	53                   	push   %ebx
  28070e:	53                   	push   %ebx
  28070f:	bb 00 00 27 00       	mov    $0x270000,%ebx
  struct GDT *gdt=(struct GDT *)(0x00270000);
  struct IDT *idt=(struct IDT *)(0x0026f800);
  int i;
  for(i=0;i<8192;i++)
  {
    setgdt(gdt+i,0,0,0);
  280714:	6a 00                	push   $0x0
  280716:	6a 00                	push   $0x0
  280718:	6a 00                	push   $0x0
  28071a:	53                   	push   %ebx
  28071b:	83 c3 08             	add    $0x8,%ebx
  28071e:	e8 69 ff ff ff       	call   28068c <setgdt>
void  init_gdtidt()
{
  struct GDT *gdt=(struct GDT *)(0x00270000);
  struct IDT *idt=(struct IDT *)(0x0026f800);
  int i;
  for(i=0;i<8192;i++)
  280723:	83 c4 10             	add    $0x10,%esp
  280726:	81 fb 00 00 28 00    	cmp    $0x280000,%ebx
  28072c:	75 e6                	jne    280714 <init_gdtidt+0xa>
  {
    setgdt(gdt+i,0,0,0);
  }
  setgdt(gdt+1,0xffffffff   ,0x00000000,0x4092);//entry.s main.c data 4GB空间的数据都能访问
  28072e:	68 92 40 00 00       	push   $0x4092
  280733:	6a 00                	push   $0x0
  280735:	6a ff                	push   $0xffffffff
  280737:	68 08 00 27 00       	push   $0x270008
  28073c:	e8 4b ff ff ff       	call   28068c <setgdt>
  setgdt(gdt+2,0x000fffff   ,0x00000000,0x409a);//entry.S code
  280741:	68 9a 40 00 00       	push   $0x409a
  280746:	6a 00                	push   $0x0
  280748:	68 ff ff 0f 00       	push   $0xfffff
  28074d:	68 10 00 27 00       	push   $0x270010
  280752:	e8 35 ff ff ff       	call   28068c <setgdt>
  setgdt(gdt+3,0x000fffff   ,0x00280000,0x409a);  //main.c code　 0x7ffff=512kB
  280757:	83 c4 20             	add    $0x20,%esp
  28075a:	68 9a 40 00 00       	push   $0x409a
  28075f:	68 00 00 28 00       	push   $0x280000
  280764:	68 ff ff 0f 00       	push   $0xfffff
  280769:	68 18 00 27 00       	push   $0x270018
  28076e:	e8 19 ff ff ff       	call   28068c <setgdt>

   load_gdtr(0xfff,0X00270000);//this is right
  280773:	5a                   	pop    %edx
  280774:	59                   	pop    %ecx
  280775:	68 00 00 27 00       	push   $0x270000
  28077a:	68 ff 0f 00 00       	push   $0xfff
  28077f:	e8 4f 01 00 00       	call   2808d3 <load_gdtr>
  280784:	83 c4 10             	add    $0x10,%esp
  280787:	31 c0                	xor    %eax,%eax
}

void setidt(struct IDT *gd,int offset,int selector,int access)//gd: gate describe
{
  //idt中有32位的offset address
  gd->offset_low=offset & 0xffff;
  280789:	66 c7 80 00 f8 26 00 	movw   $0x0,0x26f800(%eax)
  280790:	00 00 
  280792:	83 c0 08             	add    $0x8,%eax
  gd->offset_high=(offset>>16)&0xffff;
  280795:	66 c7 80 fe f7 26 00 	movw   $0x0,0x26f7fe(%eax)
  28079c:	00 00 
  
  //16位的selector决定了base address
  gd->selector=selector;
  28079e:	66 c7 80 fa f7 26 00 	movw   $0x0,0x26f7fa(%eax)
  2807a5:	00 00 
  
  gd->dw_count=(access>>8)&0xff;
  2807a7:	c6 80 fc f7 26 00 00 	movb   $0x0,0x26f7fc(%eax)
  gd->access_right=(char)(access&0xff);//晕倒啊，是不是啊，天啊，访问权限是一个非常重要的量，错一点都不行的
  2807ae:	c6 80 fd f7 26 00 00 	movb   $0x0,0x26f7fd(%eax)
  setgdt(gdt+2,0x000fffff   ,0x00000000,0x409a);//entry.S code
  setgdt(gdt+3,0x000fffff   ,0x00280000,0x409a);  //main.c code　 0x7ffff=512kB

   load_gdtr(0xfff,0X00270000);//this is right

  for(i=0;i<256;i++)
  2807b5:	3d 00 08 00 00       	cmp    $0x800,%eax
  2807ba:	75 cd                	jne    280789 <init_gdtidt+0x7f>

void setidt(struct IDT *gd,int offset,int selector,int access)//gd: gate describe
{
  //idt中有32位的offset address
  gd->offset_low=offset & 0xffff;
  gd->offset_high=(offset>>16)&0xffff;
  2807bc:	ba b8 08 28 00       	mov    $0x2808b8,%edx
  2807c1:	66 31 c0             	xor    %ax,%ax
  2807c4:	c1 ea 10             	shr    $0x10,%edx
}

void setidt(struct IDT *gd,int offset,int selector,int access)//gd: gate describe
{
  //idt中有32位的offset address
  gd->offset_low=offset & 0xffff;
  2807c7:	b9 b8 08 28 00       	mov    $0x2808b8,%ecx
  2807cc:	66 89 88 00 f8 26 00 	mov    %cx,0x26f800(%eax)
  2807d3:	83 c0 08             	add    $0x8,%eax
  gd->offset_high=(offset>>16)&0xffff;
  2807d6:	66 89 90 fe f7 26 00 	mov    %dx,0x26f7fe(%eax)
  
  //16位的selector决定了base address
  gd->selector=selector;
  2807dd:	66 c7 80 fa f7 26 00 	movw   $0x18,0x26f7fa(%eax)
  2807e4:	18 00 
  
  gd->dw_count=(access>>8)&0xff;
  2807e6:	c6 80 fc f7 26 00 00 	movb   $0x0,0x26f7fc(%eax)
  gd->access_right=(char)(access&0xff);//晕倒啊，是不是啊，天啊，访问权限是一个非常重要的量，错一点都不行的
  2807ed:	c6 80 fd f7 26 00 8e 	movb   $0x8e,0x26f7fd(%eax)
  for(i=0;i<256;i++)
  {
    setidt(idt+i,0,0,0);
  }
  
  for(i=0;i<256;i++)
  2807f4:	3d 00 08 00 00       	cmp    $0x800,%eax
  2807f9:	75 d1                	jne    2807cc <init_gdtidt+0xc2>
  {
      setidt(idt+i,(int)asm_inthandler21,3*8,0x008e);//用printdebug显示之后，证明这一部分是写进去了
    
  }
  setidt(idt+0x21,(int)asm_inthandler21-0x280000,3*8,0x008e);//用printdebug显示之后，证明这一部分是写进去了
  2807fb:	b8 b8 08 00 00       	mov    $0x8b8,%eax
}

void setidt(struct IDT *gd,int offset,int selector,int access)//gd: gate describe
{
  //idt中有32位的offset address
  gd->offset_low=offset & 0xffff;
  280800:	66 a3 08 f9 26 00    	mov    %ax,0x26f908
  gd->offset_high=(offset>>16)&0xffff;
  280806:	c1 e8 10             	shr    $0x10,%eax
  280809:	66 a3 0e f9 26 00    	mov    %ax,0x26f90e
  
  //16位的selector决定了base address
  gd->selector=selector;
  28080f:	66 c7 05 0a f9 26 00 	movw   $0x18,0x26f90a
  280816:	18 00 
  
  gd->dw_count=(access>>8)&0xff;
  280818:	c6 05 0c f9 26 00 00 	movb   $0x0,0x26f90c
  gd->access_right=(char)(access&0xff);//晕倒啊，是不是啊，天啊，访问权限是一个非常重要的量，错一点都不行的
  28081f:	c6 05 0d f9 26 00 8e 	movb   $0x8e,0x26f90d
      setidt(idt+i,(int)asm_inthandler21,3*8,0x008e);//用printdebug显示之后，证明这一部分是写进去了
    
  }
  setidt(idt+0x21,(int)asm_inthandler21-0x280000,3*8,0x008e);//用printdebug显示之后，证明这一部分是写进去了

  load_idtr(0x7ff,0x0026f800);//this is right
  280826:	50                   	push   %eax
  280827:	50                   	push   %eax
  280828:	68 00 f8 26 00       	push   $0x26f800
  28082d:	68 ff 07 00 00       	push   $0x7ff
  280832:	e8 ac 00 00 00       	call   2808e3 <load_idtr>
  280837:	83 c4 10             	add    $0x10,%esp

  return;

}
  28083a:	8b 5d fc             	mov    -0x4(%ebp),%ebx
  28083d:	c9                   	leave  
  28083e:	c3                   	ret    

0028083f <init_pic>:
#define PIC1_ICW4		0x00a1
*/


void init_pic()
{
  28083f:	55                   	push   %ebp
// out:write a data to a port
static __inline void
outb(int port, uint8_t data)
{
  //data是变量0%0 , port是变量word１%w1
	__asm __volatile("outb %0,%w1" : : "a" (data), "d" (port));
  280840:	ba 21 00 00 00       	mov    $0x21,%edx
  280845:	89 e5                	mov    %esp,%ebp
  280847:	b0 ff                	mov    $0xff,%al
  280849:	ee                   	out    %al,(%dx)
  28084a:	b2 a1                	mov    $0xa1,%dl
  28084c:	ee                   	out    %al,(%dx)
  28084d:	b0 11                	mov    $0x11,%al
  28084f:	b2 20                	mov    $0x20,%dl
  280851:	ee                   	out    %al,(%dx)
  280852:	b0 20                	mov    $0x20,%al
  280854:	b2 21                	mov    $0x21,%dl
  280856:	ee                   	out    %al,(%dx)
  280857:	b0 04                	mov    $0x4,%al
  280859:	ee                   	out    %al,(%dx)
  28085a:	b0 01                	mov    $0x1,%al
  28085c:	ee                   	out    %al,(%dx)
  28085d:	b0 11                	mov    $0x11,%al
  28085f:	b2 a0                	mov    $0xa0,%dl
  280861:	ee                   	out    %al,(%dx)
  280862:	b0 28                	mov    $0x28,%al
  280864:	b2 a1                	mov    $0xa1,%dl
  280866:	ee                   	out    %al,(%dx)
  280867:	b0 02                	mov    $0x2,%al
  280869:	ee                   	out    %al,(%dx)
  28086a:	b0 01                	mov    $0x1,%al
  28086c:	ee                   	out    %al,(%dx)
  28086d:	b0 fb                	mov    $0xfb,%al
  28086f:	b2 21                	mov    $0x21,%dl
  280871:	ee                   	out    %al,(%dx)
  280872:	b0 ff                	mov    $0xff,%al
  280874:	b2 a1                	mov    $0xa1,%dl
  280876:	ee                   	out    %al,(%dx)

所以cpu发现是产生了int 0到int0x1f时，就知道是非常重要的中断产生了，是不可mask的，一定要执行的。

   */

}
  280877:	5d                   	pop    %ebp
  280878:	c3                   	ret    

00280879 <inthandler21>:

//interrupt service procedure for keyboard
void inthandler21(int *esp)
{
  280879:	55                   	push   %ebp
  28087a:	89 e5                	mov    %esp,%ebp
  28087c:	83 ec 14             	sub    $0x14,%esp
  struct  boot_info *binfo=(struct boot_info *)ADDR_BOOT;
  boxfill(0,0,0,32*8-1,15);//一个黑色的小box
  28087f:	6a 0f                	push   $0xf
  280881:	68 ff 00 00 00       	push   $0xff
  280886:	6a 00                	push   $0x0
  280888:	6a 00                	push   $0x0
  28088a:	6a 00                	push   $0x0
  28088c:	e8 ce f8 ff ff       	call   28015f <boxfill>
  puts8((char *)binfo->vram ,binfo->xsize,0,0,7,"int 21(IRQ-1):PS/2 keyboard");
  280891:	83 c4 18             	add    $0x18,%esp
  280894:	68 a9 27 28 00       	push   $0x2827a9
  280899:	6a 07                	push   $0x7
  28089b:	6a 00                	push   $0x0
  28089d:	6a 00                	push   $0x0
  28089f:	0f bf 05 f4 0f 00 00 	movswl 0xff4,%eax
  2808a6:	50                   	push   %eax
  2808a7:	ff 35 f8 0f 00 00    	pushl  0xff8
  2808ad:	e8 9d fc ff ff       	call   28054f <puts8>
  2808b2:	83 c4 20             	add    $0x20,%esp
  while(1)
  io_halt();
  2808b5:	f4                   	hlt    
  2808b6:	eb fd                	jmp    2808b5 <inthandler21+0x3c>

002808b8 <asm_inthandler21>:
.global asm_inthandler21
.global load_gdtr 
.global load_idtr
.code32
asm_inthandler21:
  pushw %es
  2808b8:	66 06                	pushw  %es
  pushw %ds
  2808ba:	66 1e                	pushw  %ds
  pushal
  2808bc:	60                   	pusha  
  movl %esp,%eax
  2808bd:	89 e0                	mov    %esp,%eax
  pushl %eax
  2808bf:	50                   	push   %eax
  movw %ss,%ax
  2808c0:	66 8c d0             	mov    %ss,%ax
  movw %ax,%ds
  2808c3:	8e d8                	mov    %eax,%ds
  movw %ax,%es
  2808c5:	8e c0                	mov    %eax,%es
  call inthandler21
  2808c7:	e8 ad ff ff ff       	call   280879 <inthandler21>
  
  popl %eax
  2808cc:	58                   	pop    %eax
  popal
  2808cd:	61                   	popa   
  popw %ds
  2808ce:	66 1f                	popw   %ds
  popW %es
  2808d0:	66 07                	popw   %es
  iret
  2808d2:	cf                   	iret   

002808d3 <load_gdtr>:
load_gdtr:		#; void load_gdtr(int limit, int addr);
  mov 4(%esp) ,%ax
  2808d3:	66 8b 44 24 04       	mov    0x4(%esp),%ax
  mov %ax,6(%esp)
  2808d8:	66 89 44 24 06       	mov    %ax,0x6(%esp)
  lgdt 6(%esp)
  2808dd:	0f 01 54 24 06       	lgdtl  0x6(%esp)
  ret
  2808e2:	c3                   	ret    

002808e3 <load_idtr>:


load_idtr:		#; void load_idtr(int limit, int addr);
  mov 4(%esp) ,%ax
  2808e3:	66 8b 44 24 04       	mov    0x4(%esp),%ax
  mov %ax,6(%esp)
  2808e8:	66 89 44 24 06       	mov    %ax,0x6(%esp)
  lidt 6(%esp)
  2808ed:	0f 01 5c 24 06       	lidtl  0x6(%esp)
  2808f2:	c3                   	ret    
