
ckernel.out:     file format elf32-i386


Disassembly of section .text:

00280000 <bootmain>:
#define black 0
#define red   1
#define green 2

void bootmain(void)
{
  280000:	55                   	push   %ebp
  280001:	89 e5                	mov    %esp,%ebp
  280003:	57                   	push   %edi
  280004:	56                   	push   %esi
  280005:	53                   	push   %ebx
  280006:	81 ec 18 02 00 00    	sub    $0x218,%esp

struct boot_info *bootp=(struct boot_info *)ADDR_BOOT;
clear_screen(40);   	//red
  28000c:	6a 28                	push   $0x28
  28000e:	e8 fb 04 00 00       	call   28050e <clear_screen>
init_screen((struct boot_info * )bootp);
  280013:	c7 04 24 f0 0f 00 00 	movl   $0xff0,(%esp)
  28001a:	e8 fd 08 00 00       	call   28091c <init_screen>
init_palette();  //color table from 0 to 15
  28001f:	e8 53 05 00 00       	call   280577 <init_palette>

static __inline void
cli(void)
{

	__asm __volatile("cli");
  280024:	fa                   	cli    

//display_mouse(bootp->vram,bootp->xsize,16,16,mx,my,mousepic,16);
cli();

//set gdt idt
init_gdtidt();
  280025:	e8 61 0e 00 00       	call   280e8b <init_gdtidt>
//remap irq 0-15
//函数中：　irq 1(keyboard)对应设置中断号int0x21,    irq　12(mouse)对应的中断号是int0x2c 要写中断服务程序了。
init_pic();
  28002a:	e8 bc 0f 00 00       	call   280feb <init_pic>
unsigned char s[40];		    //sprintf buffer
unsigned char keybuf[32];	    //keyfifo
unsigned char mousebuf[128];	//mousefifo
unsigned char data;		        //temp variable to get fifo data
int count=0;
fifo8_init(&keyfifo ,32,keybuf);//keyfifo是一个global data defined in int.c
  28002f:	83 c4 0c             	add    $0xc,%esp
  280032:	8d 85 20 fe ff ff    	lea    -0x1e0(%ebp),%eax
  280038:	50                   	push   %eax
  280039:	6a 20                	push   $0x20
  28003b:	68 20 3e 28 00       	push   $0x283e20
  280040:	e8 b1 10 00 00       	call   2810f6 <fifo8_init>
fifo8_init(&mousefifo,128,mousebuf);
  280045:	83 c4 0c             	add    $0xc,%esp
  280048:	8d 85 68 fe ff ff    	lea    -0x198(%ebp),%eax
  28004e:	50                   	push   %eax
  28004f:	68 80 00 00 00       	push   $0x80
  280054:	68 38 3e 28 00       	push   $0x283e38
  280059:	e8 98 10 00 00       	call   2810f6 <fifo8_init>
// out:write a data to a port
static __inline void
outb(int port, uint8_t data)
{
  //data是变量0%0 , port是变量word１%w1
	__asm __volatile("outb %0,%w1" : : "a" (data), "d" (port));
  28005e:	ba 21 00 00 00       	mov    $0x21,%edx
  280063:	b0 f9                	mov    $0xf9,%al
  280065:	ee                   	out    %al,(%dx)
  280066:	b0 ef                	mov    $0xef,%al
  280068:	b2 a1                	mov    $0xa1,%dl
  28006a:	ee                   	out    %al,(%dx)
//enable keyboard and mouse
outb(PIC0_IMR, 0xf9);	//1111 1001  irq 1 2打开 因为keyboard是irq 1                                  // enable pic slave and keyboard interrupt
outb(PIC1_IMR, 0xef);	//1110 1111  irq 12 打开　mouse是irq 12  所以要把pic 1 pic 2的芯片中断响应位打开。 //enable mouse interrupt

//初始化　鼠标按键控制电路
init_keyboard();
  28006b:	e8 11 10 00 00       	call   281081 <init_keyboard>

static __inline void
sti(void)
{

	__asm __volatile("sti");
  280070:	fb                   	sti    

//enable cpu interrupt
sti();

struct MOUSE_DEC mdec;
enable_mouse(&mdec);   //这里会产生一个mouse interrupt
  280071:	8d 95 10 fe ff ff    	lea    -0x1f0(%ebp),%edx
  280077:	89 14 24             	mov    %edx,(%esp)
  28007a:	89 95 ec fd ff ff    	mov    %edx,-0x214(%ebp)
  280080:	e8 1d 11 00 00       	call   2811a2 <enable_mouse>

unsigned int memtotal;
//get the total memory
memtotal=memtest(0x400000,0xffffffff);
  280085:	58                   	pop    %eax
  280086:	5a                   	pop    %edx
  280087:	6a ff                	push   $0xffffffff
  280089:	68 00 00 40 00       	push   $0x400000
  28008e:	e8 00 12 00 00       	call   281293 <memtest>
//mem=mem>>20; //convert to MBytes
//sprintf(s,"memory:%dMbytes",mem);
//puts8((char *)bootp->vram ,bootp->xsize,0,100,0,s);
Memman * memman=(Memman *)0x3c0000;
memman_init(memman);
  280093:	c7 04 24 00 00 3c 00 	movl   $0x3c0000,(%esp)
struct MOUSE_DEC mdec;
enable_mouse(&mdec);   //这里会产生一个mouse interrupt

unsigned int memtotal;
//get the total memory
memtotal=memtest(0x400000,0xffffffff);
  28009a:	89 c6                	mov    %eax,%esi
//mem=mem>>20; //convert to MBytes
//sprintf(s,"memory:%dMbytes",mem);
//puts8((char *)bootp->vram ,bootp->xsize,0,100,0,s);
Memman * memman=(Memman *)0x3c0000;
memman_init(memman);
  28009c:	e8 40 12 00 00       	call   2812e1 <memman_init>
//memman_free(memman,0x1000,0x9e000);
memman_free(memman,0x400000,memtotal-0x400000);
  2800a1:	83 c4 0c             	add    $0xc,%esp
  2800a4:	8d 86 00 00 c0 ff    	lea    -0x400000(%esi),%eax
  2800aa:	50                   	push   %eax
  2800ab:	68 00 00 40 00       	push   $0x400000
  2800b0:	68 00 00 3c 00       	push   $0x3c0000
  2800b5:	e8 d9 12 00 00       	call   281393 <memman_free>
draw_win_buf(desktop);
make_window8(win_buf,160,68,"counter");
init_mouse(mousepic,99);	//99　means background color


sprintf(s,"memory:%dMB,free:%dMB,%d",memtotal>>20
  2800ba:	c1 ee 14             	shr    $0x14,%esi
memman_init(memman);
//memman_free(memman,0x1000,0x9e000);
memman_free(memman,0x400000,memtotal-0x400000);
//memman_free(memman,0x600000,0x400000);
//memman_free(memman,0xb00000,0x400000);
char *desktop=(unsigned char*)memman_alloc(memman,320*200);
  2800bd:	59                   	pop    %ecx
  2800be:	5b                   	pop    %ebx
  2800bf:	68 00 fa 00 00       	push   $0xfa00
  2800c4:	68 00 00 3c 00       	push   $0x3c0000
  2800c9:	e8 51 12 00 00       	call   28131f <memman_alloc>
char *win_buf=(unsigned char*)memman_alloc_4K(memman,160*65);
  2800ce:	5f                   	pop    %edi
memman_init(memman);
//memman_free(memman,0x1000,0x9e000);
memman_free(memman,0x400000,memtotal-0x400000);
//memman_free(memman,0x600000,0x400000);
//memman_free(memman,0xb00000,0x400000);
char *desktop=(unsigned char*)memman_alloc(memman,320*200);
  2800cf:	89 c3                	mov    %eax,%ebx
char *win_buf=(unsigned char*)memman_alloc_4K(memman,160*65);
  2800d1:	58                   	pop    %eax
  2800d2:	68 a0 28 00 00       	push   $0x28a0
  2800d7:	68 00 00 3c 00       	push   $0x3c0000
  2800dc:	e8 99 12 00 00       	call   28137a <memman_alloc_4K>

draw_win_buf(desktop);
  2800e1:	89 1c 24             	mov    %ebx,(%esp)
//memman_free(memman,0x1000,0x9e000);
memman_free(memman,0x400000,memtotal-0x400000);
//memman_free(memman,0x600000,0x400000);
//memman_free(memman,0xb00000,0x400000);
char *desktop=(unsigned char*)memman_alloc(memman,320*200);
char *win_buf=(unsigned char*)memman_alloc_4K(memman,160*65);
  2800e4:	89 c7                	mov    %eax,%edi

draw_win_buf(desktop);
  2800e6:	e8 14 05 00 00       	call   2805ff <draw_win_buf>
make_window8(win_buf,160,68,"counter");
  2800eb:	68 29 36 28 00       	push   $0x283629
  2800f0:	6a 44                	push   $0x44
  2800f2:	68 a0 00 00 00       	push   $0xa0
  2800f7:	57                   	push   %edi
  2800f8:	89 bd 04 fe ff ff    	mov    %edi,-0x1fc(%ebp)
  2800fe:	e8 c1 08 00 00       	call   2809c4 <make_window8>
init_mouse(mousepic,99);	//99　means background color
  280103:	83 c4 18             	add    $0x18,%esp
  280106:	8d 8d e8 fe ff ff    	lea    -0x118(%ebp),%ecx
  28010c:	6a 63                	push   $0x63
  28010e:	51                   	push   %ecx
  28010f:	89 8d 00 fe ff ff    	mov    %ecx,-0x200(%ebp)
  280115:	e8 21 08 00 00       	call   28093b <init_mouse>


sprintf(s,"memory:%dMB,free:%dMB,%d",memtotal>>20
  28011a:	8b 3d 00 00 3c 00    	mov    0x3c0000,%edi
,memman_avail(memman)>>20,memman->cellnum);
  280120:	c7 04 24 00 00 3c 00 	movl   $0x3c0000,(%esp)
  280127:	e8 d8 11 00 00       	call   281304 <memman_avail>
draw_win_buf(desktop);
make_window8(win_buf,160,68,"counter");
init_mouse(mousepic,99);	//99　means background color


sprintf(s,"memory:%dMB,free:%dMB,%d",memtotal>>20
  28012c:	89 3c 24             	mov    %edi,(%esp)
  28012f:	c1 e8 14             	shr    $0x14,%eax
  280132:	50                   	push   %eax
  280133:	56                   	push   %esi
  280134:	68 08 36 28 00       	push   $0x283608
  280139:	8d b5 40 fe ff ff    	lea    -0x1c0(%ebp),%esi
  28013f:	56                   	push   %esi
  280140:	e8 93 0a 00 00       	call   280bd8 <sprintf>
,memman_avail(memman)>>20,memman->cellnum);
puts8(desktop ,bootp->xsize,0,100,0,s);
  280145:	83 c4 18             	add    $0x18,%esp
  280148:	56                   	push   %esi
  280149:	6a 00                	push   $0x0
  28014b:	6a 64                	push   $0x64
  28014d:	6a 00                	push   $0x0
  28014f:	0f bf 05 f4 0f 00 00 	movswl 0xff4,%eax
  280156:	50                   	push   %eax
  280157:	53                   	push   %ebx
  280158:	e8 76 0b 00 00       	call   280cd3 <puts8>

SHTCTL *shtctl;
shtctl=shtctl_init(memman,bootp->vram,bootp->xsize,bootp->ysize);
  28015d:	0f bf 05 f6 0f 00 00 	movswl 0xff6,%eax
  280164:	83 c4 20             	add    $0x20,%esp
  280167:	50                   	push   %eax
  280168:	0f bf 05 f4 0f 00 00 	movswl 0xff4,%eax
  28016f:	50                   	push   %eax
  280170:	ff 35 f8 0f 00 00    	pushl  0xff8
  280176:	68 00 00 3c 00       	push   $0x3c0000
  28017b:	e8 16 13 00 00       	call   281496 <shtctl_init>

SHEET *sht_back,*sht_mouse,*sht_win;
//allocate a sheet space from shtctl
sht_back=sheet_alloc(shtctl);
  280180:	89 04 24             	mov    %eax,(%esp)
sprintf(s,"memory:%dMB,free:%dMB,%d",memtotal>>20
,memman_avail(memman)>>20,memman->cellnum);
puts8(desktop ,bootp->xsize,0,100,0,s);

SHTCTL *shtctl;
shtctl=shtctl_init(memman,bootp->vram,bootp->xsize,bootp->ysize);
  280183:	89 c7                	mov    %eax,%edi

SHEET *sht_back,*sht_mouse,*sht_win;
//allocate a sheet space from shtctl
sht_back=sheet_alloc(shtctl);
  280185:	e8 90 13 00 00       	call   28151a <sheet_alloc>
sht_mouse=sheet_alloc(shtctl);
  28018a:	89 3c 24             	mov    %edi,(%esp)
SHTCTL *shtctl;
shtctl=shtctl_init(memman,bootp->vram,bootp->xsize,bootp->ysize);

SHEET *sht_back,*sht_mouse,*sht_win;
//allocate a sheet space from shtctl
sht_back=sheet_alloc(shtctl);
  28018d:	89 85 f4 fd ff ff    	mov    %eax,-0x20c(%ebp)
sht_mouse=sheet_alloc(shtctl);
  280193:	e8 82 13 00 00       	call   28151a <sheet_alloc>
sht_win=sheet_alloc(shtctl);
  280198:	89 3c 24             	mov    %edi,(%esp)
shtctl=shtctl_init(memman,bootp->vram,bootp->xsize,bootp->ysize);

SHEET *sht_back,*sht_mouse,*sht_win;
//allocate a sheet space from shtctl
sht_back=sheet_alloc(shtctl);
sht_mouse=sheet_alloc(shtctl);
  28019b:	89 85 fc fd ff ff    	mov    %eax,-0x204(%ebp)
sht_win=sheet_alloc(shtctl);
  2801a1:	e8 74 13 00 00       	call   28151a <sheet_alloc>
//puts8(win_buf ,160,24,44,0,"second line");//y=28+16=44



//hoop the buffer with sheet
sheet_setbuf(sht_back,desktop,320,200,-1);
  2801a6:	8b bd f4 fd ff ff    	mov    -0x20c(%ebp),%edi
  2801ac:	c7 04 24 ff ff ff ff 	movl   $0xffffffff,(%esp)
  2801b3:	68 c8 00 00 00       	push   $0xc8
  2801b8:	68 40 01 00 00       	push   $0x140
  2801bd:	53                   	push   %ebx
  2801be:	57                   	push   %edi

SHEET *sht_back,*sht_mouse,*sht_win;
//allocate a sheet space from shtctl
sht_back=sheet_alloc(shtctl);
sht_mouse=sheet_alloc(shtctl);
sht_win=sheet_alloc(shtctl);
  2801bf:	89 85 f8 fd ff ff    	mov    %eax,-0x208(%ebp)
//puts8(win_buf ,160,24,44,0,"second line");//y=28+16=44



//hoop the buffer with sheet
sheet_setbuf(sht_back,desktop,320,200,-1);
  2801c5:	e8 83 13 00 00       	call   28154d <sheet_setbuf>
sheet_setbuf(sht_mouse,mousepic,16,16,99);
  2801ca:	83 c4 14             	add    $0x14,%esp
  2801cd:	8b 8d 00 fe ff ff    	mov    -0x200(%ebp),%ecx
  2801d3:	6a 63                	push   $0x63
  2801d5:	6a 10                	push   $0x10
  2801d7:	6a 10                	push   $0x10
  2801d9:	51                   	push   %ecx
  2801da:	ff b5 fc fd ff ff    	pushl  -0x204(%ebp)
  2801e0:	e8 68 13 00 00       	call   28154d <sheet_setbuf>
sheet_setbuf(sht_win,win_buf,160,65,-1);
  2801e5:	83 c4 14             	add    $0x14,%esp
  2801e8:	6a ff                	push   $0xffffffff
  2801ea:	6a 41                	push   $0x41
  2801ec:	68 a0 00 00 00       	push   $0xa0
  2801f1:	ff b5 04 fe ff ff    	pushl  -0x1fc(%ebp)
  2801f7:	ff b5 f8 fd ff ff    	pushl  -0x208(%ebp)
  2801fd:	e8 4b 13 00 00       	call   28154d <sheet_setbuf>




mx=0;my=0;//set mouse initial position
sheet_move(sht_back,0,0);
  280202:	83 c4 1c             	add    $0x1c,%esp
  280205:	6a 00                	push   $0x0
  280207:	6a 00                	push   $0x0
  280209:	57                   	push   %edi
  28020a:	e8 70 17 00 00       	call   28197f <sheet_move>
sheet_move(sht_mouse,mx,my);
  28020f:	83 c4 0c             	add    $0xc,%esp
  280212:	6a 00                	push   $0x0
  280214:	6a 00                	push   $0x0
  280216:	ff b5 fc fd ff ff    	pushl  -0x204(%ebp)
  28021c:	e8 5e 17 00 00       	call   28197f <sheet_move>
sheet_move(sht_win,80,72);
  280221:	83 c4 0c             	add    $0xc,%esp
  280224:	6a 48                	push   $0x48
  280226:	6a 50                	push   $0x50
  280228:	ff b5 f8 fd ff ff    	pushl  -0x208(%ebp)
  28022e:	e8 4c 17 00 00       	call   28197f <sheet_move>

//set sht_back to layer0 ;set sht_mouse to layer1
sheet_updown(sht_back,0);
  280233:	58                   	pop    %eax
  280234:	5a                   	pop    %edx
  280235:	6a 00                	push   $0x0
  280237:	57                   	push   %edi
  280238:	e8 85 15 00 00       	call   2817c2 <sheet_updown>
sheet_updown(sht_win,1);
  28023d:	59                   	pop    %ecx
  28023e:	58                   	pop    %eax
  28023f:	6a 01                	push   $0x1
  280241:	ff b5 f8 fd ff ff    	pushl  -0x208(%ebp)
  280247:	e8 76 15 00 00       	call   2817c2 <sheet_updown>
sheet_updown(sht_mouse,2);
  28024c:	58                   	pop    %eax
  28024d:	5a                   	pop    %edx
  28024e:	6a 02                	push   $0x2
  280250:	ff b5 fc fd ff ff    	pushl  -0x204(%ebp)
  280256:	e8 67 15 00 00       	call   2817c2 <sheet_updown>
//refresh a specific rectangle
sheet_refresh(sht_back,0,0,bootp->xsize,bootp->ysize);
  28025b:	0f bf 05 f6 0f 00 00 	movswl 0xff6,%eax
  280262:	89 04 24             	mov    %eax,(%esp)
  280265:	0f bf 05 f4 0f 00 00 	movswl 0xff4,%eax
  28026c:	50                   	push   %eax
  28026d:	6a 00                	push   $0x0
  28026f:	6a 00                	push   $0x0
  280271:	57                   	push   %edi
sheet_setbuf(sht_win,win_buf,160,65,-1);




mx=0;my=0;//set mouse initial position
  280272:	31 ff                	xor    %edi,%edi
//set sht_back to layer0 ;set sht_mouse to layer1
sheet_updown(sht_back,0);
sheet_updown(sht_win,1);
sheet_updown(sht_mouse,2);
//refresh a specific rectangle
sheet_refresh(sht_back,0,0,bootp->xsize,bootp->ysize);
  280274:	e8 06 14 00 00       	call   28167f <sheet_refresh>
      }
      else if(fifo8_status(&mousefifo) != 0)//we have mouse interrupt data to process
      {
        data=fifo8_read(&mousefifo);
        sti();
        if(mouse_decode(&mdec,data))
  280279:	8b 95 ec fd ff ff    	mov    -0x214(%ebp),%edx
//set sht_back to layer0 ;set sht_mouse to layer1
sheet_updown(sht_back,0);
sheet_updown(sht_win,1);
sheet_updown(sht_mouse,2);
//refresh a specific rectangle
sheet_refresh(sht_back,0,0,bootp->xsize,bootp->ysize);
  28027f:	83 c4 20             	add    $0x20,%esp

unsigned counter=0;
  280282:	c7 85 f0 fd ff ff 00 	movl   $0x0,-0x210(%ebp)
  280289:	00 00 00 
sheet_setbuf(sht_win,win_buf,160,65,-1);




mx=0;my=0;//set mouse initial position
  28028c:	c7 85 00 fe ff ff 00 	movl   $0x0,-0x200(%ebp)
  280293:	00 00 00 
      }
      else if(fifo8_status(&mousefifo) != 0)//we have mouse interrupt data to process
      {
        data=fifo8_read(&mousefifo);
        sti();
        if(mouse_decode(&mdec,data))
  280296:	89 95 e8 fd ff ff    	mov    %edx,-0x218(%ebp)
 {

    counter++;
   // if(counter==20)
   // counter=0;
    puts8(win_buf ,160,24,28,0,"below a counter");
  28029c:	50                   	push   %eax
  28029d:	50                   	push   %eax
  28029e:	68 21 36 28 00       	push   $0x283621
  2802a3:	6a 00                	push   $0x0
  2802a5:	6a 1c                	push   $0x1c
  2802a7:	6a 18                	push   $0x18
  2802a9:	68 a0 00 00 00       	push   $0xa0
  2802ae:	ff b5 04 fe ff ff    	pushl  -0x1fc(%ebp)

unsigned counter=0;
 while(1)
 {

    counter++;
  2802b4:	ff 85 f0 fd ff ff    	incl   -0x210(%ebp)
   // if(counter==20)
   // counter=0;
    puts8(win_buf ,160,24,28,0,"below a counter");
  2802ba:	e8 14 0a 00 00       	call   280cd3 <puts8>
    sprintf(s,"%d",counter);
  2802bf:	83 c4 1c             	add    $0x1c,%esp
  2802c2:	ff b5 f0 fd ff ff    	pushl  -0x210(%ebp)
  2802c8:	68 1e 36 28 00       	push   $0x28361e
  2802cd:	56                   	push   %esi
  2802ce:	e8 05 09 00 00       	call   280bd8 <sprintf>
    boxfill8(win_buf,160,8,20,44,140,60);
  2802d3:	83 c4 0c             	add    $0xc,%esp
  2802d6:	6a 3c                	push   $0x3c
  2802d8:	68 8c 00 00 00       	push   $0x8c
  2802dd:	6a 2c                	push   $0x2c
  2802df:	6a 14                	push   $0x14
  2802e1:	6a 08                	push   $0x8
  2802e3:	68 a0 00 00 00       	push   $0xa0
  2802e8:	ff b5 04 fe ff ff    	pushl  -0x1fc(%ebp)
  2802ee:	e8 b5 02 00 00       	call   2805a8 <boxfill8>
    puts8(win_buf ,160,20,44,0,s);//y=28+16=44
  2802f3:	83 c4 18             	add    $0x18,%esp
  2802f6:	56                   	push   %esi
  2802f7:	6a 00                	push   $0x0
  2802f9:	6a 2c                	push   $0x2c
  2802fb:	6a 14                	push   $0x14
  2802fd:	68 a0 00 00 00       	push   $0xa0
  280302:	ff b5 04 fe ff ff    	pushl  -0x1fc(%ebp)
  280308:	e8 c6 09 00 00       	call   280cd3 <puts8>
    sheet_refresh(sht_win,20,28,140,60);
  28030d:	83 c4 14             	add    $0x14,%esp
  280310:	6a 3c                	push   $0x3c
  280312:	68 8c 00 00 00       	push   $0x8c
  280317:	6a 1c                	push   $0x1c
  280319:	6a 14                	push   $0x14
  28031b:	ff b5 f8 fd ff ff    	pushl  -0x208(%ebp)
  280321:	e8 59 13 00 00       	call   28167f <sheet_refresh>

static __inline void
cli(void)
{

	__asm __volatile("cli");
  280326:	fa                   	cli    
      cli();//disable cpu interrupt
    //while(1);
   if(fifo8_status(&keyfifo) +fifo8_status(&mousefifo) == 0)//no data in keyfifo and mousefifo
  280327:	83 c4 14             	add    $0x14,%esp
  28032a:	68 20 3e 28 00       	push   $0x283e20
  28032f:	e8 60 0e 00 00       	call   281194 <fifo8_status>
  280334:	c7 04 24 38 3e 28 00 	movl   $0x283e38,(%esp)
  28033b:	89 85 ec fd ff ff    	mov    %eax,-0x214(%ebp)
  280341:	e8 4e 0e 00 00       	call   281194 <fifo8_status>
  280346:	83 c4 10             	add    $0x10,%esp
  280349:	03 85 ec fd ff ff    	add    -0x214(%ebp),%eax
  28034f:	85 c0                	test   %eax,%eax
  280351:	75 06                	jne    280359 <bootmain+0x359>

static __inline void
sti(void)
{

	__asm __volatile("sti");
  280353:	fb                   	sti    
  280354:	e9 43 ff ff ff       	jmp    28029c <bootmain+0x29c>
    sti();
    //hlt();//wait for interrupt
   }
   else
   {
      if(fifo8_status(&keyfifo) != 0)
  280359:	83 ec 0c             	sub    $0xc,%esp
  28035c:	68 20 3e 28 00       	push   $0x283e20
  280361:	e8 2e 0e 00 00       	call   281194 <fifo8_status>
  280366:	83 c4 10             	add    $0x10,%esp
  280369:	85 c0                	test   %eax,%eax
  28036b:	74 13                	je     280380 <bootmain+0x380>
      {
        data=fifo8_read(&keyfifo);
  28036d:	83 ec 0c             	sub    $0xc,%esp
  280370:	68 20 3e 28 00       	push   $0x283e20
  280375:	e8 e5 0d 00 00       	call   28115f <fifo8_read>
  28037a:	fb                   	sti    
  28037b:	e9 86 01 00 00       	jmp    280506 <bootmain+0x506>
        sti();
      }
      else if(fifo8_status(&mousefifo) != 0)//we have mouse interrupt data to process
  280380:	83 ec 0c             	sub    $0xc,%esp
  280383:	68 38 3e 28 00       	push   $0x283e38
  280388:	e8 07 0e 00 00       	call   281194 <fifo8_status>
  28038d:	83 c4 10             	add    $0x10,%esp
  280390:	85 c0                	test   %eax,%eax
  280392:	0f 84 04 ff ff ff    	je     28029c <bootmain+0x29c>
      {
        data=fifo8_read(&mousefifo);
  280398:	83 ec 0c             	sub    $0xc,%esp
  28039b:	68 38 3e 28 00       	push   $0x283e38
  2803a0:	e8 ba 0d 00 00       	call   28115f <fifo8_read>
  2803a5:	fb                   	sti    
        sti();
        if(mouse_decode(&mdec,data))
  2803a6:	5a                   	pop    %edx
  2803a7:	0f b6 c0             	movzbl %al,%eax
  2803aa:	59                   	pop    %ecx
  2803ab:	50                   	push   %eax
  2803ac:	ff b5 e8 fd ff ff    	pushl  -0x218(%ebp)
  2803b2:	e8 14 0e 00 00       	call   2811cb <mouse_decode>
  2803b7:	83 c4 10             	add    $0x10,%esp
  2803ba:	85 c0                	test   %eax,%eax
  2803bc:	0f 84 da fe ff ff    	je     28029c <bootmain+0x29c>
        {
              //3个字节都得到了
              switch (mdec.button)
  2803c2:	8b 85 1c fe ff ff    	mov    -0x1e4(%ebp),%eax
  2803c8:	83 f8 02             	cmp    $0x2,%eax
  2803cb:	74 11                	je     2803de <bootmain+0x3de>
  2803cd:	83 f8 04             	cmp    $0x4,%eax
  2803d0:	74 15                	je     2803e7 <bootmain+0x3e7>
  2803d2:	48                   	dec    %eax
  2803d3:	75 19                	jne    2803ee <bootmain+0x3ee>
              {
                case 1:s[1]='L';break;
  2803d5:	c6 85 41 fe ff ff 4c 	movb   $0x4c,-0x1bf(%ebp)
  2803dc:	eb 10                	jmp    2803ee <bootmain+0x3ee>
                case 2:s[3]='R';break;
  2803de:	c6 85 43 fe ff ff 52 	movb   $0x52,-0x1bd(%ebp)
  2803e5:	eb 07                	jmp    2803ee <bootmain+0x3ee>
                case 4:s[2]='M';break;
  2803e7:	c6 85 42 fe ff ff 4d 	movb   $0x4d,-0x1be(%ebp)
              }
              sprintf(s,"[lmr:%d %d]",mdec.x,mdec.y);
  2803ee:	ff b5 18 fe ff ff    	pushl  -0x1e8(%ebp)
  2803f4:	ff b5 14 fe ff ff    	pushl  -0x1ec(%ebp)
  2803fa:	68 31 36 28 00       	push   $0x283631
  2803ff:	56                   	push   %esi
  280400:	e8 d3 07 00 00       	call   280bd8 <sprintf>
              boxfill8(desktop,320,0,32,16,32+15*8-1,33);//一个黑色的小box
  280405:	83 c4 0c             	add    $0xc,%esp
  280408:	6a 21                	push   $0x21
  28040a:	68 97 00 00 00       	push   $0x97
  28040f:	6a 10                	push   $0x10
  280411:	6a 20                	push   $0x20
  280413:	6a 00                	push   $0x0
  280415:	68 40 01 00 00       	push   $0x140
  28041a:	53                   	push   %ebx
  28041b:	e8 88 01 00 00       	call   2805a8 <boxfill8>
              puts8(desktop,bootp->xsize,32,16,7,s);     //display e0
  280420:	83 c4 18             	add    $0x18,%esp
  280423:	56                   	push   %esi
  280424:	6a 07                	push   $0x7
  280426:	6a 10                	push   $0x10
  280428:	6a 20                	push   $0x20
  28042a:	0f bf 05 f4 0f 00 00 	movswl 0xff4,%eax
  280431:	50                   	push   %eax
  280432:	53                   	push   %ebx
  280433:	e8 9b 08 00 00       	call   280cd3 <puts8>
              sheet_refresh(sht_back,32,16,32+20*8-1,31);
  280438:	83 c4 14             	add    $0x14,%esp
  28043b:	6a 1f                	push   $0x1f
  28043d:	68 bf 00 00 00       	push   $0xbf
  280442:	6a 10                	push   $0x10
  280444:	6a 20                	push   $0x20
  280446:	ff b5 f4 fd ff ff    	pushl  -0x20c(%ebp)
  28044c:	e8 2e 12 00 00       	call   28167f <sheet_refresh>
  280451:	83 c4 20             	add    $0x20,%esp
  280454:	31 c0                	xor    %eax,%eax
  280456:	89 fa                	mov    %edi,%edx
  280458:	03 95 14 fe ff ff    	add    -0x1ec(%ebp),%edx
  28045e:	89 d7                	mov    %edx,%edi
  280460:	8b 95 00 fe ff ff    	mov    -0x200(%ebp),%edx
  280466:	0f 48 f8             	cmovs  %eax,%edi
  280469:	03 95 18 fe ff ff    	add    -0x1e8(%ebp),%edx
  28046f:	0f 49 c2             	cmovns %edx,%eax
  280472:	89 c1                	mov    %eax,%ecx
              {
                my=0;
              }


              if(mx>bootp->xsize-1)
  280474:	0f bf 05 f4 0f 00 00 	movswl 0xff4,%eax
              {
                mx=bootp->xsize-1;
  28047b:	8d 50 ff             	lea    -0x1(%eax),%edx
  28047e:	39 f8                	cmp    %edi,%eax
              }

              if(my>bootp->ysize-1)
  280480:	0f bf 05 f6 0f 00 00 	movswl 0xff6,%eax
              }


              if(mx>bootp->xsize-1)
              {
                mx=bootp->xsize-1;
  280487:	0f 4e fa             	cmovle %edx,%edi
              }

              if(my>bootp->ysize-1)
              {
                my=bootp->ysize-1;
  28048a:	39 c8                	cmp    %ecx,%eax
  28048c:	8d 50 ff             	lea    -0x1(%eax),%edx
  28048f:	0f 4f d1             	cmovg  %ecx,%edx
              }
              sprintf(s,"(%d, %d)",mx,my);
  280492:	52                   	push   %edx
  280493:	57                   	push   %edi
  280494:	68 3d 36 28 00       	push   $0x28363d
  280499:	56                   	push   %esi
                mx=bootp->xsize-1;
              }

              if(my>bootp->ysize-1)
              {
                my=bootp->ysize-1;
  28049a:	89 95 00 fe ff ff    	mov    %edx,-0x200(%ebp)
              }
              sprintf(s,"(%d, %d)",mx,my);
  2804a0:	e8 33 07 00 00       	call   280bd8 <sprintf>
              boxfill8(desktop,320,0,0,0,79,15);//坐标的背景色
  2804a5:	83 c4 0c             	add    $0xc,%esp
  2804a8:	6a 0f                	push   $0xf
  2804aa:	6a 4f                	push   $0x4f
  2804ac:	6a 00                	push   $0x0
  2804ae:	6a 00                	push   $0x0
  2804b0:	6a 00                	push   $0x0
  2804b2:	68 40 01 00 00       	push   $0x140
  2804b7:	53                   	push   %ebx
  2804b8:	e8 eb 00 00 00       	call   2805a8 <boxfill8>
              puts8(desktop ,bootp->xsize,0,0,7,s);//显示坐标
  2804bd:	83 c4 18             	add    $0x18,%esp
  2804c0:	56                   	push   %esi
  2804c1:	6a 07                	push   $0x7
  2804c3:	6a 00                	push   $0x0
  2804c5:	6a 00                	push   $0x0
  2804c7:	0f bf 05 f4 0f 00 00 	movswl 0xff4,%eax
  2804ce:	50                   	push   %eax
  2804cf:	53                   	push   %ebx
  2804d0:	e8 fe 07 00 00       	call   280cd3 <puts8>
              sheet_refresh(sht_back,0,0,bootp->xsize,15);
  2804d5:	83 c4 14             	add    $0x14,%esp
  2804d8:	6a 0f                	push   $0xf
  2804da:	0f bf 05 f4 0f 00 00 	movswl 0xff4,%eax
  2804e1:	50                   	push   %eax
  2804e2:	6a 00                	push   $0x0
  2804e4:	6a 00                	push   $0x0
  2804e6:	ff b5 f4 fd ff ff    	pushl  -0x20c(%ebp)
  2804ec:	e8 8e 11 00 00       	call   28167f <sheet_refresh>
              sheet_move(sht_mouse,mx,my);
  2804f1:	83 c4 1c             	add    $0x1c,%esp
  2804f4:	ff b5 00 fe ff ff    	pushl  -0x200(%ebp)
  2804fa:	57                   	push   %edi
  2804fb:	ff b5 fc fd ff ff    	pushl  -0x204(%ebp)
  280501:	e8 79 14 00 00       	call   28197f <sheet_move>
  280506:	83 c4 10             	add    $0x10,%esp
  280509:	e9 8e fd ff ff       	jmp    28029c <bootmain+0x29c>

0028050e <clear_screen>:
#include<header.h>

void clear_screen(char color) //15:pure white
{
  28050e:	55                   	push   %ebp
  int i;
  for(i=0xa0000;i<0xaffff;i++)
  28050f:	b8 00 00 0a 00       	mov    $0xa0000,%eax
#include<header.h>

void clear_screen(char color) //15:pure white
{
  280514:	89 e5                	mov    %esp,%ebp
  280516:	8a 55 08             	mov    0x8(%ebp),%dl
  int i;
  for(i=0xa0000;i<0xaffff;i++)
  {
  write_mem8(i,color);  //if we write 15 ,all pixels color will be white,15 mens pure white ,so the screen changes into white
  280519:	88 10                	mov    %dl,(%eax)
#include<header.h>

void clear_screen(char color) //15:pure white
{
  int i;
  for(i=0xa0000;i<0xaffff;i++)
  28051b:	40                   	inc    %eax
  28051c:	3d ff ff 0a 00       	cmp    $0xaffff,%eax
  280521:	75 f6                	jne    280519 <clear_screen+0xb>
  {
  write_mem8(i,color);  //if we write 15 ,all pixels color will be white,15 mens pure white ,so the screen changes into white

  }
}
  280523:	5d                   	pop    %ebp
  280524:	c3                   	ret    

00280525 <color_screen>:

void color_screen(char color) //15:pure white
{
  280525:	55                   	push   %ebp
  int i;
  color=color;
  for(i=0xa0000;i<0xaffff;i++)
  280526:	b8 00 00 0a 00       	mov    $0xa0000,%eax

  }
}

void color_screen(char color) //15:pure white
{
  28052b:	89 e5                	mov    %esp,%ebp
  int i;
  color=color;
  for(i=0xa0000;i<0xaffff;i++)
  {
  write_mem8(i,i);  //if we write 15 ,all pixels color will be white,15 mens pure white ,so the screen changes into white
  28052d:	88 00                	mov    %al,(%eax)

void color_screen(char color) //15:pure white
{
  int i;
  color=color;
  for(i=0xa0000;i<0xaffff;i++)
  28052f:	40                   	inc    %eax
  280530:	3d ff ff 0a 00       	cmp    $0xaffff,%eax
  280535:	75 f6                	jne    28052d <color_screen+0x8>
  {
  write_mem8(i,i);  //if we write 15 ,all pixels color will be white,15 mens pure white ,so the screen changes into white

  }
}
  280537:	5d                   	pop    %ebp
  280538:	c3                   	ret    

00280539 <set_palette>:
   set_palette(0,255,table_rgb);
}

//设置调色板，  只用到了16个color,后面的都没有用到。
void set_palette(int start,int end, unsigned char *rgb)
{
  280539:	55                   	push   %ebp
  28053a:	89 e5                	mov    %esp,%ebp
  28053c:	56                   	push   %esi
  28053d:	8b 4d 10             	mov    0x10(%ebp),%ecx
  280540:	53                   	push   %ebx
  280541:	8b 5d 08             	mov    0x8(%ebp),%ebx
//read eflags and write_eflags
static __inline uint32_t
read_eflags(void)
{
        uint32_t eflags;
        __asm __volatile("pushfl; popl %0" : "=r" (eflags));
  280544:	9c                   	pushf  
  280545:	5e                   	pop    %esi

static __inline void
cli(void)
{

	__asm __volatile("cli");
  280546:	fa                   	cli    
// out:write a data to a port
static __inline void
outb(int port, uint8_t data)
{
  //data是变量0%0 , port是变量word１%w1
	__asm __volatile("outb %0,%w1" : : "a" (data), "d" (port));
  280547:	ba c8 03 00 00       	mov    $0x3c8,%edx

  cli(); // disable interrupt
  //为什么写port 0x03c8

  //rgb=rgb+;
  outb(0x03c8,start);
  28054c:	0f b6 c3             	movzbl %bl,%eax
  28054f:	ee                   	out    %al,(%dx)
  280550:	b2 c9                	mov    $0xc9,%dl
  for(i=start;i<=end;i++)
  280552:	3b 5d 0c             	cmp    0xc(%ebp),%ebx
  280555:	7f 1a                	jg     280571 <set_palette+0x38>
  {
    outb(0x03c9,*(rgb)/4);    //outb函数是往指定的设备，送数据。
  280557:	8a 01                	mov    (%ecx),%al
  280559:	c0 e8 02             	shr    $0x2,%al
  28055c:	ee                   	out    %al,(%dx)
    outb(0x03c9,*(rgb+1)/4);
  28055d:	8a 41 01             	mov    0x1(%ecx),%al
  280560:	c0 e8 02             	shr    $0x2,%al
  280563:	ee                   	out    %al,(%dx)
    outb(0x03c9,*(rgb+2)/4);
  280564:	8a 41 02             	mov    0x2(%ecx),%al
  280567:	c0 e8 02             	shr    $0x2,%al
  28056a:	ee                   	out    %al,(%dx)
    rgb=rgb+3;
  28056b:	83 c1 03             	add    $0x3,%ecx
  cli(); // disable interrupt
  //为什么写port 0x03c8

  //rgb=rgb+;
  outb(0x03c8,start);
  for(i=start;i<=end;i++)
  28056e:	43                   	inc    %ebx
  28056f:	eb e1                	jmp    280552 <set_palette+0x19>
}

static __inline void
write_eflags(uint32_t eflags)
{
        __asm __volatile("pushl %0; popfl" : : "r" (eflags));
  280571:	56                   	push   %esi
  280572:	9d                   	popf   
  }

write_eflags(eflag);  //恢复从前的cpsr
  return;

}
  280573:	5b                   	pop    %ebx
  280574:	5e                   	pop    %esi
  280575:	5d                   	pop    %ebp
  280576:	c3                   	ret    

00280577 <init_palette>:
}

//初始化调色板，table_rgb[]保存了16种color的编码。
//什么调色板是这样进行设置，这个与x86的port 0x03c8 0x03c9
void init_palette(void)
{
  280577:	55                   	push   %ebp
  //16种color，每个color三个字节。
unsigned char table_rgb[16*3]={
  280578:	b9 0c 00 00 00       	mov    $0xc,%ecx
}

//初始化调色板，table_rgb[]保存了16种color的编码。
//什么调色板是这样进行设置，这个与x86的port 0x03c8 0x03c9
void init_palette(void)
{
  28057d:	89 e5                	mov    %esp,%ebp
  28057f:	57                   	push   %edi
  280580:	56                   	push   %esi
  //16种color，每个color三个字节。
unsigned char table_rgb[16*3]={
  280581:	be f8 33 28 00       	mov    $0x2833f8,%esi
}

//初始化调色板，table_rgb[]保存了16种color的编码。
//什么调色板是这样进行设置，这个与x86的port 0x03c8 0x03c9
void init_palette(void)
{
  280586:	83 ec 30             	sub    $0x30,%esp
    0x00,0x00,0x84,   /*12:dark 青*/
    0x84,0x00,0x84,   /*13:dark purper*/
    0x00,0x84,0x84,   /*14:light blue*/
    0x84,0x84,0x84,   /*15:dark gray*/
  };
   set_palette(0,255,table_rgb);
  280589:	8d 45 c8             	lea    -0x38(%ebp),%eax
//初始化调色板，table_rgb[]保存了16种color的编码。
//什么调色板是这样进行设置，这个与x86的port 0x03c8 0x03c9
void init_palette(void)
{
  //16种color，每个color三个字节。
unsigned char table_rgb[16*3]={
  28058c:	8d 7d c8             	lea    -0x38(%ebp),%edi
  28058f:	f3 a5                	rep movsl %ds:(%esi),%es:(%edi)
    0x00,0x00,0x84,   /*12:dark 青*/
    0x84,0x00,0x84,   /*13:dark purper*/
    0x00,0x84,0x84,   /*14:light blue*/
    0x84,0x84,0x84,   /*15:dark gray*/
  };
   set_palette(0,255,table_rgb);
  280591:	50                   	push   %eax
  280592:	68 ff 00 00 00       	push   $0xff
  280597:	6a 00                	push   $0x0
  280599:	e8 9b ff ff ff       	call   280539 <set_palette>
  28059e:	83 c4 0c             	add    $0xc,%esp
}
  2805a1:	8d 65 f8             	lea    -0x8(%ebp),%esp
  2805a4:	5e                   	pop    %esi
  2805a5:	5f                   	pop    %edi
  2805a6:	5d                   	pop    %ebp
  2805a7:	c3                   	ret    

002805a8 <boxfill8>:
  return;

}

void boxfill8(unsigned char *vram,int xsize,unsigned char color,int x0,int y0,int x1,int y1)
{
  2805a8:	55                   	push   %ebp
  2805a9:	89 e5                	mov    %esp,%ebp
  2805ab:	8b 4d 18             	mov    0x18(%ebp),%ecx
  2805ae:	8b 45 0c             	mov    0xc(%ebp),%eax
  2805b1:	53                   	push   %ebx
  2805b2:	8a 5d 10             	mov    0x10(%ebp),%bl
  2805b5:	0f af c1             	imul   %ecx,%eax
  2805b8:	03 45 08             	add    0x8(%ebp),%eax
 int x,y;
 for(y=y0;y<=y1;y++)
  2805bb:	3b 4d 20             	cmp    0x20(%ebp),%ecx
  2805be:	7f 14                	jg     2805d4 <boxfill8+0x2c>
  2805c0:	8b 55 14             	mov    0x14(%ebp),%edx
 {
   for(x=x0;x<=x1;x++)
  2805c3:	3b 55 1c             	cmp    0x1c(%ebp),%edx
  2805c6:	7f 06                	jg     2805ce <boxfill8+0x26>
   {
      vram[y*xsize+x]=color;
  2805c8:	88 1c 10             	mov    %bl,(%eax,%edx,1)
void boxfill8(unsigned char *vram,int xsize,unsigned char color,int x0,int y0,int x1,int y1)
{
 int x,y;
 for(y=y0;y<=y1;y++)
 {
   for(x=x0;x<=x1;x++)
  2805cb:	42                   	inc    %edx
  2805cc:	eb f5                	jmp    2805c3 <boxfill8+0x1b>
}

void boxfill8(unsigned char *vram,int xsize,unsigned char color,int x0,int y0,int x1,int y1)
{
 int x,y;
 for(y=y0;y<=y1;y++)
  2805ce:	41                   	inc    %ecx
  2805cf:	03 45 0c             	add    0xc(%ebp),%eax
  2805d2:	eb e7                	jmp    2805bb <boxfill8+0x13>
   {
      vram[y*xsize+x]=color;
   }
 }

}
  2805d4:	5b                   	pop    %ebx
  2805d5:	5d                   	pop    %ebp
  2805d6:	c3                   	ret    

002805d7 <boxfill>:
void boxfill(unsigned char color,int x0,int y0,int x1,int y1)
{
  2805d7:	55                   	push   %ebp
  2805d8:	89 e5                	mov    %esp,%ebp
  boxfill8((unsigned char *)VRAM,320,color,x0,y0,x1,y1);
  2805da:	ff 75 18             	pushl  0x18(%ebp)
  2805dd:	ff 75 14             	pushl  0x14(%ebp)
  2805e0:	ff 75 10             	pushl  0x10(%ebp)
  2805e3:	ff 75 0c             	pushl  0xc(%ebp)
  2805e6:	0f b6 45 08          	movzbl 0x8(%ebp),%eax
  2805ea:	50                   	push   %eax
  2805eb:	68 40 01 00 00       	push   $0x140
  2805f0:	68 00 00 0a 00       	push   $0xa0000
  2805f5:	e8 ae ff ff ff       	call   2805a8 <boxfill8>
  2805fa:	83 c4 1c             	add    $0x1c,%esp
}
  2805fd:	c9                   	leave  
  2805fe:	c3                   	ret    

002805ff <draw_win_buf>:


void draw_win_buf(unsigned char *p)
{
  2805ff:	55                   	push   %ebp
  280600:	89 e5                	mov    %esp,%ebp
  280602:	53                   	push   %ebx
  280603:	8b 5d 08             	mov    0x8(%ebp),%ebx
  int x=320,y=200;
    //p=(unsigned char*)VRAM;
//     boxfill8(p,320,110,20,20,250,150);

    //draw a window
    boxfill8(p,320,7 ,0, 0   ,x-1,y-29);
  280606:	68 ab 00 00 00       	push   $0xab
  28060b:	68 3f 01 00 00       	push   $0x13f
  280610:	6a 00                	push   $0x0
  280612:	6a 00                	push   $0x0
  280614:	6a 07                	push   $0x7
  280616:	68 40 01 00 00       	push   $0x140
  28061b:	53                   	push   %ebx
  28061c:	e8 87 ff ff ff       	call   2805a8 <boxfill8>
//task button
    boxfill8(p,320,8  ,0, y-28,x-1,y-28);
  280621:	68 ac 00 00 00       	push   $0xac
  280626:	68 3f 01 00 00       	push   $0x13f
  28062b:	68 ac 00 00 00       	push   $0xac
  280630:	6a 00                	push   $0x0
  280632:	6a 08                	push   $0x8
  280634:	68 40 01 00 00       	push   $0x140
  280639:	53                   	push   %ebx
  28063a:	e8 69 ff ff ff       	call   2805a8 <boxfill8>
    boxfill8(p,320,7  ,0, y-27,x-1,y-27);
  28063f:	83 c4 38             	add    $0x38,%esp
  280642:	68 ad 00 00 00       	push   $0xad
  280647:	68 3f 01 00 00       	push   $0x13f
  28064c:	68 ad 00 00 00       	push   $0xad
  280651:	6a 00                	push   $0x0
  280653:	6a 07                	push   $0x7
  280655:	68 40 01 00 00       	push   $0x140
  28065a:	53                   	push   %ebx
  28065b:	e8 48 ff ff ff       	call   2805a8 <boxfill8>
    boxfill8(p,320,8  ,0, y-26,x-1,y-1);
  280660:	68 c7 00 00 00       	push   $0xc7
  280665:	68 3f 01 00 00       	push   $0x13f
  28066a:	68 ae 00 00 00       	push   $0xae
  28066f:	6a 00                	push   $0x0
  280671:	6a 08                	push   $0x8
  280673:	68 40 01 00 00       	push   $0x140
  280678:	53                   	push   %ebx
  280679:	e8 2a ff ff ff       	call   2805a8 <boxfill8>


//left button
    boxfill8(p,320,7, 3,  y-24, 59,  y-24);
  28067e:	83 c4 38             	add    $0x38,%esp
  280681:	68 b0 00 00 00       	push   $0xb0
  280686:	6a 3b                	push   $0x3b
  280688:	68 b0 00 00 00       	push   $0xb0
  28068d:	6a 03                	push   $0x3
  28068f:	6a 07                	push   $0x7
  280691:	68 40 01 00 00       	push   $0x140
  280696:	53                   	push   %ebx
  280697:	e8 0c ff ff ff       	call   2805a8 <boxfill8>
    boxfill8(p,320,7, 2,  y-24, 2 ,  y-4);
  28069c:	68 c4 00 00 00       	push   $0xc4
  2806a1:	6a 02                	push   $0x2
  2806a3:	68 b0 00 00 00       	push   $0xb0
  2806a8:	6a 02                	push   $0x2
  2806aa:	6a 07                	push   $0x7
  2806ac:	68 40 01 00 00       	push   $0x140
  2806b1:	53                   	push   %ebx
  2806b2:	e8 f1 fe ff ff       	call   2805a8 <boxfill8>
    boxfill8(p,320,15, 3,  y-4,  59,  y-4);
  2806b7:	83 c4 38             	add    $0x38,%esp
  2806ba:	68 c4 00 00 00       	push   $0xc4
  2806bf:	6a 3b                	push   $0x3b
  2806c1:	68 c4 00 00 00       	push   $0xc4
  2806c6:	6a 03                	push   $0x3
  2806c8:	6a 0f                	push   $0xf
  2806ca:	68 40 01 00 00       	push   $0x140
  2806cf:	53                   	push   %ebx
  2806d0:	e8 d3 fe ff ff       	call   2805a8 <boxfill8>
    boxfill8(p,320,15, 59, y-23, 59,  y-5);
  2806d5:	68 c3 00 00 00       	push   $0xc3
  2806da:	6a 3b                	push   $0x3b
  2806dc:	68 b1 00 00 00       	push   $0xb1
  2806e1:	6a 3b                	push   $0x3b
  2806e3:	6a 0f                	push   $0xf
  2806e5:	68 40 01 00 00       	push   $0x140
  2806ea:	53                   	push   %ebx
  2806eb:	e8 b8 fe ff ff       	call   2805a8 <boxfill8>
    boxfill8(p,320,0, 2,  y-3,  59,  y-3);
  2806f0:	83 c4 38             	add    $0x38,%esp
  2806f3:	68 c5 00 00 00       	push   $0xc5
  2806f8:	6a 3b                	push   $0x3b
  2806fa:	68 c5 00 00 00       	push   $0xc5
  2806ff:	6a 02                	push   $0x2
  280701:	6a 00                	push   $0x0
  280703:	68 40 01 00 00       	push   $0x140
  280708:	53                   	push   %ebx
  280709:	e8 9a fe ff ff       	call   2805a8 <boxfill8>
    boxfill8(p,320,0, 60, y-24, 60,  y-3);
  28070e:	68 c5 00 00 00       	push   $0xc5
  280713:	6a 3c                	push   $0x3c
  280715:	68 b0 00 00 00       	push   $0xb0
  28071a:	6a 3c                	push   $0x3c
  28071c:	6a 00                	push   $0x0
  28071e:	68 40 01 00 00       	push   $0x140
  280723:	53                   	push   %ebx
  280724:	e8 7f fe ff ff       	call   2805a8 <boxfill8>

//
//right button
    boxfill8(p,320,15, x-47, y-24,x-4,y-24);
  280729:	83 c4 38             	add    $0x38,%esp
  28072c:	68 b0 00 00 00       	push   $0xb0
  280731:	68 3c 01 00 00       	push   $0x13c
  280736:	68 b0 00 00 00       	push   $0xb0
  28073b:	68 11 01 00 00       	push   $0x111
  280740:	6a 0f                	push   $0xf
  280742:	68 40 01 00 00       	push   $0x140
  280747:	53                   	push   %ebx
  280748:	e8 5b fe ff ff       	call   2805a8 <boxfill8>
    boxfill8(p,320,15, x-47, y-23,x-47,y-4);
  28074d:	68 c4 00 00 00       	push   $0xc4
  280752:	68 11 01 00 00       	push   $0x111
  280757:	68 b1 00 00 00       	push   $0xb1
  28075c:	68 11 01 00 00       	push   $0x111
  280761:	6a 0f                	push   $0xf
  280763:	68 40 01 00 00       	push   $0x140
  280768:	53                   	push   %ebx
  280769:	e8 3a fe ff ff       	call   2805a8 <boxfill8>
    boxfill8(p,320,7, x-47, y-3,x-4,y-3);
  28076e:	83 c4 38             	add    $0x38,%esp
  280771:	68 c5 00 00 00       	push   $0xc5
  280776:	68 3c 01 00 00       	push   $0x13c
  28077b:	68 c5 00 00 00       	push   $0xc5
  280780:	68 11 01 00 00       	push   $0x111
  280785:	6a 07                	push   $0x7
  280787:	68 40 01 00 00       	push   $0x140
  28078c:	53                   	push   %ebx
  28078d:	e8 16 fe ff ff       	call   2805a8 <boxfill8>
    boxfill8(p,320,7, x-3, y-24,x-3,y-3);
  280792:	68 c5 00 00 00       	push   $0xc5
  280797:	68 3d 01 00 00       	push   $0x13d
  28079c:	68 b0 00 00 00       	push   $0xb0
  2807a1:	68 3d 01 00 00       	push   $0x13d
  2807a6:	6a 07                	push   $0x7
  2807a8:	68 40 01 00 00       	push   $0x140
  2807ad:	53                   	push   %ebx
  2807ae:	e8 f5 fd ff ff       	call   2805a8 <boxfill8>
  2807b3:	83 c4 38             	add    $0x38,%esp
}
  2807b6:	8b 5d fc             	mov    -0x4(%ebp),%ebx
  2807b9:	c9                   	leave  
  2807ba:	c3                   	ret    

002807bb <draw_window>:
void draw_window()
{
  2807bb:	55                   	push   %ebp
  2807bc:	89 e5                	mov    %esp,%ebp
  int x=320,y=200;
    p=(unsigned char*)VRAM;
//     boxfill8(p,320,110,20,20,250,150);

    //draw a window
    boxfill(7 ,0, 0   ,x-1,y-29);
  2807be:	68 ab 00 00 00       	push   $0xab
  2807c3:	68 3f 01 00 00       	push   $0x13f
  2807c8:	6a 00                	push   $0x0
  2807ca:	6a 00                	push   $0x0
  2807cc:	6a 07                	push   $0x7
  2807ce:	e8 04 fe ff ff       	call   2805d7 <boxfill>
//task button
    boxfill(8  ,0, y-28,x-1,y-28);
  2807d3:	68 ac 00 00 00       	push   $0xac
  2807d8:	68 3f 01 00 00       	push   $0x13f
  2807dd:	68 ac 00 00 00       	push   $0xac
  2807e2:	6a 00                	push   $0x0
  2807e4:	6a 08                	push   $0x8
  2807e6:	e8 ec fd ff ff       	call   2805d7 <boxfill>
    boxfill(7  ,0, y-27,x-1,y-27);
  2807eb:	83 c4 28             	add    $0x28,%esp
  2807ee:	68 ad 00 00 00       	push   $0xad
  2807f3:	68 3f 01 00 00       	push   $0x13f
  2807f8:	68 ad 00 00 00       	push   $0xad
  2807fd:	6a 00                	push   $0x0
  2807ff:	6a 07                	push   $0x7
  280801:	e8 d1 fd ff ff       	call   2805d7 <boxfill>
    boxfill(8  ,0, y-26,x-1,y-1);
  280806:	68 c7 00 00 00       	push   $0xc7
  28080b:	68 3f 01 00 00       	push   $0x13f
  280810:	68 ae 00 00 00       	push   $0xae
  280815:	6a 00                	push   $0x0
  280817:	6a 08                	push   $0x8
  280819:	e8 b9 fd ff ff       	call   2805d7 <boxfill>


//left button
    boxfill(7, 3,  y-24, 59,  y-24);
  28081e:	83 c4 28             	add    $0x28,%esp
  280821:	68 b0 00 00 00       	push   $0xb0
  280826:	6a 3b                	push   $0x3b
  280828:	68 b0 00 00 00       	push   $0xb0
  28082d:	6a 03                	push   $0x3
  28082f:	6a 07                	push   $0x7
  280831:	e8 a1 fd ff ff       	call   2805d7 <boxfill>
    boxfill(7, 2,  y-24, 2 ,  y-4);
  280836:	68 c4 00 00 00       	push   $0xc4
  28083b:	6a 02                	push   $0x2
  28083d:	68 b0 00 00 00       	push   $0xb0
  280842:	6a 02                	push   $0x2
  280844:	6a 07                	push   $0x7
  280846:	e8 8c fd ff ff       	call   2805d7 <boxfill>
    boxfill(15, 3,  y-4,  59,  y-4);
  28084b:	83 c4 28             	add    $0x28,%esp
  28084e:	68 c4 00 00 00       	push   $0xc4
  280853:	6a 3b                	push   $0x3b
  280855:	68 c4 00 00 00       	push   $0xc4
  28085a:	6a 03                	push   $0x3
  28085c:	6a 0f                	push   $0xf
  28085e:	e8 74 fd ff ff       	call   2805d7 <boxfill>
    boxfill(15, 59, y-23, 59,  y-5);
  280863:	68 c3 00 00 00       	push   $0xc3
  280868:	6a 3b                	push   $0x3b
  28086a:	68 b1 00 00 00       	push   $0xb1
  28086f:	6a 3b                	push   $0x3b
  280871:	6a 0f                	push   $0xf
  280873:	e8 5f fd ff ff       	call   2805d7 <boxfill>
    boxfill(0, 2,  y-3,  59,  y-3);
  280878:	83 c4 28             	add    $0x28,%esp
  28087b:	68 c5 00 00 00       	push   $0xc5
  280880:	6a 3b                	push   $0x3b
  280882:	68 c5 00 00 00       	push   $0xc5
  280887:	6a 02                	push   $0x2
  280889:	6a 00                	push   $0x0
  28088b:	e8 47 fd ff ff       	call   2805d7 <boxfill>
    boxfill(0, 60, y-24, 60,  y-3);
  280890:	68 c5 00 00 00       	push   $0xc5
  280895:	6a 3c                	push   $0x3c
  280897:	68 b0 00 00 00       	push   $0xb0
  28089c:	6a 3c                	push   $0x3c
  28089e:	6a 00                	push   $0x0
  2808a0:	e8 32 fd ff ff       	call   2805d7 <boxfill>

//
//right button
    boxfill(15, x-47, y-24,x-4,y-24);
  2808a5:	83 c4 28             	add    $0x28,%esp
  2808a8:	68 b0 00 00 00       	push   $0xb0
  2808ad:	68 3c 01 00 00       	push   $0x13c
  2808b2:	68 b0 00 00 00       	push   $0xb0
  2808b7:	68 11 01 00 00       	push   $0x111
  2808bc:	6a 0f                	push   $0xf
  2808be:	e8 14 fd ff ff       	call   2805d7 <boxfill>
    boxfill(15, x-47, y-23,x-47,y-4);
  2808c3:	68 c4 00 00 00       	push   $0xc4
  2808c8:	68 11 01 00 00       	push   $0x111
  2808cd:	68 b1 00 00 00       	push   $0xb1
  2808d2:	68 11 01 00 00       	push   $0x111
  2808d7:	6a 0f                	push   $0xf
  2808d9:	e8 f9 fc ff ff       	call   2805d7 <boxfill>
    boxfill(7, x-47, y-3,x-4,y-3);
  2808de:	83 c4 28             	add    $0x28,%esp
  2808e1:	68 c5 00 00 00       	push   $0xc5
  2808e6:	68 3c 01 00 00       	push   $0x13c
  2808eb:	68 c5 00 00 00       	push   $0xc5
  2808f0:	68 11 01 00 00       	push   $0x111
  2808f5:	6a 07                	push   $0x7
  2808f7:	e8 db fc ff ff       	call   2805d7 <boxfill>
    boxfill(7, x-3, y-24,x-3,y-3);
  2808fc:	68 c5 00 00 00       	push   $0xc5
  280901:	68 3d 01 00 00       	push   $0x13d
  280906:	68 b0 00 00 00       	push   $0xb0
  28090b:	68 3d 01 00 00       	push   $0x13d
  280910:	6a 07                	push   $0x7
  280912:	e8 c0 fc ff ff       	call   2805d7 <boxfill>
  280917:	83 c4 28             	add    $0x28,%esp
}
  28091a:	c9                   	leave  
  28091b:	c3                   	ret    

0028091c <init_screen>:


void init_screen(struct boot_info * bootp)
{
  28091c:	55                   	push   %ebp
  28091d:	89 e5                	mov    %esp,%ebp
  28091f:	8b 45 08             	mov    0x8(%ebp),%eax
  bootp->vram=(char *)VRAM;
  280922:	c7 40 08 00 00 0a 00 	movl   $0xa0000,0x8(%eax)
  bootp->color_mode=8;
  280929:	c6 40 02 08          	movb   $0x8,0x2(%eax)
  bootp->xsize=320;
  28092d:	66 c7 40 04 40 01    	movw   $0x140,0x4(%eax)
  bootp->ysize=200;
  280933:	66 c7 40 06 c8 00    	movw   $0xc8,0x6(%eax)

}
  280939:	5d                   	pop    %ebp
  28093a:	c3                   	ret    

0028093b <init_mouse>:

///关于mouse的函数
void init_mouse(char *mouse,char bg)
{
  28093b:	55                   	push   %ebp
  28093c:	31 c9                	xor    %ecx,%ecx
  28093e:	89 e5                	mov    %esp,%ebp
  280940:	8a 45 0c             	mov    0xc(%ebp),%al
  280943:	8b 55 08             	mov    0x8(%ebp),%edx
  280946:	56                   	push   %esi
  280947:	53                   	push   %ebx
  280948:	89 c6                	mov    %eax,%esi
  28094a:	31 c0                	xor    %eax,%eax
	int x,y;
	for(y=0;y<16;y++)
	{
	  for(x=0;x<16;x++)
	  {
	    switch (cursor[y][x])
  28094c:	8a 9c 01 08 35 28 00 	mov    0x283508(%ecx,%eax,1),%bl
  280953:	80 fb 2e             	cmp    $0x2e,%bl
  280956:	74 10                	je     280968 <init_mouse+0x2d>
  280958:	80 fb 4f             	cmp    $0x4f,%bl
  28095b:	74 12                	je     28096f <init_mouse+0x34>
  28095d:	80 fb 2a             	cmp    $0x2a,%bl
  280960:	75 11                	jne    280973 <init_mouse+0x38>
	    {
	      case '.':mouse[x+16*y]=bg;break;  //background
	      case '*':mouse[x+16*y]=outline;break;   //outline
  280962:	c6 04 02 00          	movb   $0x0,(%edx,%eax,1)
  280966:	eb 0b                	jmp    280973 <init_mouse+0x38>
	{
	  for(x=0;x<16;x++)
	  {
	    switch (cursor[y][x])
	    {
	      case '.':mouse[x+16*y]=bg;break;  //background
  280968:	89 f3                	mov    %esi,%ebx
  28096a:	88 1c 02             	mov    %bl,(%edx,%eax,1)
  28096d:	eb 04                	jmp    280973 <init_mouse+0x38>
	      case '*':mouse[x+16*y]=outline;break;   //outline
	      case 'O':mouse[x+16*y]=inside;break;  //inside
  28096f:	c6 04 02 02          	movb   $0x2,(%edx,%eax,1)
		".............***"
	};
	int x,y;
	for(y=0;y<16;y++)
	{
	  for(x=0;x<16;x++)
  280973:	40                   	inc    %eax
  280974:	83 f8 10             	cmp    $0x10,%eax
  280977:	75 d3                	jne    28094c <init_mouse+0x11>
  280979:	83 c1 10             	add    $0x10,%ecx
  28097c:	83 c2 10             	add    $0x10,%edx
		"*..........*OOO*",
		"............*OO*",
		".............***"
	};
	int x,y;
	for(y=0;y<16;y++)
  28097f:	81 f9 00 01 00 00    	cmp    $0x100,%ecx
  280985:	75 c3                	jne    28094a <init_mouse+0xf>

	  }

	}

}
  280987:	5b                   	pop    %ebx
  280988:	5e                   	pop    %esi
  280989:	5d                   	pop    %ebp
  28098a:	c3                   	ret    

0028098b <display_mouse>:

void display_mouse(char *vram,int xsize,int pxsize,int pysize,int px0,int py0,char *buf,int bxsize)
{
  28098b:	55                   	push   %ebp
  28098c:	89 e5                	mov    %esp,%ebp
  28098e:	8b 45 1c             	mov    0x1c(%ebp),%eax
  280991:	56                   	push   %esi
  int x,y;
  for(y=0;y<pysize;y++)
  280992:	31 f6                	xor    %esi,%esi
	}

}

void display_mouse(char *vram,int xsize,int pxsize,int pysize,int px0,int py0,char *buf,int bxsize)
{
  280994:	53                   	push   %ebx
  280995:	8b 5d 20             	mov    0x20(%ebp),%ebx
  280998:	0f af 45 0c          	imul   0xc(%ebp),%eax
  28099c:	03 45 18             	add    0x18(%ebp),%eax
  28099f:	03 45 08             	add    0x8(%ebp),%eax
  int x,y;
  for(y=0;y<pysize;y++)
  2809a2:	3b 75 14             	cmp    0x14(%ebp),%esi
  2809a5:	7d 19                	jge    2809c0 <display_mouse+0x35>
  2809a7:	31 d2                	xor    %edx,%edx
  {
    for(x=0;x<pxsize;x++)
  2809a9:	3b 55 10             	cmp    0x10(%ebp),%edx
  2809ac:	7d 09                	jge    2809b7 <display_mouse+0x2c>
    {
     vram[(py0+y)*xsize+(px0+x)]=buf[y*bxsize+x];
  2809ae:	8a 0c 13             	mov    (%ebx,%edx,1),%cl
  2809b1:	88 0c 10             	mov    %cl,(%eax,%edx,1)
void display_mouse(char *vram,int xsize,int pxsize,int pysize,int px0,int py0,char *buf,int bxsize)
{
  int x,y;
  for(y=0;y<pysize;y++)
  {
    for(x=0;x<pxsize;x++)
  2809b4:	42                   	inc    %edx
  2809b5:	eb f2                	jmp    2809a9 <display_mouse+0x1e>
}

void display_mouse(char *vram,int xsize,int pxsize,int pysize,int px0,int py0,char *buf,int bxsize)
{
  int x,y;
  for(y=0;y<pysize;y++)
  2809b7:	46                   	inc    %esi
  2809b8:	03 5d 24             	add    0x24(%ebp),%ebx
  2809bb:	03 45 0c             	add    0xc(%ebp),%eax
  2809be:	eb e2                	jmp    2809a2 <display_mouse+0x17>
    {
     vram[(py0+y)*xsize+(px0+x)]=buf[y*bxsize+x];
    }
  }

}
  2809c0:	5b                   	pop    %ebx
  2809c1:	5e                   	pop    %esi
  2809c2:	5d                   	pop    %ebp
  2809c3:	c3                   	ret    

002809c4 <make_window8>:


*/

void make_window8(unsigned char *buf,int xsize,int ysize,char *title)
{
  2809c4:	55                   	push   %ebp
  2809c5:	89 e5                	mov    %esp,%ebp
  2809c7:	57                   	push   %edi
  2809c8:	56                   	push   %esi
  2809c9:	53                   	push   %ebx
  2809ca:	83 ec 1c             	sub    $0x1c,%esp
  2809cd:	8b 5d 0c             	mov    0xc(%ebp),%ebx
		"@@@@@@@@@@@@@@@@"
	};

	int x,y;
	char c;
    boxfill8(buf, xsize, 8, 0,         0,         xsize - 1, 0        );
  2809d0:	6a 00                	push   $0x0


*/

void make_window8(unsigned char *buf,int xsize,int ysize,char *title)
{
  2809d2:	8b 75 08             	mov    0x8(%ebp),%esi
		"@@@@@@@@@@@@@@@@"
	};

	int x,y;
	char c;
    boxfill8(buf, xsize, 8, 0,         0,         xsize - 1, 0        );
  2809d5:	8d 7b ff             	lea    -0x1(%ebx),%edi
  2809d8:	57                   	push   %edi
  2809d9:	6a 00                	push   $0x0
  2809db:	6a 00                	push   $0x0
  2809dd:	6a 08                	push   $0x8
  2809df:	53                   	push   %ebx
  2809e0:	56                   	push   %esi
  2809e1:	e8 c2 fb ff ff       	call   2805a8 <boxfill8>
	boxfill8(buf, xsize, 7, 1,         1,         xsize - 2, 1        );
  2809e6:	8d 53 fe             	lea    -0x2(%ebx),%edx
  2809e9:	6a 01                	push   $0x1
  2809eb:	52                   	push   %edx
  2809ec:	6a 01                	push   $0x1
  2809ee:	6a 01                	push   $0x1
  2809f0:	6a 07                	push   $0x7
  2809f2:	53                   	push   %ebx
  2809f3:	56                   	push   %esi
  2809f4:	89 55 d8             	mov    %edx,-0x28(%ebp)
  2809f7:	e8 ac fb ff ff       	call   2805a8 <boxfill8>
	boxfill8(buf, xsize, 8, 0,         0,         0,         ysize - 1);
  2809fc:	8b 45 10             	mov    0x10(%ebp),%eax
  2809ff:	83 c4 38             	add    $0x38,%esp
  280a02:	48                   	dec    %eax
  280a03:	50                   	push   %eax
  280a04:	6a 00                	push   $0x0
  280a06:	6a 00                	push   $0x0
  280a08:	6a 00                	push   $0x0
  280a0a:	6a 08                	push   $0x8
  280a0c:	53                   	push   %ebx
  280a0d:	56                   	push   %esi
  280a0e:	89 45 e4             	mov    %eax,-0x1c(%ebp)
  280a11:	e8 92 fb ff ff       	call   2805a8 <boxfill8>
	boxfill8(buf, xsize, 7, 1,         1,         1,         ysize - 2);
  280a16:	8b 55 10             	mov    0x10(%ebp),%edx
  280a19:	8d 42 fe             	lea    -0x2(%edx),%eax
  280a1c:	50                   	push   %eax
  280a1d:	6a 01                	push   $0x1
  280a1f:	6a 01                	push   $0x1
  280a21:	6a 01                	push   $0x1
  280a23:	6a 07                	push   $0x7
  280a25:	53                   	push   %ebx
  280a26:	56                   	push   %esi
  280a27:	89 45 e0             	mov    %eax,-0x20(%ebp)
  280a2a:	e8 79 fb ff ff       	call   2805a8 <boxfill8>
	boxfill8(buf, xsize, 15, xsize - 2, 1,         xsize - 2, ysize - 2);
  280a2f:	8b 45 e0             	mov    -0x20(%ebp),%eax
  280a32:	83 c4 38             	add    $0x38,%esp
  280a35:	8b 55 d8             	mov    -0x28(%ebp),%edx
  280a38:	50                   	push   %eax
  280a39:	52                   	push   %edx
  280a3a:	6a 01                	push   $0x1
  280a3c:	52                   	push   %edx
  280a3d:	6a 0f                	push   $0xf
  280a3f:	53                   	push   %ebx
  280a40:	56                   	push   %esi
  280a41:	89 45 dc             	mov    %eax,-0x24(%ebp)
  280a44:	89 55 e0             	mov    %edx,-0x20(%ebp)
  280a47:	e8 5c fb ff ff       	call   2805a8 <boxfill8>
	boxfill8(buf, xsize, 0, xsize - 1, 0,         xsize - 1, ysize - 1);
  280a4c:	ff 75 e4             	pushl  -0x1c(%ebp)
  280a4f:	57                   	push   %edi
  280a50:	6a 00                	push   $0x0
  280a52:	57                   	push   %edi
  280a53:	6a 00                	push   $0x0
  280a55:	53                   	push   %ebx
  280a56:	56                   	push   %esi
  280a57:	e8 4c fb ff ff       	call   2805a8 <boxfill8>
	boxfill8(buf, xsize, 8, 2,         2,         xsize - 3, ysize - 3);
  280a5c:	8b 55 10             	mov    0x10(%ebp),%edx
  280a5f:	83 c4 38             	add    $0x38,%esp
  280a62:	8d 4a fd             	lea    -0x3(%edx),%ecx
  280a65:	51                   	push   %ecx
  280a66:	8d 4b fd             	lea    -0x3(%ebx),%ecx
  280a69:	51                   	push   %ecx
  280a6a:	6a 02                	push   $0x2
  280a6c:	6a 02                	push   $0x2
  280a6e:	6a 08                	push   $0x8
  280a70:	53                   	push   %ebx
  280a71:	56                   	push   %esi
  280a72:	e8 31 fb ff ff       	call   2805a8 <boxfill8>
	boxfill8(buf, xsize, 12, 3,         3,         xsize - 4, 20       );
  280a77:	8d 4b fc             	lea    -0x4(%ebx),%ecx
  280a7a:	6a 14                	push   $0x14
  280a7c:	51                   	push   %ecx
  280a7d:	6a 03                	push   $0x3
  280a7f:	6a 03                	push   $0x3
  280a81:	6a 0c                	push   $0xc
  280a83:	53                   	push   %ebx
  280a84:	56                   	push   %esi
  280a85:	e8 1e fb ff ff       	call   2805a8 <boxfill8>
	boxfill8(buf, xsize, 15, 1,         ysize - 2, xsize - 2, ysize - 2);
  280a8a:	8b 45 dc             	mov    -0x24(%ebp),%eax
  280a8d:	83 c4 38             	add    $0x38,%esp
  280a90:	8b 55 e0             	mov    -0x20(%ebp),%edx
  280a93:	50                   	push   %eax
  280a94:	52                   	push   %edx
  280a95:	50                   	push   %eax
  280a96:	6a 01                	push   $0x1
  280a98:	6a 0f                	push   $0xf
  280a9a:	53                   	push   %ebx
  280a9b:	56                   	push   %esi
  280a9c:	e8 07 fb ff ff       	call   2805a8 <boxfill8>
	boxfill8(buf, xsize, 0, 0,         ysize - 1, xsize - 1, ysize - 1);
  280aa1:	8b 45 e4             	mov    -0x1c(%ebp),%eax
  280aa4:	50                   	push   %eax
  280aa5:	57                   	push   %edi


 puts8(buf,xsize,24,4,7,title);
  280aa6:	31 ff                	xor    %edi,%edi
	boxfill8(buf, xsize, 15, xsize - 2, 1,         xsize - 2, ysize - 2);
	boxfill8(buf, xsize, 0, xsize - 1, 0,         xsize - 1, ysize - 1);
	boxfill8(buf, xsize, 8, 2,         2,         xsize - 3, ysize - 3);
	boxfill8(buf, xsize, 12, 3,         3,         xsize - 4, 20       );
	boxfill8(buf, xsize, 15, 1,         ysize - 2, xsize - 2, ysize - 2);
	boxfill8(buf, xsize, 0, 0,         ysize - 1, xsize - 1, ysize - 1);
  280aa8:	50                   	push   %eax
  280aa9:	6a 00                	push   $0x0
  280aab:	6a 00                	push   $0x0
  280aad:	53                   	push   %ebx
  280aae:	56                   	push   %esi
  280aaf:	e8 f4 fa ff ff       	call   2805a8 <boxfill8>


 puts8(buf,xsize,24,4,7,title);
  280ab4:	83 c4 30             	add    $0x30,%esp
  280ab7:	ff 75 14             	pushl  0x14(%ebp)
  280aba:	6a 07                	push   $0x7
  280abc:	6a 04                	push   $0x4
  280abe:	6a 18                	push   $0x18
  280ac0:	53                   	push   %ebx
  280ac1:	56                   	push   %esi
  280ac2:	e8 0c 02 00 00       	call   280cd3 <puts8>
  280ac7:	6b c3 06             	imul   $0x6,%ebx,%eax
  280aca:	83 c4 20             	add    $0x20,%esp
  280acd:	31 d2                	xor    %edx,%edx
  280acf:	01 c6                	add    %eax,%esi


*/

void make_window8(unsigned char *buf,int xsize,int ysize,char *title)
{
  280ad1:	31 c0                	xor    %eax,%eax
 //write the x button to the buf
 for(y=0;y<14;y++)
 {
    for(x=0;x<16;x++)
    {
        c=closebtn[y][x];
  280ad3:	8a 8c 02 28 34 28 00 	mov    0x283428(%edx,%eax,1),%cl
        if(c=='@')
  280ada:	80 f9 40             	cmp    $0x40,%cl
  280add:	74 10                	je     280aef <make_window8+0x12b>
        c=0;
        else if(c=='$')
  280adf:	80 f9 24             	cmp    $0x24,%cl
  280ae2:	74 0f                	je     280af3 <make_window8+0x12f>
        c=15;
        else if(c=='Q')
        c=8;
  280ae4:	80 f9 51             	cmp    $0x51,%cl
  280ae7:	0f 94 c1             	sete   %cl
  280aea:	83 c1 07             	add    $0x7,%ecx
  280aed:	eb 06                	jmp    280af5 <make_window8+0x131>
 {
    for(x=0;x<16;x++)
    {
        c=closebtn[y][x];
        if(c=='@')
        c=0;
  280aef:	31 c9                	xor    %ecx,%ecx
  280af1:	eb 02                	jmp    280af5 <make_window8+0x131>
        else if(c=='$')
        c=15;
  280af3:	b1 0f                	mov    $0xf,%cl

 puts8(buf,xsize,24,4,7,title);
 //write the x button to the buf
 for(y=0;y<14;y++)
 {
    for(x=0;x<16;x++)
  280af5:	40                   	inc    %eax
  280af6:	83 f8 10             	cmp    $0x10,%eax
  280af9:	75 d8                	jne    280ad3 <make_window8+0x10f>
  280afb:	83 c2 10             	add    $0x10,%edx
        c=15;
        else if(c=='Q')
        c=8;
        else c=7;
    }
    buf[(5+y)*xsize+(xsize-21+x)]=c;
  280afe:	88 4c 3e fb          	mov    %cl,-0x5(%esi,%edi,1)
  280b02:	01 df                	add    %ebx,%edi
	boxfill8(buf, xsize, 0, 0,         ysize - 1, xsize - 1, ysize - 1);


 puts8(buf,xsize,24,4,7,title);
 //write the x button to the buf
 for(y=0;y<14;y++)
  280b04:	81 fa e0 00 00 00    	cmp    $0xe0,%edx
  280b0a:	75 c5                	jne    280ad1 <make_window8+0x10d>
 return;




}
  280b0c:	8d 65 f4             	lea    -0xc(%ebp),%esp
  280b0f:	5b                   	pop    %ebx
  280b10:	5e                   	pop    %esi
  280b11:	5f                   	pop    %edi
  280b12:	5d                   	pop    %ebp
  280b13:	c3                   	ret    

00280b14 <itoa>:
sprintf(font,"Debug:var=%x" ,i);
puts8((char *)VRAM ,320,x,150,1,font);

}

void itoa(int value,unsigned char *buf){
  280b14:	55                   	push   %ebp
   unsigned char tmp_buf[10] = {0};
  280b15:	31 c0                	xor    %eax,%eax
sprintf(font,"Debug:var=%x" ,i);
puts8((char *)VRAM ,320,x,150,1,font);

}

void itoa(int value,unsigned char *buf){
  280b17:	89 e5                	mov    %esp,%ebp
   unsigned char tmp_buf[10] = {0};
  280b19:	b9 0a 00 00 00       	mov    $0xa,%ecx
sprintf(font,"Debug:var=%x" ,i);
puts8((char *)VRAM ,320,x,150,1,font);

}

void itoa(int value,unsigned char *buf){
  280b1e:	57                   	push   %edi
  280b1f:	56                   	push   %esi
  280b20:	53                   	push   %ebx
  280b21:	83 ec 10             	sub    $0x10,%esp
  280b24:	8b 55 08             	mov    0x8(%ebp),%edx
   unsigned char tmp_buf[10] = {0};
  280b27:	8d 7d ea             	lea    -0x16(%ebp),%edi
sprintf(font,"Debug:var=%x" ,i);
puts8((char *)VRAM ,320,x,150,1,font);

}

void itoa(int value,unsigned char *buf){
  280b2a:	8b 5d 0c             	mov    0xc(%ebp),%ebx
   unsigned char tmp_buf[10] = {0};
  280b2d:	f3 aa                	rep stos %al,%es:(%edi)
  280b2f:	8d 7d ea             	lea    -0x16(%ebp),%edi
    unsigned char *tbp = tmp_buf;
    if((value >> 31) & 0x1)
  280b32:	85 d2                	test   %edx,%edx
  280b34:	79 06                	jns    280b3c <itoa+0x28>
    { /* neg num */
        *buf++ = '-';//得到负号
  280b36:	c6 03 2d             	movb   $0x2d,(%ebx)
        value = ~value + 1; //将负数变为正数
  280b39:	f7 da                	neg    %edx
void itoa(int value,unsigned char *buf){
   unsigned char tmp_buf[10] = {0};
    unsigned char *tbp = tmp_buf;
    if((value >> 31) & 0x1)
    { /* neg num */
        *buf++ = '-';//得到负号
  280b3b:	43                   	inc    %ebx
  280b3c:	89 f9                	mov    %edi,%ecx



    do
    {
        *tbp++ = ('0' + (char)(value % 10));//得到低位数字
  280b3e:	be 0a 00 00 00       	mov    $0xa,%esi
  280b43:	89 d0                	mov    %edx,%eax
  280b45:	41                   	inc    %ecx
  280b46:	99                   	cltd   
  280b47:	f7 fe                	idiv   %esi
  280b49:	83 c2 30             	add    $0x30,%edx
        value /= 10;
    }while(value);
  280b4c:	85 c0                	test   %eax,%eax



    do
    {
        *tbp++ = ('0' + (char)(value % 10));//得到低位数字
  280b4e:	88 51 ff             	mov    %dl,-0x1(%ecx)
        value /= 10;
  280b51:	89 c2                	mov    %eax,%edx
    }while(value);
  280b53:	75 ee                	jne    280b43 <itoa+0x2f>



    do
    {
        *tbp++ = ('0' + (char)(value % 10));//得到低位数字
  280b55:	89 ce                	mov    %ecx,%esi
  280b57:	89 d8                	mov    %ebx,%eax
        value /= 10;
    }while(value);


    while(tmp_buf != tbp)
  280b59:	39 f9                	cmp    %edi,%ecx
  280b5b:	74 09                	je     280b66 <itoa+0x52>
    {
      tbp--;
  280b5d:	49                   	dec    %ecx
      *buf++ = *tbp;
  280b5e:	8a 11                	mov    (%ecx),%dl
  280b60:	40                   	inc    %eax
  280b61:	88 50 ff             	mov    %dl,-0x1(%eax)
  280b64:	eb f3                	jmp    280b59 <itoa+0x45>
  280b66:	89 f0                	mov    %esi,%eax
  280b68:	29 c8                	sub    %ecx,%eax

    }
    *buf='\0';
  280b6a:	c6 04 03 00          	movb   $0x0,(%ebx,%eax,1)


}
  280b6e:	83 c4 10             	add    $0x10,%esp
  280b71:	5b                   	pop    %ebx
  280b72:	5e                   	pop    %esi
  280b73:	5f                   	pop    %edi
  280b74:	5d                   	pop    %ebp
  280b75:	c3                   	ret    

00280b76 <xtoa>:
    else
        value = value + 48;
    return value;
}

void xtoa(unsigned int value,unsigned char *buf){
  280b76:	55                   	push   %ebp
   unsigned char tmp_buf[30] = {0};
  280b77:	31 c0                	xor    %eax,%eax
    else
        value = value + 48;
    return value;
}

void xtoa(unsigned int value,unsigned char *buf){
  280b79:	89 e5                	mov    %esp,%ebp
   unsigned char tmp_buf[30] = {0};
  280b7b:	b9 1e 00 00 00       	mov    $0x1e,%ecx
    else
        value = value + 48;
    return value;
}

void xtoa(unsigned int value,unsigned char *buf){
  280b80:	57                   	push   %edi
  280b81:	56                   	push   %esi
  280b82:	53                   	push   %ebx
  280b83:	83 ec 20             	sub    $0x20,%esp
  280b86:	8b 55 0c             	mov    0xc(%ebp),%edx
   unsigned char tmp_buf[30] = {0};
  280b89:	8d 7d d6             	lea    -0x2a(%ebp),%edi
  280b8c:	f3 aa                	rep stos %al,%es:(%edi)
   unsigned char *tbp = tmp_buf;
  280b8e:	8d 45 d6             	lea    -0x2a(%ebp),%eax

    *buf++='0';
  280b91:	c6 02 30             	movb   $0x30,(%edx)
    *buf++='x';
  280b94:	8d 72 02             	lea    0x2(%edx),%esi
  280b97:	c6 42 01 78          	movb   $0x78,0x1(%edx)

    do
    {
        // *tbp++ = ('0' + (char)(value % 16));//得到低位数字
	*tbp++=fourbtoc(value&0x0000000f);
  280b9b:	8b 5d 08             	mov    0x8(%ebp),%ebx
  280b9e:	40                   	inc    %eax
  280b9f:	83 e3 0f             	and    $0xf,%ebx


}
static  inline unsigned char fourbtoc(int value){
    if(value >= 10)
        value = value - 10 + 65;
  280ba2:	83 fb 0a             	cmp    $0xa,%ebx
  280ba5:	8d 4b 37             	lea    0x37(%ebx),%ecx
  280ba8:	8d 7b 30             	lea    0x30(%ebx),%edi
  280bab:	0f 4c cf             	cmovl  %edi,%ecx
        // *tbp++ = ('0' + (char)(value % 16));//得到低位数字
	*tbp++=fourbtoc(value&0x0000000f);

        //*tbp++ = ((value % 16)>9)?('A' + (char)(value % 16-10)):('0' + (char)(value % 16));//得到低位数字
        value >>= 4;
    }while(value);
  280bae:	c1 6d 08 04          	shrl   $0x4,0x8(%ebp)
static  inline unsigned char fourbtoc(int value){
    if(value >= 10)
        value = value - 10 + 65;
    else
        value = value + 48;
    return value;
  280bb2:	88 48 ff             	mov    %cl,-0x1(%eax)
        // *tbp++ = ('0' + (char)(value % 16));//得到低位数字
	*tbp++=fourbtoc(value&0x0000000f);

        //*tbp++ = ((value % 16)>9)?('A' + (char)(value % 16-10)):('0' + (char)(value % 16));//得到低位数字
        value >>= 4;
    }while(value);
  280bb5:	75 e4                	jne    280b9b <xtoa+0x25>
    *buf++='x';

    do
    {
        // *tbp++ = ('0' + (char)(value % 16));//得到低位数字
	*tbp++=fourbtoc(value&0x0000000f);
  280bb7:	89 c3                	mov    %eax,%ebx
        //*tbp++ = ((value % 16)>9)?('A' + (char)(value % 16-10)):('0' + (char)(value % 16));//得到低位数字
        value >>= 4;
    }while(value);


    while(tmp_buf != tbp)
  280bb9:	8d 7d d6             	lea    -0x2a(%ebp),%edi
  280bbc:	39 f8                	cmp    %edi,%eax
  280bbe:	74 09                	je     280bc9 <xtoa+0x53>
    {
      tbp--;
  280bc0:	48                   	dec    %eax
      *buf++ = *tbp;
  280bc1:	8a 08                	mov    (%eax),%cl
  280bc3:	46                   	inc    %esi
  280bc4:	88 4e ff             	mov    %cl,-0x1(%esi)
  280bc7:	eb f0                	jmp    280bb9 <xtoa+0x43>
  280bc9:	29 c3                	sub    %eax,%ebx

    }
    *buf='\0';
  280bcb:	c6 44 1a 02 00       	movb   $0x0,0x2(%edx,%ebx,1)


}
  280bd0:	83 c4 20             	add    $0x20,%esp
  280bd3:	5b                   	pop    %ebx
  280bd4:	5e                   	pop    %esi
  280bd5:	5f                   	pop    %edi
  280bd6:	5d                   	pop    %ebp
  280bd7:	c3                   	ret    

00280bd8 <sprintf>:



//实现可变参数的打印，主要是为了观察打印的变量。
void sprintf( char *str, char *format ,...)
{
  280bd8:	55                   	push   %ebp
  280bd9:	89 e5                	mov    %esp,%ebp
  280bdb:	57                   	push   %edi
  280bdc:	56                   	push   %esi
  280bdd:	53                   	push   %ebx
  280bde:	83 ec 10             	sub    $0x10,%esp
  280be1:	8b 5d 08             	mov    0x8(%ebp),%ebx

   int *var=(int *)(&format)+1; //得到第一个可变参数的地址
  280be4:	8d 75 10             	lea    0x10(%ebp),%esi
    char buffer[10];
    char *buf=buffer;
  while(*format)
  280be7:	8b 7d 0c             	mov    0xc(%ebp),%edi
  280bea:	8a 07                	mov    (%edi),%al
  280bec:	84 c0                	test   %al,%al
  280bee:	0f 84 83 00 00 00    	je     280c77 <sprintf+0x9f>
  280bf4:	8d 4f 01             	lea    0x1(%edi),%ecx
  {
      if(*format!='%')
  280bf7:	3c 25                	cmp    $0x25,%al
      {
	*str++=*format++;
  280bf9:	89 4d 0c             	mov    %ecx,0xc(%ebp)
   int *var=(int *)(&format)+1; //得到第一个可变参数的地址
    char buffer[10];
    char *buf=buffer;
  while(*format)
  {
      if(*format!='%')
  280bfc:	74 05                	je     280c03 <sprintf+0x2b>
      {
	*str++=*format++;
  280bfe:	88 03                	mov    %al,(%ebx)
  280c00:	43                   	inc    %ebx
	continue;
  280c01:	eb e4                	jmp    280be7 <sprintf+0xf>
      }
      else
      {
	format++;
	switch (*format)
  280c03:	8a 47 01             	mov    0x1(%edi),%al
  280c06:	3c 73                	cmp    $0x73,%al
  280c08:	74 46                	je     280c50 <sprintf+0x78>
  280c0a:	3c 78                	cmp    $0x78,%al
  280c0c:	74 23                	je     280c31 <sprintf+0x59>
  280c0e:	3c 64                	cmp    $0x64,%al
  280c10:	75 53                	jne    280c65 <sprintf+0x8d>
	{
	  case 'd':itoa(*var,buf);while(*buf){*str++=*buf++;};break;
  280c12:	8d 45 ea             	lea    -0x16(%ebp),%eax
  280c15:	50                   	push   %eax
  280c16:	ff 36                	pushl  (%esi)
  280c18:	e8 f7 fe ff ff       	call   280b14 <itoa>
  280c1d:	59                   	pop    %ecx
  280c1e:	8d 4d ea             	lea    -0x16(%ebp),%ecx
  280c21:	58                   	pop    %eax
  280c22:	89 d8                	mov    %ebx,%eax
  280c24:	8a 19                	mov    (%ecx),%bl
  280c26:	84 db                	test   %bl,%bl
  280c28:	74 3d                	je     280c67 <sprintf+0x8f>
  280c2a:	40                   	inc    %eax
  280c2b:	41                   	inc    %ecx
  280c2c:	88 58 ff             	mov    %bl,-0x1(%eax)
  280c2f:	eb f3                	jmp    280c24 <sprintf+0x4c>
	  case 'x':xtoa(*var,buf);while(*buf){*str++=*buf++;};break;
  280c31:	8d 45 ea             	lea    -0x16(%ebp),%eax
  280c34:	50                   	push   %eax
  280c35:	ff 36                	pushl  (%esi)
  280c37:	e8 3a ff ff ff       	call   280b76 <xtoa>
  280c3c:	8d 4d ea             	lea    -0x16(%ebp),%ecx
  280c3f:	58                   	pop    %eax
  280c40:	89 d8                	mov    %ebx,%eax
  280c42:	5a                   	pop    %edx
  280c43:	8a 19                	mov    (%ecx),%bl
  280c45:	84 db                	test   %bl,%bl
  280c47:	74 1e                	je     280c67 <sprintf+0x8f>
  280c49:	40                   	inc    %eax
  280c4a:	41                   	inc    %ecx
  280c4b:	88 58 ff             	mov    %bl,-0x1(%eax)
  280c4e:	eb f3                	jmp    280c43 <sprintf+0x6b>
	  case 's':buf=(char*)(*var);while(*buf){*str++=*buf++;};break;
  280c50:	8b 16                	mov    (%esi),%edx
  280c52:	89 d8                	mov    %ebx,%eax
  280c54:	89 c1                	mov    %eax,%ecx
  280c56:	29 d9                	sub    %ebx,%ecx
  280c58:	8a 0c 11             	mov    (%ecx,%edx,1),%cl
  280c5b:	84 c9                	test   %cl,%cl
  280c5d:	74 08                	je     280c67 <sprintf+0x8f>
  280c5f:	40                   	inc    %eax
  280c60:	88 48 ff             	mov    %cl,-0x1(%eax)
  280c63:	eb ef                	jmp    280c54 <sprintf+0x7c>
	continue;
      }
      else
      {
	format++;
	switch (*format)
  280c65:	89 d8                	mov    %ebx,%eax
	  case 's':buf=(char*)(*var);while(*buf){*str++=*buf++;};break;

	}
	buf=buffer;
	var++;
	format++;
  280c67:	83 c7 02             	add    $0x2,%edi
	  case 'x':xtoa(*var,buf);while(*buf){*str++=*buf++;};break;
	  case 's':buf=(char*)(*var);while(*buf){*str++=*buf++;};break;

	}
	buf=buffer;
	var++;
  280c6a:	83 c6 04             	add    $0x4,%esi
	format++;
  280c6d:	89 7d 0c             	mov    %edi,0xc(%ebp)
  280c70:	89 c3                	mov    %eax,%ebx
  280c72:	e9 70 ff ff ff       	jmp    280be7 <sprintf+0xf>

      }

  }
  *str='\0';
  280c77:	c6 03 00             	movb   $0x0,(%ebx)

}
  280c7a:	8d 65 f4             	lea    -0xc(%ebp),%esp
  280c7d:	5b                   	pop    %ebx
  280c7e:	5e                   	pop    %esi
  280c7f:	5f                   	pop    %edi
  280c80:	5d                   	pop    %ebp
  280c81:	c3                   	ret    

00280c82 <putfont8>:
}

}

void putfont8(char *vram ,int xsize,int x,int y,char color,char *font)//x=0 311 y=0 183
{
  280c82:	55                   	push   %ebp
  int row,col;
  char d;
  for(row=0;row<16;row++)
  280c83:	31 d2                	xor    %edx,%edx
}

}

void putfont8(char *vram ,int xsize,int x,int y,char color,char *font)//x=0 311 y=0 183
{
  280c85:	89 e5                	mov    %esp,%ebp
  280c87:	57                   	push   %edi
  for(row=0;row<16;row++)
  {
    d=font[row];
    for(col=0;col<8;col++)
    {
      if(d&(0x80>>col))
  280c88:	bf 80 00 00 00       	mov    $0x80,%edi
}

}

void putfont8(char *vram ,int xsize,int x,int y,char color,char *font)//x=0 311 y=0 183
{
  280c8d:	56                   	push   %esi
  280c8e:	53                   	push   %ebx
  280c8f:	83 ec 01             	sub    $0x1,%esp
  280c92:	8a 45 18             	mov    0x18(%ebp),%al
  280c95:	88 45 f3             	mov    %al,-0xd(%ebp)
  280c98:	8b 45 14             	mov    0x14(%ebp),%eax
  280c9b:	0f af 45 0c          	imul   0xc(%ebp),%eax
  280c9f:	03 45 10             	add    0x10(%ebp),%eax
  280ca2:	03 45 08             	add    0x8(%ebp),%eax
  for(row=0;row<16;row++)
  {
    d=font[row];
    for(col=0;col<8;col++)
    {
      if(d&(0x80>>col))
  280ca5:	8b 75 1c             	mov    0x1c(%ebp),%esi
  int row,col;
  char d;
  for(row=0;row<16;row++)
  {
    d=font[row];
    for(col=0;col<8;col++)
  280ca8:	31 c9                	xor    %ecx,%ecx
    {
      if(d&(0x80>>col))
  280caa:	0f be 34 16          	movsbl (%esi,%edx,1),%esi
  280cae:	89 fb                	mov    %edi,%ebx
  280cb0:	d3 fb                	sar    %cl,%ebx
  280cb2:	85 f3                	test   %esi,%ebx
  280cb4:	74 06                	je     280cbc <putfont8+0x3a>
      {
	vram[(y+row)*xsize+x+col]=color;
  280cb6:	8a 5d f3             	mov    -0xd(%ebp),%bl
  280cb9:	88 1c 08             	mov    %bl,(%eax,%ecx,1)
  int row,col;
  char d;
  for(row=0;row<16;row++)
  {
    d=font[row];
    for(col=0;col<8;col++)
  280cbc:	41                   	inc    %ecx
  280cbd:	83 f9 08             	cmp    $0x8,%ecx
  280cc0:	75 ec                	jne    280cae <putfont8+0x2c>

void putfont8(char *vram ,int xsize,int x,int y,char color,char *font)//x=0 311 y=0 183
{
  int row,col;
  char d;
  for(row=0;row<16;row++)
  280cc2:	42                   	inc    %edx
  280cc3:	03 45 0c             	add    0xc(%ebp),%eax
  280cc6:	83 fa 10             	cmp    $0x10,%edx
  280cc9:	75 da                	jne    280ca5 <putfont8+0x23>
    }

  }
  return;

}
  280ccb:	83 c4 01             	add    $0x1,%esp
  280cce:	5b                   	pop    %ebx
  280ccf:	5e                   	pop    %esi
  280cd0:	5f                   	pop    %edi
  280cd1:	5d                   	pop    %ebp
  280cd2:	c3                   	ret    

00280cd3 <puts8>:
  *str='\0';

}

void puts8(char *vram ,int xsize,int x,int y,char color,unsigned char *font)//x=0 311 y=0 183
{
  280cd3:	55                   	push   %ebp
  280cd4:	89 e5                	mov    %esp,%ebp
  280cd6:	57                   	push   %edi
  280cd7:	8b 7d 14             	mov    0x14(%ebp),%edi
  280cda:	56                   	push   %esi
      y=y+16;

    }
    else
    {
    putfont8((char *)vram ,xsize,x,y,color,(char *)(Font8x16+(*font)*16));
  280cdb:	0f be 75 18          	movsbl 0x18(%ebp),%esi
  *str='\0';

}

void puts8(char *vram ,int xsize,int x,int y,char color,unsigned char *font)//x=0 311 y=0 183
{
  280cdf:	53                   	push   %ebx
  280ce0:	8b 5d 10             	mov    0x10(%ebp),%ebx

 while(*font)
  280ce3:	8b 45 1c             	mov    0x1c(%ebp),%eax
  280ce6:	0f b6 00             	movzbl (%eax),%eax
  280ce9:	84 c0                	test   %al,%al
  280ceb:	74 3f                	je     280d2c <puts8+0x59>
 {
    if(*font=='\n')
  280ced:	3c 0a                	cmp    $0xa,%al
  280cef:	75 05                	jne    280cf6 <puts8+0x23>
    {
      x=0;
      y=y+16;
  280cf1:	83 c7 10             	add    $0x10,%edi
  280cf4:	eb 2f                	jmp    280d25 <puts8+0x52>

    }
    else
    {
    putfont8((char *)vram ,xsize,x,y,color,(char *)(Font8x16+(*font)*16));
  280cf6:	c1 e0 04             	shl    $0x4,%eax
  280cf9:	05 28 1a 28 00       	add    $0x281a28,%eax
  280cfe:	50                   	push   %eax
  280cff:	56                   	push   %esi
  280d00:	57                   	push   %edi
  280d01:	53                   	push   %ebx
    x+=8;
  280d02:	83 c3 08             	add    $0x8,%ebx
      y=y+16;

    }
    else
    {
    putfont8((char *)vram ,xsize,x,y,color,(char *)(Font8x16+(*font)*16));
  280d05:	ff 75 0c             	pushl  0xc(%ebp)
  280d08:	ff 75 08             	pushl  0x8(%ebp)
  280d0b:	e8 72 ff ff ff       	call   280c82 <putfont8>
    x+=8;
    if(x>xsize)
  280d10:	83 c4 18             	add    $0x18,%esp
  280d13:	3b 5d 0c             	cmp    0xc(%ebp),%ebx
  280d16:	7e 0f                	jle    280d27 <puts8+0x54>
       {
	  x=0;
	  y+=16;
  280d18:	83 c7 10             	add    $0x10,%edi
	  if(y>183)
  280d1b:	81 ff b7 00 00 00    	cmp    $0xb7,%edi
  280d21:	7e 02                	jle    280d25 <puts8+0x52>
	  {
	    x=0;
	    y=0;
  280d23:	31 ff                	xor    %edi,%edi
       {
	  x=0;
	  y+=16;
	  if(y>183)
	  {
	    x=0;
  280d25:	31 db                	xor    %ebx,%ebx

	  }
        }
    }

    font++;
  280d27:	ff 45 1c             	incl   0x1c(%ebp)
  280d2a:	eb b7                	jmp    280ce3 <puts8+0x10>
}

}
  280d2c:	8d 65 f4             	lea    -0xc(%ebp),%esp
  280d2f:	5b                   	pop    %ebx
  280d30:	5e                   	pop    %esi
  280d31:	5f                   	pop    %edi
  280d32:	5d                   	pop    %ebp
  280d33:	c3                   	ret    

00280d34 <printdebug>:
#include<header.h>


void printdebug(unsigned int i,unsigned int x)
{
  280d34:	55                   	push   %ebp
  280d35:	89 e5                	mov    %esp,%ebp
  280d37:	53                   	push   %ebx
  280d38:	83 ec 20             	sub    $0x20,%esp
char font[30];
sprintf(font,"Debug:var=%x" ,i);
  280d3b:	ff 75 08             	pushl  0x8(%ebp)
  280d3e:	8d 5d de             	lea    -0x22(%ebp),%ebx
  280d41:	68 46 36 28 00       	push   $0x283646
  280d46:	53                   	push   %ebx
  280d47:	e8 8c fe ff ff       	call   280bd8 <sprintf>
puts8((char *)VRAM ,320,x,150,1,font);
  280d4c:	53                   	push   %ebx
  280d4d:	6a 01                	push   $0x1
  280d4f:	68 96 00 00 00       	push   $0x96
  280d54:	ff 75 0c             	pushl  0xc(%ebp)
  280d57:	68 40 01 00 00       	push   $0x140
  280d5c:	68 00 00 0a 00       	push   $0xa0000
  280d61:	e8 6d ff ff ff       	call   280cd3 <puts8>
  280d66:	83 c4 24             	add    $0x24,%esp

}
  280d69:	8b 5d fc             	mov    -0x4(%ebp),%ebx
  280d6c:	c9                   	leave  
  280d6d:	c3                   	ret    

00280d6e <putfont16>:

  }

}
void putfont16(char *vram ,int xsize,int x,int y,char color,unsigned short *font)//x=0 311 y=0 183
{
  280d6e:	55                   	push   %ebp
  280d6f:	31 c9                	xor    %ecx,%ecx
  280d71:	89 e5                	mov    %esp,%ebp
  280d73:	57                   	push   %edi
  280d74:	56                   	push   %esi
  280d75:	53                   	push   %ebx
  280d76:	52                   	push   %edx
  280d77:	8b 55 14             	mov    0x14(%ebp),%edx
  280d7a:	0f af 55 0c          	imul   0xc(%ebp),%edx
  280d7e:	8b 45 10             	mov    0x10(%ebp),%eax
  280d81:	03 45 08             	add    0x8(%ebp),%eax
  280d84:	8a 5d 18             	mov    0x18(%ebp),%bl
  280d87:	01 d0                	add    %edx,%eax
  int row,col;
  unsigned short  d;
  unsigned short *pt=(unsigned short *)(font-32*24);
  for(row=0;row<24;row++)
  280d89:	31 d2                	xor    %edx,%edx
  280d8b:	89 45 f0             	mov    %eax,-0x10(%ebp)
  {
    d=pt[row];
    for(col=0;col<16;col++)
    {
       if( (d&(1 << col) ))
  280d8e:	8b 7d 1c             	mov    0x1c(%ebp),%edi
  280d91:	8b 45 f0             	mov    -0x10(%ebp),%eax
  280d94:	0f b7 bc 57 00 fa ff 	movzwl -0x600(%edi,%edx,2),%edi
  280d9b:	ff 
  280d9c:	8d 34 01             	lea    (%ecx,%eax,1),%esi
  unsigned short  d;
  unsigned short *pt=(unsigned short *)(font-32*24);
  for(row=0;row<24;row++)
  {
    d=pt[row];
    for(col=0;col<16;col++)
  280d9f:	31 c0                	xor    %eax,%eax
    {
       if( (d&(1 << col) ))
  280da1:	0f a3 c7             	bt     %eax,%edi
  280da4:	73 03                	jae    280da9 <putfont16+0x3b>
     // if((d<<col)&0x0001)
      {
	vram[(y+row)*xsize+x+col]=color;
  280da6:	88 1c 06             	mov    %bl,(%esi,%eax,1)
  unsigned short  d;
  unsigned short *pt=(unsigned short *)(font-32*24);
  for(row=0;row<24;row++)
  {
    d=pt[row];
    for(col=0;col<16;col++)
  280da9:	40                   	inc    %eax
  280daa:	83 f8 10             	cmp    $0x10,%eax
  280dad:	75 f2                	jne    280da1 <putfont16+0x33>
void putfont16(char *vram ,int xsize,int x,int y,char color,unsigned short *font)//x=0 311 y=0 183
{
  int row,col;
  unsigned short  d;
  unsigned short *pt=(unsigned short *)(font-32*24);
  for(row=0;row<24;row++)
  280daf:	42                   	inc    %edx
  280db0:	03 4d 0c             	add    0xc(%ebp),%ecx
  280db3:	83 fa 18             	cmp    $0x18,%edx
  280db6:	75 d6                	jne    280d8e <putfont16+0x20>
    }

  }
  return;

}
  280db8:	58                   	pop    %eax
  280db9:	5b                   	pop    %ebx
  280dba:	5e                   	pop    %esi
  280dbb:	5f                   	pop    %edi
  280dbc:	5d                   	pop    %ebp
  280dbd:	c3                   	ret    

00280dbe <puts16>:
  return;

}
//print string: big string
void puts16(char *vram ,int xsize,int x,int y,char color,char *font)
{
  280dbe:	55                   	push   %ebp
  280dbf:	89 e5                	mov    %esp,%ebp
  280dc1:	57                   	push   %edi
  280dc2:	8b 7d 10             	mov    0x10(%ebp),%edi
  280dc5:	56                   	push   %esi
  280dc6:	8b 75 14             	mov    0x14(%ebp),%esi
  280dc9:	53                   	push   %ebx

    }
    else
    {
	pt=(unsigned short *)((*font)*24+ASCII_Table);
	putfont16(vram ,xsize,x,y,color,pt);
  280dca:	0f be 5d 18          	movsbl 0x18(%ebp),%ebx
}
//print string: big string
void puts16(char *vram ,int xsize,int x,int y,char color,char *font)
{
  unsigned short  *pt;
  while(*font)
  280dce:	8b 45 1c             	mov    0x1c(%ebp),%eax
  280dd1:	0f be 00             	movsbl (%eax),%eax
  280dd4:	84 c0                	test   %al,%al
  280dd6:	74 2d                	je     280e05 <puts16+0x47>
  {
    if(*font=='\n')
  280dd8:	3c 0a                	cmp    $0xa,%al
  280dda:	75 07                	jne    280de3 <puts16+0x25>
    {
      x=0;
      y=y+24;
  280ddc:	83 c6 18             	add    $0x18,%esi
  unsigned short  *pt;
  while(*font)
  {
    if(*font=='\n')
    {
      x=0;
  280ddf:	31 ff                	xor    %edi,%edi
  280de1:	eb 1d                	jmp    280e00 <puts16+0x42>
      y=y+24;

    }
    else
    {
	pt=(unsigned short *)((*font)*24+ASCII_Table);
  280de3:	6b c0 30             	imul   $0x30,%eax,%eax
  280de6:	05 28 22 28 00       	add    $0x282228,%eax
	putfont16(vram ,xsize,x,y,color,pt);
  280deb:	50                   	push   %eax
  280dec:	53                   	push   %ebx
  280ded:	56                   	push   %esi
  280dee:	57                   	push   %edi
	x=x+16;
  280def:	83 c7 10             	add    $0x10,%edi

    }
    else
    {
	pt=(unsigned short *)((*font)*24+ASCII_Table);
	putfont16(vram ,xsize,x,y,color,pt);
  280df2:	ff 75 0c             	pushl  0xc(%ebp)
  280df5:	ff 75 08             	pushl  0x8(%ebp)
  280df8:	e8 71 ff ff ff       	call   280d6e <putfont16>
	x=x+16;
  280dfd:	83 c4 18             	add    $0x18,%esp


    }

     font++;
  280e00:	ff 45 1c             	incl   0x1c(%ebp)
  280e03:	eb c9                	jmp    280dce <puts16+0x10>

  }

}
  280e05:	8d 65 f4             	lea    -0xc(%ebp),%esp
  280e08:	5b                   	pop    %ebx
  280e09:	5e                   	pop    %esi
  280e0a:	5f                   	pop    %edi
  280e0b:	5d                   	pop    %ebp
  280e0c:	c3                   	ret    

00280e0d <setgdt>:
#include<header.h>



void setgdt(struct GDT *sd ,unsigned int limit,int base,int access)//sd: selector describe
{
  280e0d:	55                   	push   %ebp
  280e0e:	89 e5                	mov    %esp,%ebp
  280e10:	8b 55 0c             	mov    0xc(%ebp),%edx
  280e13:	57                   	push   %edi
  280e14:	8b 45 08             	mov    0x8(%ebp),%eax
  280e17:	56                   	push   %esi
  280e18:	8b 7d 14             	mov    0x14(%ebp),%edi
  280e1b:	53                   	push   %ebx
  280e1c:	8b 5d 10             	mov    0x10(%ebp),%ebx
  if(limit>0xffff)
  280e1f:	81 fa ff ff 00 00    	cmp    $0xffff,%edx
  280e25:	76 09                	jbe    280e30 <setgdt+0x23>
  {
    access|=0x8000;
  280e27:	81 cf 00 80 00 00    	or     $0x8000,%edi
    limit /=0x1000;
  280e2d:	c1 ea 0c             	shr    $0xc,%edx
  }
  sd->limit_low=limit&0xffff;
  sd->base_low=base &0xffff;
  sd->base_mid=(base>>16)&0xff;
  280e30:	89 de                	mov    %ebx,%esi
  280e32:	c1 fe 10             	sar    $0x10,%esi
  280e35:	89 f1                	mov    %esi,%ecx
  280e37:	88 48 04             	mov    %cl,0x4(%eax)
  sd->access_right=access&0xff;
  280e3a:	89 f9                	mov    %edi,%ecx
  sd->limit_high=((limit>>16)&0x0f)|((access>>8)&0xf0);//低４位是limt的高位，高４位是访问的权限设置。
  280e3c:	c1 ff 08             	sar    $0x8,%edi
    limit /=0x1000;
  }
  sd->limit_low=limit&0xffff;
  sd->base_low=base &0xffff;
  sd->base_mid=(base>>16)&0xff;
  sd->access_right=access&0xff;
  280e3f:	88 48 05             	mov    %cl,0x5(%eax)
  sd->limit_high=((limit>>16)&0x0f)|((access>>8)&0xf0);//低４位是limt的高位，高４位是访问的权限设置。
  280e42:	89 f9                	mov    %edi,%ecx
  if(limit>0xffff)
  {
    access|=0x8000;
    limit /=0x1000;
  }
  sd->limit_low=limit&0xffff;
  280e44:	66 89 10             	mov    %dx,(%eax)
  sd->base_low=base &0xffff;
  sd->base_mid=(base>>16)&0xff;
  sd->access_right=access&0xff;
  sd->limit_high=((limit>>16)&0x0f)|((access>>8)&0xf0);//低４位是limt的高位，高４位是访问的权限设置。
  280e47:	83 e1 f0             	and    $0xfffffff0,%ecx
  280e4a:	c1 ea 10             	shr    $0x10,%edx
  {
    access|=0x8000;
    limit /=0x1000;
  }
  sd->limit_low=limit&0xffff;
  sd->base_low=base &0xffff;
  280e4d:	66 89 58 02          	mov    %bx,0x2(%eax)
  sd->base_mid=(base>>16)&0xff;
  sd->access_right=access&0xff;
  sd->limit_high=((limit>>16)&0x0f)|((access>>8)&0xf0);//低４位是limt的高位，高４位是访问的权限设置。
  280e51:	09 d1                	or     %edx,%ecx
  sd->base_high=(base>>24)&0xff;
  280e53:	c1 eb 18             	shr    $0x18,%ebx
  }
  sd->limit_low=limit&0xffff;
  sd->base_low=base &0xffff;
  sd->base_mid=(base>>16)&0xff;
  sd->access_right=access&0xff;
  sd->limit_high=((limit>>16)&0x0f)|((access>>8)&0xf0);//低４位是limt的高位，高４位是访问的权限设置。
  280e56:	88 48 06             	mov    %cl,0x6(%eax)
  sd->base_high=(base>>24)&0xff;
  280e59:	88 58 07             	mov    %bl,0x7(%eax)

}
  280e5c:	5b                   	pop    %ebx
  280e5d:	5e                   	pop    %esi
  280e5e:	5f                   	pop    %edi
  280e5f:	5d                   	pop    %ebp
  280e60:	c3                   	ret    

00280e61 <setidt>:

void setidt(struct IDT *gd,int offset,int selector,int access)//gd: gate describe
{
  280e61:	55                   	push   %ebp
  280e62:	89 e5                	mov    %esp,%ebp
  280e64:	8b 45 08             	mov    0x8(%ebp),%eax
  280e67:	8b 4d 0c             	mov    0xc(%ebp),%ecx
  280e6a:	8b 55 14             	mov    0x14(%ebp),%edx
  //idt中有32位的offset address
  gd->offset_low=offset & 0xffff;
  280e6d:	66 89 08             	mov    %cx,(%eax)
  gd->offset_high=(offset>>16)&0xffff;
  280e70:	c1 e9 10             	shr    $0x10,%ecx
  280e73:	66 89 48 06          	mov    %cx,0x6(%eax)

  //16位的selector决定了base address
  gd->selector=selector;
  280e77:	8b 4d 10             	mov    0x10(%ebp),%ecx

  gd->dw_count=(access>>8)&0xff;
  gd->access_right=(char)(access&0xff);//晕倒啊，是不是啊，天啊，访问权限是一个非常重要的量，错一点都不行的
  280e7a:	88 50 05             	mov    %dl,0x5(%eax)
  //idt中有32位的offset address
  gd->offset_low=offset & 0xffff;
  gd->offset_high=(offset>>16)&0xffff;

  //16位的selector决定了base address
  gd->selector=selector;
  280e7d:	66 89 48 02          	mov    %cx,0x2(%eax)

  gd->dw_count=(access>>8)&0xff;
  280e81:	89 d1                	mov    %edx,%ecx
  280e83:	c1 f9 08             	sar    $0x8,%ecx
  280e86:	88 48 04             	mov    %cl,0x4(%eax)
  gd->access_right=(char)(access&0xff);//晕倒啊，是不是啊，天啊，访问权限是一个非常重要的量，错一点都不行的


}
  280e89:	5d                   	pop    %ebp
  280e8a:	c3                   	ret    

00280e8b <init_gdtidt>:



void  init_gdtidt()
{
  280e8b:	55                   	push   %ebp
  280e8c:	89 e5                	mov    %esp,%ebp
  280e8e:	53                   	push   %ebx
  280e8f:	53                   	push   %ebx
  280e90:	bb 00 00 27 00       	mov    $0x270000,%ebx
  struct GDT *gdt=(struct GDT *)(0x00270000);
  struct IDT *idt=(struct IDT *)(0x0026f800);
  int i;
  for(i=0;i<8192;i++)
  {
    setgdt(gdt+i,0,0,0);
  280e95:	6a 00                	push   $0x0
  280e97:	6a 00                	push   $0x0
  280e99:	6a 00                	push   $0x0
  280e9b:	53                   	push   %ebx
  280e9c:	83 c3 08             	add    $0x8,%ebx
  280e9f:	e8 69 ff ff ff       	call   280e0d <setgdt>
void  init_gdtidt()
{
  struct GDT *gdt=(struct GDT *)(0x00270000);
  struct IDT *idt=(struct IDT *)(0x0026f800);
  int i;
  for(i=0;i<8192;i++)
  280ea4:	83 c4 10             	add    $0x10,%esp
  280ea7:	81 fb 00 00 28 00    	cmp    $0x280000,%ebx
  280ead:	75 e6                	jne    280e95 <init_gdtidt+0xa>
  {
    setgdt(gdt+i,0,0,0);
  }
  setgdt(gdt+1,0xffffffff   ,0x00000000,0x4092);//entry.s main.c data 4GB空间的数据都能访问
  280eaf:	68 92 40 00 00       	push   $0x4092
  280eb4:	6a 00                	push   $0x0
  280eb6:	6a ff                	push   $0xffffffff
  280eb8:	68 08 00 27 00       	push   $0x270008
  280ebd:	e8 4b ff ff ff       	call   280e0d <setgdt>
  setgdt(gdt+2,0x000fffff   ,0x00000000,0x409a);//entry.S code
  280ec2:	68 9a 40 00 00       	push   $0x409a
  280ec7:	6a 00                	push   $0x0
  280ec9:	68 ff ff 0f 00       	push   $0xfffff
  280ece:	68 10 00 27 00       	push   $0x270010
  280ed3:	e8 35 ff ff ff       	call   280e0d <setgdt>
  setgdt(gdt+3,0x000fffff   ,0x00280000,0x409a);  //main.c code　 0x7ffff=512kB
  280ed8:	83 c4 20             	add    $0x20,%esp
  280edb:	68 9a 40 00 00       	push   $0x409a
  280ee0:	68 00 00 28 00       	push   $0x280000
  280ee5:	68 ff ff 0f 00       	push   $0xfffff
  280eea:	68 18 00 27 00       	push   $0x270018
  280eef:	e8 19 ff ff ff       	call   280e0d <setgdt>

   load_gdtr(0xfff,0X00270000);//this is right
  280ef4:	5a                   	pop    %edx
  280ef5:	59                   	pop    %ecx
  280ef6:	68 00 00 27 00       	push   $0x270000
  280efb:	68 ff 0f 00 00       	push   $0xfff
  280f00:	e8 d1 01 00 00       	call   2810d6 <load_gdtr>
  280f05:	83 c4 10             	add    $0x10,%esp
  280f08:	31 c0                	xor    %eax,%eax
}

void setidt(struct IDT *gd,int offset,int selector,int access)//gd: gate describe
{
  //idt中有32位的offset address
  gd->offset_low=offset & 0xffff;
  280f0a:	66 c7 80 00 f8 26 00 	movw   $0x0,0x26f800(%eax)
  280f11:	00 00 
  280f13:	83 c0 08             	add    $0x8,%eax
  gd->offset_high=(offset>>16)&0xffff;
  280f16:	66 c7 80 fe f7 26 00 	movw   $0x0,0x26f7fe(%eax)
  280f1d:	00 00 

  //16位的selector决定了base address
  gd->selector=selector;
  280f1f:	66 c7 80 fa f7 26 00 	movw   $0x0,0x26f7fa(%eax)
  280f26:	00 00 

  gd->dw_count=(access>>8)&0xff;
  280f28:	c6 80 fc f7 26 00 00 	movb   $0x0,0x26f7fc(%eax)
  gd->access_right=(char)(access&0xff);//晕倒啊，是不是啊，天啊，访问权限是一个非常重要的量，错一点都不行的
  280f2f:	c6 80 fd f7 26 00 00 	movb   $0x0,0x26f7fd(%eax)
  setgdt(gdt+2,0x000fffff   ,0x00000000,0x409a);//entry.S code
  setgdt(gdt+3,0x000fffff   ,0x00280000,0x409a);  //main.c code　 0x7ffff=512kB

   load_gdtr(0xfff,0X00270000);//this is right

  for(i=0;i<256;i++)
  280f36:	3d 00 08 00 00       	cmp    $0x800,%eax
  280f3b:	75 cd                	jne    280f0a <init_gdtidt+0x7f>

void setidt(struct IDT *gd,int offset,int selector,int access)//gd: gate describe
{
  //idt中有32位的offset address
  gd->offset_low=offset & 0xffff;
  gd->offset_high=(offset>>16)&0xffff;
  280f3d:	ba a0 10 28 00       	mov    $0x2810a0,%edx
  280f42:	66 31 c0             	xor    %ax,%ax
  280f45:	c1 ea 10             	shr    $0x10,%edx
}

void setidt(struct IDT *gd,int offset,int selector,int access)//gd: gate describe
{
  //idt中有32位的offset address
  gd->offset_low=offset & 0xffff;
  280f48:	b9 a0 10 28 00       	mov    $0x2810a0,%ecx
  280f4d:	66 89 88 00 f8 26 00 	mov    %cx,0x26f800(%eax)
  280f54:	83 c0 08             	add    $0x8,%eax
  gd->offset_high=(offset>>16)&0xffff;
  280f57:	66 89 90 fe f7 26 00 	mov    %dx,0x26f7fe(%eax)

  //16位的selector决定了base address
  gd->selector=selector;
  280f5e:	66 c7 80 fa f7 26 00 	movw   $0x18,0x26f7fa(%eax)
  280f65:	18 00 

  gd->dw_count=(access>>8)&0xff;
  280f67:	c6 80 fc f7 26 00 00 	movb   $0x0,0x26f7fc(%eax)
  gd->access_right=(char)(access&0xff);//晕倒啊，是不是啊，天啊，访问权限是一个非常重要的量，错一点都不行的
  280f6e:	c6 80 fd f7 26 00 8e 	movb   $0x8e,0x26f7fd(%eax)
  for(i=0;i<256;i++)
  {
    setidt(idt+i,0,0,0);
  }

  for(i=0;i<256;i++)
  280f75:	3d 00 08 00 00       	cmp    $0x800,%eax
  280f7a:	75 d1                	jne    280f4d <init_gdtidt+0xc2>
  {
      setidt(idt+i,(int)asm_inthandler21,3*8,0x008e);//用printdebug显示之后，证明这一部分是写进去了

  }
  setidt(idt+0x21,(int)asm_inthandler21-0x280000,3*8,0x008e);//挂载keyboard interrupt service
  280f7c:	b8 a0 10 00 00       	mov    $0x10a0,%eax
}

void setidt(struct IDT *gd,int offset,int selector,int access)//gd: gate describe
{
  //idt中有32位的offset address
  gd->offset_low=offset & 0xffff;
  280f81:	66 a3 08 f9 26 00    	mov    %ax,0x26f908
  gd->offset_high=(offset>>16)&0xffff;
  280f87:	c1 e8 10             	shr    $0x10,%eax
  280f8a:	66 a3 0e f9 26 00    	mov    %ax,0x26f90e
  {
      setidt(idt+i,(int)asm_inthandler21,3*8,0x008e);//用printdebug显示之后，证明这一部分是写进去了

  }
  setidt(idt+0x21,(int)asm_inthandler21-0x280000,3*8,0x008e);//挂载keyboard interrupt service
  setidt(idt+0x2c,(int)asm_inthandler2c-0x280000,3*8,0x008e);//挂载mouse 　　interrupt service
  280f90:	b8 bb 10 00 00       	mov    $0x10bb,%eax
}

void setidt(struct IDT *gd,int offset,int selector,int access)//gd: gate describe
{
  //idt中有32位的offset address
  gd->offset_low=offset & 0xffff;
  280f95:	66 a3 60 f9 26 00    	mov    %ax,0x26f960
  gd->offset_high=(offset>>16)&0xffff;
  280f9b:	c1 e8 10             	shr    $0x10,%eax
  280f9e:	66 a3 66 f9 26 00    	mov    %ax,0x26f966

  //16位的selector决定了base address
  gd->selector=selector;
  280fa4:	66 c7 05 0a f9 26 00 	movw   $0x18,0x26f90a
  280fab:	18 00 

  gd->dw_count=(access>>8)&0xff;
  280fad:	c6 05 0c f9 26 00 00 	movb   $0x0,0x26f90c
  gd->access_right=(char)(access&0xff);//晕倒啊，是不是啊，天啊，访问权限是一个非常重要的量，错一点都不行的
  280fb4:	c6 05 0d f9 26 00 8e 	movb   $0x8e,0x26f90d
  //idt中有32位的offset address
  gd->offset_low=offset & 0xffff;
  gd->offset_high=(offset>>16)&0xffff;

  //16位的selector决定了base address
  gd->selector=selector;
  280fbb:	66 c7 05 62 f9 26 00 	movw   $0x18,0x26f962
  280fc2:	18 00 

  gd->dw_count=(access>>8)&0xff;
  280fc4:	c6 05 64 f9 26 00 00 	movb   $0x0,0x26f964
  gd->access_right=(char)(access&0xff);//晕倒啊，是不是啊，天啊，访问权限是一个非常重要的量，错一点都不行的
  280fcb:	c6 05 65 f9 26 00 8e 	movb   $0x8e,0x26f965

 // setidt(idt+0x21,(int)asm_inthandler21,2*8,0x008e);//挂载keyboard interrupt service
 // setidt(idt+0x2c,(int)asm_inthandler2c,2*8,0x008e);//挂载mouse 　　interrupt serv
  //printdebug(asm_inthandler2c,0);

  load_idtr(0x7ff,0x0026f800);//this is right
  280fd2:	50                   	push   %eax
  280fd3:	50                   	push   %eax
  280fd4:	68 00 f8 26 00       	push   $0x26f800
  280fd9:	68 ff 07 00 00       	push   $0x7ff
  280fde:	e8 03 01 00 00       	call   2810e6 <load_idtr>
  280fe3:	83 c4 10             	add    $0x10,%esp



  return;

}
  280fe6:	8b 5d fc             	mov    -0x4(%ebp),%ebx
  280fe9:	c9                   	leave  
  280fea:	c3                   	ret    

00280feb <init_pic>:
#define PIC1_ICW4		0x00a1
*/

//remap irq0-irq15到int 0x20到int 0x2f
void init_pic()
{
  280feb:	55                   	push   %ebp
// out:write a data to a port
static __inline void
outb(int port, uint8_t data)
{
  //data是变量0%0 , port是变量word１%w1
	__asm __volatile("outb %0,%w1" : : "a" (data), "d" (port));
  280fec:	ba 21 00 00 00       	mov    $0x21,%edx
  280ff1:	89 e5                	mov    %esp,%ebp
  280ff3:	b0 ff                	mov    $0xff,%al
  280ff5:	ee                   	out    %al,(%dx)
  280ff6:	b2 a1                	mov    $0xa1,%dl
  280ff8:	ee                   	out    %al,(%dx)
  280ff9:	b0 11                	mov    $0x11,%al
  280ffb:	b2 20                	mov    $0x20,%dl
  280ffd:	ee                   	out    %al,(%dx)
  280ffe:	b0 20                	mov    $0x20,%al
  281000:	b2 21                	mov    $0x21,%dl
  281002:	ee                   	out    %al,(%dx)
  281003:	b0 04                	mov    $0x4,%al
  281005:	ee                   	out    %al,(%dx)
  281006:	b0 01                	mov    $0x1,%al
  281008:	ee                   	out    %al,(%dx)
  281009:	b0 11                	mov    $0x11,%al
  28100b:	b2 a0                	mov    $0xa0,%dl
  28100d:	ee                   	out    %al,(%dx)
  28100e:	b0 28                	mov    $0x28,%al
  281010:	b2 a1                	mov    $0xa1,%dl
  281012:	ee                   	out    %al,(%dx)
  281013:	b0 02                	mov    $0x2,%al
  281015:	ee                   	out    %al,(%dx)
  281016:	b0 01                	mov    $0x1,%al
  281018:	ee                   	out    %al,(%dx)
  281019:	b0 fb                	mov    $0xfb,%al
  28101b:	b2 21                	mov    $0x21,%dl
  28101d:	ee                   	out    %al,(%dx)
  28101e:	b0 ff                	mov    $0xff,%al
  281020:	b2 a1                	mov    $0xa1,%dl
  281022:	ee                   	out    %al,(%dx)

所以cpu发现是产生了int 0到int0x1f时，就知道是非常重要的中断产生了，是不可mask的，一定要执行的。

   */

}
  281023:	5d                   	pop    %ebp
  281024:	c3                   	ret    

00281025 <inthandler21>:
struct FIFO8 keyfifo;//a global data
//上面是一个全局变量

//interrupt service procedure for keyboard  中断服务程序，读取按键的键值。
void inthandler21(int *esp)
{
  281025:	55                   	push   %ebp
  281026:	ba 20 00 00 00       	mov    $0x20,%edx
  28102b:	89 e5                	mov    %esp,%ebp
  28102d:	b0 61                	mov    $0x61,%al
  28102f:	83 ec 10             	sub    $0x10,%esp
  281032:	ee                   	out    %al,(%dx)
static __inline uint8_t
inb(int port)
{
  //read a byte from port
	uint8_t data;
	__asm __volatile("inb %w1,%0" : "=a" (data) : "d" (port));
  281033:	b2 60                	mov    $0x60,%dl
  281035:	ec                   	in     (%dx),%al
  //struct  boot_info *binfo=(struct boot_info *)ADDR_BOOT;
  unsigned char data;
  outb(PIC0_OCW2,0X61);//0X61-->PIC0_OCW2 　告之pic0这个芯片，irq1中断(就是keyboard产生的中断)cpu已经处理，这样pic0才会响应　下一次的irq1中断
  //如果不告之pic0已经处理了这次中断，pico对已后的irq1中断就会响应了。这种cpu处理完了中断，对pic0的反馈机制是非常好的，不会漏掉任何数据。
  data=inb(PORT_KEYDAT);
  fifo8_write(&keyfifo,data);
  281036:	0f b6 c0             	movzbl %al,%eax
  281039:	50                   	push   %eax
  28103a:	68 20 3e 28 00       	push   $0x283e20
  28103f:	e8 dd 00 00 00       	call   281121 <fifo8_write>
  281044:	83 c4 10             	add    $0x10,%esp
  //puts8((char *)binfo->vram ,binfo->xsize,0,0,7,s);

  //while(1)
  //io_halt();
  
}
  281047:	c9                   	leave  
  281048:	c3                   	ret    

00281049 <inthandler2c>:
//中断处理程序不应该有大量的处理部分，应该得到数据后，马上回去，在主函数中处理信息才是对的，与５１中是一个道理。isr尽量短小。

//interrupt service for mouse 
struct FIFO8 mousefifo;
void inthandler2c(int *esp)//可以看到一运行enable_后就，就产生了中断，进入了这个中断服务函数。
{
  281049:	55                   	push   %ebp
// out:write a data to a port
static __inline void
outb(int port, uint8_t data)
{
  //data是变量0%0 , port是变量word１%w1
	__asm __volatile("outb %0,%w1" : : "a" (data), "d" (port));
  28104a:	ba a0 00 00 00       	mov    $0xa0,%edx
  28104f:	89 e5                	mov    %esp,%ebp
  281051:	b0 64                	mov    $0x64,%al
  281053:	83 ec 10             	sub    $0x10,%esp
  281056:	ee                   	out    %al,(%dx)
  281057:	b0 62                	mov    $0x62,%al
  281059:	b2 20                	mov    $0x20,%dl
  28105b:	ee                   	out    %al,(%dx)
static __inline uint8_t
inb(int port)
{
  //read a byte from port
	uint8_t data;
	__asm __volatile("inb %w1,%0" : "=a" (data) : "d" (port));
  28105c:	b2 60                	mov    $0x60,%dl
  28105e:	ec                   	in     (%dx),%al
  
  unsigned char data;
  outb(PIC1_OCW2,0X64);//cpu tell pic1　that I got IRQ12 
  outb(PIC0_OCW2,0X62);//cpu tell pic0  that I got IRQ2
  data = inb(PORT_KEYDAT);
  fifo8_write(&mousefifo,data);
  28105f:	0f b6 c0             	movzbl %al,%eax
  281062:	50                   	push   %eax
  281063:	68 38 3e 28 00       	push   $0x283e38
  281068:	e8 b4 00 00 00       	call   281121 <fifo8_write>
  28106d:	83 c4 10             	add    $0x10,%esp
  puts8((char *)binfo->vram ,binfo->xsize,0,0,7,"int2c(IRQ-12):PS2/mouse");

 // while(1)
 // hlt();
 */
}
  281070:	c9                   	leave  
  281071:	c3                   	ret    

00281072 <wait_KBC_sendready>:
//for mouse and keyboard control circuit,鼠标，键盘控制电路的初始化。
//#define PORT_KEYDAT 		0X0060


void wait_KBC_sendready(void)				//send ready and wait keyboard control ready
{
  281072:	55                   	push   %ebp
  281073:	ba 64 00 00 00       	mov    $0x64,%edx
  281078:	89 e5                	mov    %esp,%ebp
  28107a:	ec                   	in     (%dx),%al
  while(1)
  {
    /*等待按键控制电路准备完毕*/
    if( (inb(PORT_KEYSTA) & KEYSTA_SEND_NOTREADY) == 0)	//读port 0x0064 看bit1是否是为０/if 0 ready ,if 1 not ready　
  28107b:	a8 02                	test   $0x2,%al
  28107d:	75 fb                	jne    28107a <wait_KBC_sendready+0x8>
    {							//bit 1是０说明键盘控制电路是准备好的，可以接受cpu的指令了。
      break;
    }
  }
  
}
  28107f:	5d                   	pop    %ebp
  281080:	c3                   	ret    

00281081 <init_keyboard>:

void init_keyboard(void)
{
  281081:	55                   	push   %ebp
  281082:	89 e5                	mov    %esp,%ebp
  /*这里才是真正的初始化按键电路*/
  wait_KBC_sendready();				//wait ready
  281084:	e8 e9 ff ff ff       	call   281072 <wait_KBC_sendready>
// out:write a data to a port
static __inline void
outb(int port, uint8_t data)
{
  //data是变量0%0 , port是变量word１%w1
	__asm __volatile("outb %0,%w1" : : "a" (data), "d" (port));
  281089:	ba 64 00 00 00       	mov    $0x64,%edx
  28108e:	b0 60                	mov    $0x60,%al
  281090:	ee                   	out    %al,(%dx)
  outb(PORT_KEYCMD,KEYCMD_WRITE_MODE);		//向port 0x0064写　0x60
  wait_KBC_sendready();				//保证能写入有效的数据到　port 0x0064
  281091:	e8 dc ff ff ff       	call   281072 <wait_KBC_sendready>
  281096:	ba 60 00 00 00       	mov    $0x60,%edx
  28109b:	b0 47                	mov    $0x47,%al
  28109d:	ee                   	out    %al,(%dx)
  outb(PORT_KEYDAT,KBC_MODE);			//向port 0x0060 写数据0x47
  return;
  
}
  28109e:	5d                   	pop    %ebp
  28109f:	c3                   	ret    

002810a0 <asm_inthandler21>:
.global load_idtr

.code32
#interrupt service about keyboad
asm_inthandler21:
  pushw %es
  2810a0:	66 06                	pushw  %es
  pushw %ds
  2810a2:	66 1e                	pushw  %ds
  pushal
  2810a4:	60                   	pusha  
  movl %esp,%eax
  2810a5:	89 e0                	mov    %esp,%eax
  pushl %eax
  2810a7:	50                   	push   %eax
  movw %ss,%ax
  2810a8:	66 8c d0             	mov    %ss,%ax
  movw %ax,%ds
  2810ab:	8e d8                	mov    %eax,%ds
  movw %ax,%es
  2810ad:	8e c0                	mov    %eax,%es
  call inthandler21
  2810af:	e8 71 ff ff ff       	call   281025 <inthandler21>
  
  popl %eax
  2810b4:	58                   	pop    %eax
  popal
  2810b5:	61                   	popa   
  popw %ds
  2810b6:	66 1f                	popw   %ds
  popW %es
  2810b8:	66 07                	popw   %es
  iretl
  2810ba:	cf                   	iret   

002810bb <asm_inthandler2c>:
  
#interrupt service about mouse
asm_inthandler2c:
  pushw %es
  2810bb:	66 06                	pushw  %es
  pushw %ds
  2810bd:	66 1e                	pushw  %ds
  pushal
  2810bf:	60                   	pusha  
  movl %esp,%eax
  2810c0:	89 e0                	mov    %esp,%eax
  pushl %eax
  2810c2:	50                   	push   %eax
  movw %ss,%ax
  2810c3:	66 8c d0             	mov    %ss,%ax
  movw %ax,%ds
  2810c6:	8e d8                	mov    %eax,%ds
  movw %ax,%es
  2810c8:	8e c0                	mov    %eax,%es
  call inthandler2c
  2810ca:	e8 7a ff ff ff       	call   281049 <inthandler2c>
  
  popl %eax
  2810cf:	58                   	pop    %eax
  popal
  2810d0:	61                   	popa   
  popw %ds
  2810d1:	66 1f                	popw   %ds
  popW %es
  2810d3:	66 07                	popw   %es
  iretl
  2810d5:	cf                   	iret   

002810d6 <load_gdtr>:
  #iret 与iretl有什么区别？？？
load_gdtr:		#; void load_gdtr(int limit, int addr);
  mov 4(%esp) ,%ax
  2810d6:	66 8b 44 24 04       	mov    0x4(%esp),%ax
  mov %ax,6(%esp)
  2810db:	66 89 44 24 06       	mov    %ax,0x6(%esp)
  lgdt 6(%esp)
  2810e0:	0f 01 54 24 06       	lgdtl  0x6(%esp)
  ret
  2810e5:	c3                   	ret    

002810e6 <load_idtr>:


load_idtr:		#; void load_idtr(int limit, int addr);
  mov 4(%esp) ,%ax
  2810e6:	66 8b 44 24 04       	mov    0x4(%esp),%ax
  mov %ax,6(%esp)
  2810eb:	66 89 44 24 06       	mov    %ax,0x6(%esp)
  lidt 6(%esp)
  2810f0:	0f 01 5c 24 06       	lidtl  0x6(%esp)
  2810f5:	c3                   	ret    

002810f6 <fifo8_init>:
#include<header.h>

//初始化fifo8,是对一个结构体类型的变量进行初始化，这个结构体类型的变量就是一个fifo对象。
void fifo8_init(struct FIFO8 *fifo,int size ,unsigned char *buf)
{
  2810f6:	55                   	push   %ebp
  2810f7:	89 e5                	mov    %esp,%ebp
  2810f9:	8b 45 08             	mov    0x8(%ebp),%eax
  2810fc:	8b 55 0c             	mov    0xc(%ebp),%edx
  fifo->buf=buf;
  2810ff:	8b 4d 10             	mov    0x10(%ebp),%ecx
  fifo->size=size;
  fifo->free=size;
  fifo->nr=0;
  281102:	c7 40 08 00 00 00 00 	movl   $0x0,0x8(%eax)

//初始化fifo8,是对一个结构体类型的变量进行初始化，这个结构体类型的变量就是一个fifo对象。
void fifo8_init(struct FIFO8 *fifo,int size ,unsigned char *buf)
{
  fifo->buf=buf;
  fifo->size=size;
  281109:	89 50 0c             	mov    %edx,0xc(%eax)
#include<header.h>

//初始化fifo8,是对一个结构体类型的变量进行初始化，这个结构体类型的变量就是一个fifo对象。
void fifo8_init(struct FIFO8 *fifo,int size ,unsigned char *buf)
{
  fifo->buf=buf;
  28110c:	89 08                	mov    %ecx,(%eax)
  fifo->size=size;
  fifo->free=size;
  28110e:	89 50 10             	mov    %edx,0x10(%eax)
  fifo->nr=0;
  fifo->nw=0;
  281111:	c7 40 04 00 00 00 00 	movl   $0x0,0x4(%eax)
  fifo->flags=0;
  281118:	c7 40 14 00 00 00 00 	movl   $0x0,0x14(%eax)
}
  28111f:	5d                   	pop    %ebp
  281120:	c3                   	ret    

00281121 <fifo8_write>:


#define FLAGS_OVERRUN 0X0001
//下面的函数是对fifo类型的变量，写入数据。
int fifo8_write(struct FIFO8 *fifo,unsigned char data)
{
  281121:	55                   	push   %ebp
  281122:	89 e5                	mov    %esp,%ebp
  281124:	8b 45 08             	mov    0x8(%ebp),%eax
  281127:	53                   	push   %ebx
  281128:	8b 5d 0c             	mov    0xc(%ebp),%ebx
  if(fifo->free==0)//fifo is full ,no room for any data
  28112b:	83 78 10 00          	cmpl   $0x0,0x10(%eax)
  28112f:	75 09                	jne    28113a <fifo8_write+0x19>
  {
    fifo->flags|=FLAGS_OVERRUN;//if fifo->flags is TRUE, fifo已经满了，不能再写了。
  281131:	83 48 14 01          	orl    $0x1,0x14(%eax)
    return -1; //write error
  281135:	83 c8 ff             	or     $0xffffffff,%eax
  281138:	eb 22                	jmp    28115c <fifo8_write+0x3b>
  }
  
  
 fifo->buf[fifo->nw]=data;
  28113a:	8b 50 04             	mov    0x4(%eax),%edx
  28113d:	8b 08                	mov    (%eax),%ecx
  28113f:	88 1c 11             	mov    %bl,(%ecx,%edx,1)
 fifo->nw++;
  281142:	8b 48 04             	mov    0x4(%eax),%ecx
  281145:	8d 51 01             	lea    0x1(%ecx),%edx
 if(fifo->nw==fifo->size)
  281148:	3b 50 0c             	cmp    0xc(%eax),%edx
    return -1; //write error
  }
  
  
 fifo->buf[fifo->nw]=data;
 fifo->nw++;
  28114b:	89 50 04             	mov    %edx,0x4(%eax)
 if(fifo->nw==fifo->size)
  28114e:	75 07                	jne    281157 <fifo8_write+0x36>
 {
  fifo->nw=0;  
  281150:	c7 40 04 00 00 00 00 	movl   $0x0,0x4(%eax)
 }
 fifo->free--;
  281157:	ff 48 10             	decl   0x10(%eax)
 return 0;//write sucessful
  28115a:	31 c0                	xor    %eax,%eax
 
}
  28115c:	5b                   	pop    %ebx
  28115d:	5d                   	pop    %ebp
  28115e:	c3                   	ret    

0028115f <fifo8_read>:
//只有写fifo 会有fifo full的情况，
//读fifo时，会有empty的情况。
int fifo8_read(struct FIFO8 *fifo)
{
  28115f:	55                   	push   %ebp
  281160:	89 e5                	mov    %esp,%ebp
  281162:	8b 55 08             	mov    0x8(%ebp),%edx
  281165:	57                   	push   %edi
  281166:	56                   	push   %esi
  281167:	53                   	push   %ebx
  int data;
  if(fifo->free==fifo->size)//fifo is empty ,no data is useful
  281168:	8b 5a 10             	mov    0x10(%edx),%ebx
  28116b:	8b 7a 0c             	mov    0xc(%edx),%edi
  28116e:	39 fb                	cmp    %edi,%ebx
  281170:	74 1a                	je     28118c <fifo8_read+0x2d>
  {
    return -1;
  }
  
  data=fifo->buf[fifo->nr];
  281172:	8b 72 08             	mov    0x8(%edx),%esi
  fifo->nr++;
  281175:	31 c9                	xor    %ecx,%ecx
  if(fifo->free==fifo->size)//fifo is empty ,no data is useful
  {
    return -1;
  }
  
  data=fifo->buf[fifo->nr];
  281177:	8b 02                	mov    (%edx),%eax
  281179:	0f b6 04 30          	movzbl (%eax,%esi,1),%eax
  fifo->nr++;
  28117d:	46                   	inc    %esi
  28117e:	39 fe                	cmp    %edi,%esi
  281180:	0f 45 ce             	cmovne %esi,%ecx
  if(fifo->nr==fifo->size)
  {
    fifo->nr=0;
  }
  fifo->free++;
  281183:	43                   	inc    %ebx
  {
    return -1;
  }
  
  data=fifo->buf[fifo->nr];
  fifo->nr++;
  281184:	89 4a 08             	mov    %ecx,0x8(%edx)
  if(fifo->nr==fifo->size)
  {
    fifo->nr=0;
  }
  fifo->free++;
  281187:	89 5a 10             	mov    %ebx,0x10(%edx)
  
  return data;
  28118a:	eb 03                	jmp    28118f <fifo8_read+0x30>
int fifo8_read(struct FIFO8 *fifo)
{
  int data;
  if(fifo->free==fifo->size)//fifo is empty ,no data is useful
  {
    return -1;
  28118c:	83 c8 ff             	or     $0xffffffff,%eax
  fifo->free++;
  
  return data;
  
  
}
  28118f:	5b                   	pop    %ebx
  281190:	5e                   	pop    %esi
  281191:	5f                   	pop    %edi
  281192:	5d                   	pop    %ebp
  281193:	c3                   	ret    

00281194 <fifo8_status>:

int fifo8_status(struct FIFO8 *fifo)
{
  281194:	55                   	push   %ebp
  281195:	89 e5                	mov    %esp,%ebp
  281197:	8b 55 08             	mov    0x8(%ebp),%edx
  return fifo->size-fifo->free;//总数－空的＝有多个data在fifo中。
  28119a:	5d                   	pop    %ebp
  
}

int fifo8_status(struct FIFO8 *fifo)
{
  return fifo->size-fifo->free;//总数－空的＝有多个data在fifo中。
  28119b:	8b 42 0c             	mov    0xc(%edx),%eax
  28119e:	2b 42 10             	sub    0x10(%edx),%eax
  2811a1:	c3                   	ret    

002811a2 <enable_mouse>:
#include<header.h>
//激活鼠标的指令　还是向键盘控制器发送指令
#define KEYCMD_SENDTO_MOUSE 	0XD4
#define MOUSECMD_ENABLE     	0XF4
void enable_mouse(struct MOUSE_DEC *mdec)
{
  2811a2:	55                   	push   %ebp
  2811a3:	89 e5                	mov    %esp,%ebp
  2811a5:	83 ec 08             	sub    $0x8,%esp
  wait_KBC_sendready();			//等待port 0x0060,0x0064可用
  2811a8:	e8 c5 fe ff ff       	call   281072 <wait_KBC_sendready>
  2811ad:	ba 64 00 00 00       	mov    $0x64,%edx
  2811b2:	b0 d4                	mov    $0xd4,%al
  2811b4:	ee                   	out    %al,(%dx)
  outb(PORT_KEYCMD,KEYCMD_SENDTO_MOUSE);//向port 0x0064　写　0XD4命令  下面的命令发给mouse
  wait_KBC_sendready();			//等待port 0x0060,0x0064可用
  2811b5:	e8 b8 fe ff ff       	call   281072 <wait_KBC_sendready>
  2811ba:	ba 60 00 00 00       	mov    $0x60,%edx
  2811bf:	b0 f4                	mov    $0xf4,%al
  2811c1:	ee                   	out    %al,(%dx)
  outb(PORT_KEYDAT,MOUSECMD_ENABLE); 	//向port 0x0060　写　0Xf4命令  给mouse发送enable命令
  
  mdec->phase=0;
  2811c2:	8b 45 08             	mov    0x8(%ebp),%eax
  2811c5:	c6 40 03 00          	movb   $0x0,0x3(%eax)
  return ; 				//if sucessful ,will create an interrupt ,and return ０xfa(ACK),产生的这个0xfa是给cpu的答复信号
					//就算鼠标不动，也会产生这个中断，所以我们一调用enable_mouse，就会产生鼠标中断，必须有这个服务函数。  
}
  2811c9:	c9                   	leave  
  2811ca:	c3                   	ret    

002811cb <mouse_decode>:


int mouse_decode(struct MOUSE_DEC *mdec,unsigned char data)
{
  2811cb:	55                   	push   %ebp
  2811cc:	89 e5                	mov    %esp,%ebp
  2811ce:	8b 55 08             	mov    0x8(%ebp),%edx
  2811d1:	53                   	push   %ebx
  2811d2:	8b 4d 0c             	mov    0xc(%ebp),%ecx
  if(mdec->phase==0)
  2811d5:	8a 42 03             	mov    0x3(%edx),%al
  2811d8:	84 c0                	test   %al,%al
  2811da:	75 0d                	jne    2811e9 <mouse_decode+0x1e>
    if(data==0xfa)
    {
      mdec->phase = 1;
      
    }   
    return 0;
  2811dc:	31 c0                	xor    %eax,%eax

int mouse_decode(struct MOUSE_DEC *mdec,unsigned char data)
{
  if(mdec->phase==0)
  {
    if(data==0xfa)
  2811de:	80 f9 fa             	cmp    $0xfa,%cl
  2811e1:	75 73                	jne    281256 <mouse_decode+0x8b>
    {
      mdec->phase = 1;
  2811e3:	c6 42 03 01          	movb   $0x1,0x3(%edx)
  2811e7:	eb 6d                	jmp    281256 <mouse_decode+0x8b>
      
    }   
    return 0;
  }
  else if(mdec->phase==1) 
  2811e9:	3c 01                	cmp    $0x1,%al
  2811eb:	75 11                	jne    2811fe <mouse_decode+0x33>
  {
    //鼠标的第一字节的数据
    if( (data & 0xc8) == 0x08 )//如果第一个字节的数据正确  ,只要第一个字节的数据是正确的，后面两个phase的数据就是关于左移 和右移的数据
  2811ed:	88 c8                	mov    %cl,%al
  2811ef:	83 e0 c8             	and    $0xffffffc8,%eax
  2811f2:	3c 08                	cmp    $0x8,%al
  2811f4:	75 5d                	jne    281253 <mouse_decode+0x88>
    {
    mdec->buf[0] = data;
  2811f6:	88 0a                	mov    %cl,(%edx)
    mdec->phase  = 2;
  2811f8:	c6 42 03 02          	movb   $0x2,0x3(%edx)
  2811fc:	eb 0b                	jmp    281209 <mouse_decode+0x3e>
    return 0;
    }
  }
  else if(mdec->phase==2) 
  2811fe:	3c 02                	cmp    $0x2,%al
  281200:	75 0b                	jne    28120d <mouse_decode+0x42>
  {
    mdec->buf[1] = data;
  281202:	88 4a 01             	mov    %cl,0x1(%edx)
    mdec->phase  = 3;
  281205:	c6 42 03 03          	movb   $0x3,0x3(%edx)
    return 0;
  281209:	31 c0                	xor    %eax,%eax
  28120b:	eb 49                	jmp    281256 <mouse_decode+0x8b>
  }
  else if(mdec->phase==3) 
  28120d:	3c 03                	cmp    $0x3,%al
  28120f:	75 42                	jne    281253 <mouse_decode+0x88>
  {
    mdec->buf[2] = data;
    mdec->phase  = 1;
    
    
    mdec->button =mdec->buf[0] & 0x07;//0x07=0000 0111  没有按键时为8（1000）左按键是9(1001)，右按键是10(1010) 从buf0解读出lrbutton是否按下，left=1,right=2;
  281211:	8a 02                	mov    (%edx),%al
    mdec->phase  = 3;
    return 0;
  }
  else if(mdec->phase==3) 
  {
    mdec->buf[2] = data;
  281213:	88 4a 02             	mov    %cl,0x2(%edx)
    mdec->phase  = 1;
    
    
    mdec->button =mdec->buf[0] & 0x07;//0x07=0000 0111  没有按键时为8（1000）左按键是9(1001)，右按键是10(1010) 从buf0解读出lrbutton是否按下，left=1,right=2;
    mdec->x =mdec->buf[1];
    mdec->y =mdec->buf[2];
  281216:	0f b6 c9             	movzbl %cl,%ecx
    return 0;
  }
  else if(mdec->phase==3) 
  {
    mdec->buf[2] = data;
    mdec->phase  = 1;
  281219:	c6 42 03 01          	movb   $0x1,0x3(%edx)
    
    
    mdec->button =mdec->buf[0] & 0x07;//0x07=0000 0111  没有按键时为8（1000）左按键是9(1001)，右按键是10(1010) 从buf0解读出lrbutton是否按下，left=1,right=2;
    mdec->x =mdec->buf[1];
    mdec->y =mdec->buf[2];
  28121d:	89 4a 08             	mov    %ecx,0x8(%edx)
  {
    mdec->buf[2] = data;
    mdec->phase  = 1;
    
    
    mdec->button =mdec->buf[0] & 0x07;//0x07=0000 0111  没有按键时为8（1000）左按键是9(1001)，右按键是10(1010) 从buf0解读出lrbutton是否按下，left=1,right=2;
  281220:	89 c3                	mov    %eax,%ebx
  281222:	83 e3 07             	and    $0x7,%ebx
    mdec->x =mdec->buf[1];
    mdec->y =mdec->buf[2];
    
    //why do this 
    if( (mdec->buf[0] & 0x10) != 0)//bit4为1时 1
  281225:	a8 10                	test   $0x10,%al
  {
    mdec->buf[2] = data;
    mdec->phase  = 1;
    
    
    mdec->button =mdec->buf[0] & 0x07;//0x07=0000 0111  没有按键时为8（1000）左按键是9(1001)，右按键是10(1010) 从buf0解读出lrbutton是否按下，left=1,right=2;
  281227:	89 5a 0c             	mov    %ebx,0xc(%edx)
    mdec->x =mdec->buf[1];
  28122a:	0f b6 5a 01          	movzbl 0x1(%edx),%ebx
  28122e:	89 5a 04             	mov    %ebx,0x4(%edx)
    mdec->y =mdec->buf[2];
    
    //why do this 
    if( (mdec->buf[0] & 0x10) != 0)//bit4为1时 1
  281231:	74 09                	je     28123c <mouse_decode+0x71>
    {
      mdec->x |=0xffffff00;//-x 根据buf[0]的bit4为1时，确定鼠标的移动方向是负方向。
  281233:	81 cb 00 ff ff ff    	or     $0xffffff00,%ebx
  281239:	89 5a 04             	mov    %ebx,0x4(%edx)
    }
    if( (mdec->buf[0] & 0x20) != 0)//bit5为1时 2
  28123c:	a8 20                	test   $0x20,%al
  28123e:	74 09                	je     281249 <mouse_decode+0x7e>
    {
      mdec->y |=0xffffff00;//-y
  281240:	81 c9 00 ff ff ff    	or     $0xffffff00,%ecx
  281246:	89 4a 08             	mov    %ecx,0x8(%edx)
    }
    
    mdec->y= - mdec->y;//鼠标的移动方向与屏幕的方向是相反的。
  281249:	f7 5a 08             	negl   0x8(%edx)


    return 1;
  28124c:	b8 01 00 00 00       	mov    $0x1,%eax
  281251:	eb 03                	jmp    281256 <mouse_decode+0x8b>
  }
  //buf0中的数据非常的重要，低四位与左右按键有关，高四位与方向有关。
  //高四位0－1－2－3，低四位8 9(left) a(right) b(both) c(middle)
   return -1;
  281253:	83 c8 ff             	or     $0xffffffff,%eax
}
  281256:	5b                   	pop    %ebx
  281257:	5d                   	pop    %ebp
  281258:	c3                   	ret    

00281259 <getmemorysize>:
#include<mm.h>

 //下面的程序只能检测小于4GB的内存，而且 4GB的内存也只能检测为2488MB
unsigned int getmemorysize(unsigned int start,unsigned int end)
{
  281259:	55                   	push   %ebp
  28125a:	89 e5                	mov    %esp,%ebp
  28125c:	8b 45 08             	mov    0x8(%ebp),%eax
  28125f:	53                   	push   %ebx
 unsigned int old;


 unsigned int pat0=0xaa55aa55;
 volatile unsigned int *p;//注意这里的volatile关键字,
 for(i=start;i<=end;i+=0x1000)
  281260:	3b 45 0c             	cmp    0xc(%ebp),%eax
  281263:	77 2b                	ja     281290 <getmemorysize+0x37>
 {
  p=(unsigned int *)i+0x200;
  old=*p;
  281265:	8b 90 00 08 00 00    	mov    0x800(%eax),%edx
  *p=pat0;
  28126b:	c7 80 00 08 00 00 55 	movl   $0xaa55aa55,0x800(%eax)
  281272:	aa 55 aa 
  if(*p!=pat0)
  281275:	8b 98 00 08 00 00    	mov    0x800(%eax),%ebx
  {
   *p=old;
  28127b:	89 90 00 08 00 00    	mov    %edx,0x800(%eax)
 for(i=start;i<=end;i+=0x1000)
 {
  p=(unsigned int *)i+0x200;
  old=*p;
  *p=pat0;
  if(*p!=pat0)
  281281:	81 fb 55 aa 55 aa    	cmp    $0xaa55aa55,%ebx
  281287:	75 07                	jne    281290 <getmemorysize+0x37>
 unsigned int old;


 unsigned int pat0=0xaa55aa55;
 volatile unsigned int *p;//注意这里的volatile关键字,
 for(i=start;i<=end;i+=0x1000)
  281289:	05 00 10 00 00       	add    $0x1000,%eax
  28128e:	eb d0                	jmp    281260 <getmemorysize+0x7>
 }
 return i;//i就是得到的memory size



}
  281290:	5b                   	pop    %ebx
  281291:	5d                   	pop    %ebp
  281292:	c3                   	ret    

00281293 <memtest>:

unsigned int memtest(unsigned int start,unsigned int end)
{
  281293:	55                   	push   %ebp
  281294:	89 e5                	mov    %esp,%ebp
  281296:	53                   	push   %ebx
//read eflags and write_eflags
static __inline uint32_t
read_eflags(void)
{
        uint32_t eflags;
        __asm __volatile("pushfl; popl %0" : "=r" (eflags));
  281297:	9c                   	pushf  
  281298:	58                   	pop    %eax
 char flg486=0;
 unsigned int eflg,cr0,i;
 eflg=read_eflags();
 eflg|=EFLAGS_AC_BIT;
  281299:	0d 00 00 04 00       	or     $0x40000,%eax
}

static __inline void
write_eflags(uint32_t eflags)
{
        __asm __volatile("pushl %0; popfl" : : "r" (eflags));
  28129e:	50                   	push   %eax
  28129f:	9d                   	popf   
//read eflags and write_eflags
static __inline uint32_t
read_eflags(void)
{
        uint32_t eflags;
        __asm __volatile("pushfl; popl %0" : "=r" (eflags));
  2812a0:	9c                   	pushf  
  2812a1:	58                   	pop    %eax

}

unsigned int memtest(unsigned int start,unsigned int end)
{
 char flg486=0;
  2812a2:	31 db                	xor    %ebx,%ebx
 eflg=read_eflags();
 eflg|=EFLAGS_AC_BIT;
 write_eflags(eflg);

 eflg=read_eflags();
 if((eflg&EFLAGS_AC_BIT)!=0)
  2812a4:	a9 00 00 04 00       	test   $0x40000,%eax
  2812a9:	74 14                	je     2812bf <memtest+0x2c>
 {
  flg486=1;
  eflg&=~EFLAGS_AC_BIT;
  2812ab:	25 ff ff fb ff       	and    $0xfffbffff,%eax
}

static __inline void
write_eflags(uint32_t eflags)
{
        __asm __volatile("pushl %0; popfl" : : "r" (eflags));
  2812b0:	50                   	push   %eax
  2812b1:	9d                   	popf   

static __inline uint32_t
rcr0(void)
{
	uint32_t val;
	__asm __volatile("movl %%cr0,%0" : "=r" (val));
  2812b2:	0f 20 c0             	mov    %cr0,%eax
  write_eflags(eflg);
 }
 if(flg486)
 {
  cr0=rcr0();
  cr0|=CR0_CACHE_DISABLE;
  2812b5:	0d 00 00 00 60       	or     $0x60000000,%eax
}

static __inline void
lcr0(uint32_t val)
{
	__asm __volatile("movl %0,%%cr0" : : "r" (val));
  2812ba:	0f 22 c0             	mov    %eax,%cr0
 write_eflags(eflg);

 eflg=read_eflags();
 if((eflg&EFLAGS_AC_BIT)!=0)
 {
  flg486=1;
  2812bd:	b3 01                	mov    $0x1,%bl
  cr0|=CR0_CACHE_DISABLE;
  lcr0(cr0);
 }


i=getmemorysize(start,end);
  2812bf:	ff 75 0c             	pushl  0xc(%ebp)
  2812c2:	ff 75 08             	pushl  0x8(%ebp)
  2812c5:	e8 8f ff ff ff       	call   281259 <getmemorysize>
//i=0x100000;

  if(flg486)
  2812ca:	84 db                	test   %bl,%bl
  2812cc:	5a                   	pop    %edx
  2812cd:	59                   	pop    %ecx
  2812ce:	74 0c                	je     2812dc <memtest+0x49>

static __inline uint32_t
rcr0(void)
{
	uint32_t val;
	__asm __volatile("movl %%cr0,%0" : "=r" (val));
  2812d0:	0f 20 c2             	mov    %cr0,%edx
  {
  cr0=rcr0();
  cr0&=~CR0_CACHE_DISABLE;
  2812d3:	81 e2 ff ff ff 9f    	and    $0x9fffffff,%edx
}

static __inline void
lcr0(uint32_t val)
{
	__asm __volatile("movl %0,%%cr0" : : "r" (val));
  2812d9:	0f 22 c2             	mov    %edx,%cr0
  lcr0(cr0);

  }

  return i;
}
  2812dc:	8b 5d fc             	mov    -0x4(%ebp),%ebx
  2812df:	c9                   	leave  
  2812e0:	c3                   	ret    

002812e1 <memman_init>:


void memman_init(Memman * man)
{
  2812e1:	55                   	push   %ebp
  2812e2:	89 e5                	mov    %esp,%ebp
  2812e4:	8b 45 08             	mov    0x8(%ebp),%eax
 man->cellnum=0;
  2812e7:	c7 00 00 00 00 00    	movl   $0x0,(%eax)
 man->maxcell=0;
  2812ed:	c7 40 04 00 00 00 00 	movl   $0x0,0x4(%eax)
 man->lostsize=0;
  2812f4:	c7 40 08 00 00 00 00 	movl   $0x0,0x8(%eax)
 man->losts=0;
  2812fb:	c7 40 0c 00 00 00 00 	movl   $0x0,0xc(%eax)
}
  281302:	5d                   	pop    %ebp
  281303:	c3                   	ret    

00281304 <memman_avail>:
//get available memory
unsigned int memman_avail(Memman *man)
{
  281304:	55                   	push   %ebp
 unsigned int i;
 unsigned int freemem=0;
  281305:	31 c0                	xor    %eax,%eax
 man->lostsize=0;
 man->losts=0;
}
//get available memory
unsigned int memman_avail(Memman *man)
{
  281307:	89 e5                	mov    %esp,%ebp
 unsigned int i;
 unsigned int freemem=0;
 for (i=0;i<man->cellnum;i++)
  281309:	31 d2                	xor    %edx,%edx
 man->lostsize=0;
 man->losts=0;
}
//get available memory
unsigned int memman_avail(Memman *man)
{
  28130b:	8b 4d 08             	mov    0x8(%ebp),%ecx
  28130e:	53                   	push   %ebx
 unsigned int i;
 unsigned int freemem=0;
 for (i=0;i<man->cellnum;i++)
  28130f:	8b 19                	mov    (%ecx),%ebx
  281311:	39 da                	cmp    %ebx,%edx
  281313:	74 07                	je     28131c <memman_avail+0x18>
 {
   freemem+=man->cell[i].size;
  281315:	03 44 d1 14          	add    0x14(%ecx,%edx,8),%eax
//get available memory
unsigned int memman_avail(Memman *man)
{
 unsigned int i;
 unsigned int freemem=0;
 for (i=0;i<man->cellnum;i++)
  281319:	42                   	inc    %edx
  28131a:	eb f5                	jmp    281311 <memman_avail+0xd>
 {
   freemem+=man->cell[i].size;
 }
 return freemem;
}
  28131c:	5b                   	pop    %ebx
  28131d:	5d                   	pop    %ebp
  28131e:	c3                   	ret    

0028131f <memman_alloc>:
  size=(size+0xfff)&0xfffff000;
  return memman_alloc(man,size);
}
//allocate some memory for you
 int memman_alloc(Memman *man,unsigned int size)
{
  28131f:	55                   	push   %ebp
    unsigned int i,a;
    for (i=0;i<man->cellnum;i++)
  281320:	31 d2                	xor    %edx,%edx
  size=(size+0xfff)&0xfffff000;
  return memman_alloc(man,size);
}
//allocate some memory for you
 int memman_alloc(Memman *man,unsigned int size)
{
  281322:	89 e5                	mov    %esp,%ebp
  281324:	8b 4d 08             	mov    0x8(%ebp),%ecx
  281327:	57                   	push   %edi
  281328:	56                   	push   %esi
  281329:	53                   	push   %ebx
    unsigned int i,a;
    for (i=0;i<man->cellnum;i++)
  28132a:	8b 39                	mov    (%ecx),%edi
  28132c:	39 fa                	cmp    %edi,%edx
  28132e:	74 43                	je     281373 <memman_alloc+0x54>
    {
        if(man->cell[i].size>size)
  281330:	8b 45 0c             	mov    0xc(%ebp),%eax
  281333:	39 44 d1 14          	cmp    %eax,0x14(%ecx,%edx,8)
  281337:	76 37                	jbe    281370 <memman_alloc+0x51>
  281339:	8d 34 d1             	lea    (%ecx,%edx,8),%esi
        {
            a=man->cell[i].address;
            man->cell[i].address+=size;
  28133c:	8b 5d 0c             	mov    0xc(%ebp),%ebx
    unsigned int i,a;
    for (i=0;i<man->cellnum;i++)
    {
        if(man->cell[i].size>size)
        {
            a=man->cell[i].address;
  28133f:	8b 46 10             	mov    0x10(%esi),%eax
            man->cell[i].address+=size;
  281342:	01 c3                	add    %eax,%ebx
  281344:	89 5e 10             	mov    %ebx,0x10(%esi)
            man->cell[i].size-=size;
  281347:	8b 5e 14             	mov    0x14(%esi),%ebx
  28134a:	2b 5d 0c             	sub    0xc(%ebp),%ebx
            if(man->cell[i].size==0)
  28134d:	85 db                	test   %ebx,%ebx
    {
        if(man->cell[i].size>size)
        {
            a=man->cell[i].address;
            man->cell[i].address+=size;
            man->cell[i].size-=size;
  28134f:	89 5e 14             	mov    %ebx,0x14(%esi)
            if(man->cell[i].size==0)
  281352:	75 21                	jne    281375 <memman_alloc+0x56>
            {
                man->cellnum--;
  281354:	8d 5f ff             	lea    -0x1(%edi),%ebx
  281357:	89 19                	mov    %ebx,(%ecx)
                for(;i<man->cellnum;i++)
  281359:	39 da                	cmp    %ebx,%edx
  28135b:	73 18                	jae    281375 <memman_alloc+0x56>
                {
                    man->cell[i]=man->cell[i+1];
  28135d:	42                   	inc    %edx
  28135e:	8b 74 d1 10          	mov    0x10(%ecx,%edx,8),%esi
  281362:	8b 7c d1 14          	mov    0x14(%ecx,%edx,8),%edi
  281366:	89 74 d1 08          	mov    %esi,0x8(%ecx,%edx,8)
  28136a:	89 7c d1 0c          	mov    %edi,0xc(%ecx,%edx,8)
  28136e:	eb e9                	jmp    281359 <memman_alloc+0x3a>
}
//allocate some memory for you
 int memman_alloc(Memman *man,unsigned int size)
{
    unsigned int i,a;
    for (i=0;i<man->cellnum;i++)
  281370:	42                   	inc    %edx
  281371:	eb b9                	jmp    28132c <memman_alloc+0xd>
            }

            return a;
        }
    }
    return 0; //no memory can be used
  281373:	31 c0                	xor    %eax,%eax
}
  281375:	5b                   	pop    %ebx
  281376:	5e                   	pop    %esi
  281377:	5f                   	pop    %edi
  281378:	5d                   	pop    %ebp
  281379:	c3                   	ret    

0028137a <memman_alloc_4K>:
 }
 return freemem;
}
//return an integer but is ad  address
int memman_alloc_4K(Memman *man,unsigned int size)
{
  28137a:	55                   	push   %ebp
  28137b:	89 e5                	mov    %esp,%ebp
  size=(size+0xfff)&0xfffff000;
  28137d:	8b 45 0c             	mov    0xc(%ebp),%eax
  281380:	05 ff 0f 00 00       	add    $0xfff,%eax
  281385:	25 00 f0 ff ff       	and    $0xfffff000,%eax
  return memman_alloc(man,size);
  28138a:	89 45 0c             	mov    %eax,0xc(%ebp)
}
  28138d:	5d                   	pop    %ebp
}
//return an integer but is ad  address
int memman_alloc_4K(Memman *man,unsigned int size)
{
  size=(size+0xfff)&0xfffff000;
  return memman_alloc(man,size);
  28138e:	e9 8c ff ff ff       	jmp    28131f <memman_alloc>

00281393 <memman_free>:
  size=(size+0xfff)& 0xfffff000;
  return memman_free(man,addr,size);
}
//return -1 means free memory failure
int memman_free(Memman *man,unsigned int addr,unsigned int size)
{
  281393:	55                   	push   %ebp
  int i,j;
  for (i=0;i<man->cellnum;i++)
  281394:	31 d2                	xor    %edx,%edx
  size=(size+0xfff)& 0xfffff000;
  return memman_free(man,addr,size);
}
//return -1 means free memory failure
int memman_free(Memman *man,unsigned int addr,unsigned int size)
{
  281396:	89 e5                	mov    %esp,%ebp
  281398:	57                   	push   %edi
  281399:	56                   	push   %esi
  28139a:	53                   	push   %ebx
  28139b:	83 ec 08             	sub    $0x8,%esp
  28139e:	8b 45 08             	mov    0x8(%ebp),%eax
  2813a1:	8b 7d 10             	mov    0x10(%ebp),%edi
  int i,j;
  for (i=0;i<man->cellnum;i++)
  2813a4:	8b 18                	mov    (%eax),%ebx
  2813a6:	89 5d f0             	mov    %ebx,-0x10(%ebp)
  2813a9:	89 5d ec             	mov    %ebx,-0x14(%ebp)
  2813ac:	3b 55 f0             	cmp    -0x10(%ebp),%edx
  2813af:	74 09                	je     2813ba <memman_free+0x27>
  {
    if(man->cell[i].address>addr)//这一步可以找到一个合适的i的地址范围
  2813b1:	8b 5d 0c             	mov    0xc(%ebp),%ebx
  2813b4:	39 5c d0 10          	cmp    %ebx,0x10(%eax,%edx,8)
  2813b8:	76 06                	jbe    2813c0 <memman_free+0x2d>
    }
  }

  //man->cell[i-1].address<addr<man->cell[i].address
  //与前面空间合并
  if(i>0)  //
  2813ba:	85 d2                	test   %edx,%edx
  2813bc:	75 05                	jne    2813c3 <memman_free+0x30>
  2813be:	eb 4c                	jmp    28140c <memman_free+0x79>
}
//return -1 means free memory failure
int memman_free(Memman *man,unsigned int addr,unsigned int size)
{
  int i,j;
  for (i=0;i<man->cellnum;i++)
  2813c0:	42                   	inc    %edx
  2813c1:	eb e9                	jmp    2813ac <memman_free+0x19>
  2813c3:	8d 5c d0 f8          	lea    -0x8(%eax,%edx,8),%ebx

  //man->cell[i-1].address<addr<man->cell[i].address
  //与前面空间合并
  if(i>0)  //
  {
    if(man->cell[i-1].address+man->cell[i-1].size==addr)
  2813c7:	8b 73 14             	mov    0x14(%ebx),%esi
  2813ca:	8b 4b 10             	mov    0x10(%ebx),%ecx
  2813cd:	01 f1                	add    %esi,%ecx
  2813cf:	3b 4d 0c             	cmp    0xc(%ebp),%ecx
  2813d2:	75 38                	jne    28140c <memman_free+0x79>
    {
        man->cell[i-1].size+=size;
  2813d4:	01 fe                	add    %edi,%esi
        if(i<man->cellnum)
  2813d6:	3b 55 f0             	cmp    -0x10(%ebp),%edx
  //与前面空间合并
  if(i>0)  //
  {
    if(man->cell[i-1].address+man->cell[i-1].size==addr)
    {
        man->cell[i-1].size+=size;
  2813d9:	89 73 14             	mov    %esi,0x14(%ebx)
        if(i<man->cellnum)
  2813dc:	73 49                	jae    281427 <memman_free+0x94>
  2813de:	8d 0c d0             	lea    (%eax,%edx,8),%ecx
        {
            if(addr+size==man->cell[i].address)
  2813e1:	03 7d 0c             	add    0xc(%ebp),%edi
  2813e4:	3b 79 10             	cmp    0x10(%ecx),%edi
  2813e7:	75 3e                	jne    281427 <memman_free+0x94>
            {
                man->cell[i-1].size+=man->cell[i].size;
  2813e9:	03 71 14             	add    0x14(%ecx),%esi
  2813ec:	89 73 14             	mov    %esi,0x14(%ebx)
                man->cellnum--;
  2813ef:	8b 75 f0             	mov    -0x10(%ebp),%esi
  2813f2:	4e                   	dec    %esi
  2813f3:	89 30                	mov    %esi,(%eax)

                for(;i<man->cellnum;i++)
  2813f5:	39 f2                	cmp    %esi,%edx
  2813f7:	73 2e                	jae    281427 <memman_free+0x94>
                {
                man->cell[i]=man->cell[i+1];
  2813f9:	42                   	inc    %edx
  2813fa:	8b 4c d0 10          	mov    0x10(%eax,%edx,8),%ecx
  2813fe:	8b 5c d0 14          	mov    0x14(%eax,%edx,8),%ebx
  281402:	89 4c d0 08          	mov    %ecx,0x8(%eax,%edx,8)
  281406:	89 5c d0 0c          	mov    %ebx,0xc(%eax,%edx,8)
  28140a:	eb e9                	jmp    2813f5 <memman_free+0x62>
     //printdebug(200,100);

  }

  //与后面的空间合并
  if(i<man->cellnum)
  28140c:	3b 55 f0             	cmp    -0x10(%ebp),%edx
  28140f:	73 1a                	jae    28142b <memman_free+0x98>
  {
     if(addr+size==man->cell[i].address)
  281411:	8b 75 0c             	mov    0xc(%ebp),%esi
  281414:	8d 1c d0             	lea    (%eax,%edx,8),%ebx
  281417:	01 fe                	add    %edi,%esi
  281419:	3b 73 10             	cmp    0x10(%ebx),%esi
  28141c:	75 0d                	jne    28142b <memman_free+0x98>
     {
        man->cell[i].address=addr;
  28141e:	8b 45 0c             	mov    0xc(%ebp),%eax
        man->cell[i].size+=size;
  281421:	01 7b 14             	add    %edi,0x14(%ebx)
  //与后面的空间合并
  if(i<man->cellnum)
  {
     if(addr+size==man->cell[i].address)
     {
        man->cell[i].address=addr;
  281424:	89 43 10             	mov    %eax,0x10(%ebx)
        man->cell[i].size+=size;

        return 0;
  281427:	31 c0                	xor    %eax,%eax
  281429:	eb 4b                	jmp    281476 <memman_free+0xe3>
     }
  }

  if(man->cellnum<4090)
  28142b:	81 7d f0 f9 0f 00 00 	cmpl   $0xff9,-0x10(%ebp)
  281432:	77 39                	ja     28146d <memman_free+0xda>
  {
        for(j=man->cellnum;j>i;j--)
  281434:	39 55 ec             	cmp    %edx,-0x14(%ebp)
  281437:	7e 18                	jle    281451 <memman_free+0xbe>
        {
            man->cell[j]=man->cell[j-1];
  281439:	ff 4d ec             	decl   -0x14(%ebp)
  28143c:	8b 4d ec             	mov    -0x14(%ebp),%ecx
  28143f:	8b 5c c8 10          	mov    0x10(%eax,%ecx,8),%ebx
  281443:	8b 74 c8 14          	mov    0x14(%eax,%ecx,8),%esi
  281447:	89 5c c8 18          	mov    %ebx,0x18(%eax,%ecx,8)
  28144b:	89 74 c8 1c          	mov    %esi,0x1c(%eax,%ecx,8)
  28144f:	eb e3                	jmp    281434 <memman_free+0xa1>
        }

        man->cellnum++;
  281451:	8b 4d f0             	mov    -0x10(%ebp),%ecx
  281454:	41                   	inc    %ecx
        if(man->maxcell<man->cellnum)
  281455:	39 48 04             	cmp    %ecx,0x4(%eax)
        for(j=man->cellnum;j>i;j--)
        {
            man->cell[j]=man->cell[j-1];
        }

        man->cellnum++;
  281458:	89 08                	mov    %ecx,(%eax)
        if(man->maxcell<man->cellnum)
  28145a:	73 03                	jae    28145f <memman_free+0xcc>
        {
            man->maxcell=man->cellnum;
  28145c:	89 48 04             	mov    %ecx,0x4(%eax)
  28145f:	8d 04 d0             	lea    (%eax,%edx,8),%eax
        }
        man->cell[i].address=addr;
  281462:	8b 55 0c             	mov    0xc(%ebp),%edx
        man->cell[i].size=size;
  281465:	89 78 14             	mov    %edi,0x14(%eax)
        man->cellnum++;
        if(man->maxcell<man->cellnum)
        {
            man->maxcell=man->cellnum;
        }
        man->cell[i].address=addr;
  281468:	89 50 10             	mov    %edx,0x10(%eax)
  28146b:	eb ba                	jmp    281427 <memman_free+0x94>
       // printdebug(man->cellnum,100);
        return 0;
  }


  man->losts++;
  28146d:	ff 40 0c             	incl   0xc(%eax)
  man->lostsize+=size;
  281470:	01 78 08             	add    %edi,0x8(%eax)

  return  -1;
  281473:	83 c8 ff             	or     $0xffffffff,%eax
}
  281476:	5a                   	pop    %edx
  281477:	59                   	pop    %ecx
  281478:	5b                   	pop    %ebx
  281479:	5e                   	pop    %esi
  28147a:	5f                   	pop    %edi
  28147b:	5d                   	pop    %ebp
  28147c:	c3                   	ret    

0028147d <memman_free_4k>:
    return 0; //no memory can be used
}

//return -1 means free memory failure
int memman_free_4k(Memman *man,unsigned int addr,unsigned int size)
{
  28147d:	55                   	push   %ebp
  28147e:	89 e5                	mov    %esp,%ebp
  size=(size+0xfff)& 0xfffff000;
  281480:	8b 45 10             	mov    0x10(%ebp),%eax
  281483:	05 ff 0f 00 00       	add    $0xfff,%eax
  281488:	25 00 f0 ff ff       	and    $0xfffff000,%eax
  return memman_free(man,addr,size);
  28148d:	89 45 10             	mov    %eax,0x10(%ebp)
}
  281490:	5d                   	pop    %ebp

//return -1 means free memory failure
int memman_free_4k(Memman *man,unsigned int addr,unsigned int size)
{
  size=(size+0xfff)& 0xfffff000;
  return memman_free(man,addr,size);
  281491:	e9 fd fe ff ff       	jmp    281393 <memman_free>

00281496 <shtctl_init>:

  return  -1;
}

SHTCTL * shtctl_init(Memman * memman,unsigned char *vram,int xsize,int ysize)
{
  281496:	55                   	push   %ebp
  281497:	89 e5                	mov    %esp,%ebp
  281499:	57                   	push   %edi
  28149a:	8b 7d 10             	mov    0x10(%ebp),%edi
  28149d:	56                   	push   %esi
  28149e:	53                   	push   %ebx
  28149f:	8b 5d 08             	mov    0x8(%ebp),%ebx
}
//return an integer but is ad  address
int memman_alloc_4K(Memman *man,unsigned int size)
{
  size=(size+0xfff)&0xfffff000;
  return memman_alloc(man,size);
  2814a2:	68 00 30 00 00       	push   $0x3000
  2814a7:	53                   	push   %ebx
  2814a8:	e8 72 fe ff ff       	call   28131f <memman_alloc>
  2814ad:	89 c6                	mov    %eax,%esi
SHTCTL * shtctl_init(Memman * memman,unsigned char *vram,int xsize,int ysize)
{
  SHTCTL *ctl;
  int i;
  ctl=(SHTCTL *)memman_alloc_4K(memman,sizeof(SHTCTL));
  if(ctl==0)
  2814af:	85 f6                	test   %esi,%esi
  2814b1:	58                   	pop    %eax
  2814b2:	5a                   	pop    %edx
  2814b3:	74 57                	je     28150c <shtctl_init+0x76>
  return ctl;
  ctl->map=(unsigned char *)memman_alloc_4K(memman,xsize*ysize);
  2814b5:	8b 45 14             	mov    0x14(%ebp),%eax
  2814b8:	0f af c7             	imul   %edi,%eax
  2814bb:	50                   	push   %eax
  2814bc:	53                   	push   %ebx
  2814bd:	e8 b8 fe ff ff       	call   28137a <memman_alloc_4K>

  if(ctl->map==0)
  2814c2:	85 c0                	test   %eax,%eax
  SHTCTL *ctl;
  int i;
  ctl=(SHTCTL *)memman_alloc_4K(memman,sizeof(SHTCTL));
  if(ctl==0)
  return ctl;
  ctl->map=(unsigned char *)memman_alloc_4K(memman,xsize*ysize);
  2814c4:	89 46 04             	mov    %eax,0x4(%esi)

  if(ctl->map==0)
  2814c7:	5a                   	pop    %edx
  2814c8:	59                   	pop    %ecx
  2814c9:	75 11                	jne    2814dc <shtctl_init+0x46>
    {
     memman_free_4k(memman,(int)ctl,sizeof(SHTCTL));
  2814cb:	68 14 28 00 00       	push   $0x2814
  2814d0:	56                   	push   %esi
  2814d1:	53                   	push   %ebx
  2814d2:	e8 a6 ff ff ff       	call   28147d <memman_free_4k>
     return 0;
  2814d7:	83 c4 0c             	add    $0xc,%esp
  2814da:	eb 30                	jmp    28150c <shtctl_init+0x76>
    }
  ctl->vram=vram;
  2814dc:	8b 45 0c             	mov    0xc(%ebp),%eax
  2814df:	8d 8e 00 24 00 00    	lea    0x2400(%esi),%ecx
  ctl->xsize=xsize;
  2814e5:	89 7e 08             	mov    %edi,0x8(%esi)
  ctl->ysize=ysize;
  ctl->top=-1;  //no sheet
  2814e8:	c7 46 10 ff ff ff ff 	movl   $0xffffffff,0x10(%esi)
  if(ctl->map==0)
    {
     memman_free_4k(memman,(int)ctl,sizeof(SHTCTL));
     return 0;
    }
  ctl->vram=vram;
  2814ef:	89 06                	mov    %eax,(%esi)
  ctl->xsize=xsize;
  ctl->ysize=ysize;
  2814f1:	8b 45 14             	mov    0x14(%ebp),%eax
  2814f4:	89 46 0c             	mov    %eax,0xc(%esi)
  2814f7:	89 f0                	mov    %esi,%eax
  ctl->top=-1;  //no sheet
  for(i=0;i<MAX_SHEETS;i++)
  {
    ctl->sheet[i].flags=0;
  2814f9:	c7 40 30 00 00 00 00 	movl   $0x0,0x30(%eax)
  281500:	83 c0 24             	add    $0x24,%eax
    ctl->sheet[i].ctl=ctl;
  281503:	89 70 10             	mov    %esi,0x10(%eax)
    }
  ctl->vram=vram;
  ctl->xsize=xsize;
  ctl->ysize=ysize;
  ctl->top=-1;  //no sheet
  for(i=0;i<MAX_SHEETS;i++)
  281506:	39 c8                	cmp    %ecx,%eax
  281508:	75 ef                	jne    2814f9 <shtctl_init+0x63>
  28150a:	eb 04                	jmp    281510 <shtctl_init+0x7a>
  28150c:	31 c0                	xor    %eax,%eax
  28150e:	eb 02                	jmp    281512 <shtctl_init+0x7c>
  281510:	89 f0                	mov    %esi,%eax
  {
    ctl->sheet[i].flags=0;
    ctl->sheet[i].ctl=ctl;
  }
  return ctl;
}
  281512:	8d 65 f4             	lea    -0xc(%ebp),%esp
  281515:	5b                   	pop    %ebx
  281516:	5e                   	pop    %esi
  281517:	5f                   	pop    %edi
  281518:	5d                   	pop    %ebp
  281519:	c3                   	ret    

0028151a <sheet_alloc>:

SHEET * sheet_alloc(SHTCTL * ctl)
{
  28151a:	55                   	push   %ebp
  SHEET *  sht;
  int i;
  for (i=0;i<MAX_SHEETS;i++)
  28151b:	31 c0                	xor    %eax,%eax
  }
  return ctl;
}

SHEET * sheet_alloc(SHTCTL * ctl)
{
  28151d:	89 e5                	mov    %esp,%ebp
  28151f:	8b 55 08             	mov    0x8(%ebp),%edx
  281522:	6b c8 24             	imul   $0x24,%eax,%ecx
  SHEET *  sht;
  int i;
  for (i=0;i<MAX_SHEETS;i++)
  {
    if (ctl->sheet[i].flags==0)
  281525:	83 7c 0a 30 00       	cmpl   $0x0,0x30(%edx,%ecx,1)
  28152a:	75 14                	jne    281540 <sheet_alloc+0x26>
    {
        sht=&ctl->sheet[i];
  28152c:	8d 44 0a 14          	lea    0x14(%edx,%ecx,1),%eax
        sht->flags=1;
  281530:	c7 40 1c 01 00 00 00 	movl   $0x1,0x1c(%eax)
        sht->height=-1;
  281537:	c7 40 18 ff ff ff ff 	movl   $0xffffffff,0x18(%eax)
        return sht;
  28153e:	eb 0b                	jmp    28154b <sheet_alloc+0x31>

SHEET * sheet_alloc(SHTCTL * ctl)
{
  SHEET *  sht;
  int i;
  for (i=0;i<MAX_SHEETS;i++)
  281540:	40                   	inc    %eax
  281541:	3d 00 01 00 00       	cmp    $0x100,%eax
  281546:	75 da                	jne    281522 <sheet_alloc+0x8>
        sht->flags=1;
        sht->height=-1;
        return sht;
    }
  }
  return 0;
  281548:	66 31 c0             	xor    %ax,%ax
}
  28154b:	5d                   	pop    %ebp
  28154c:	c3                   	ret    

0028154d <sheet_setbuf>:



void sheet_setbuf(SHEET * sht,unsigned char *buf,int xsize,int ysize,int col_inv)
{
  28154d:	55                   	push   %ebp
  28154e:	89 e5                	mov    %esp,%ebp
  281550:	8b 45 08             	mov    0x8(%ebp),%eax
  sht->buf=buf;
  281553:	8b 55 0c             	mov    0xc(%ebp),%edx
  281556:	89 10                	mov    %edx,(%eax)
  sht->bxsize=xsize;
  281558:	8b 55 10             	mov    0x10(%ebp),%edx
  28155b:	89 50 04             	mov    %edx,0x4(%eax)
  sht->bysize=ysize;
  28155e:	8b 55 14             	mov    0x14(%ebp),%edx
  281561:	89 50 08             	mov    %edx,0x8(%eax)
  sht->col_inv=col_inv;
  281564:	8b 55 18             	mov    0x18(%ebp),%edx
  281567:	89 50 14             	mov    %edx,0x14(%eax)
  return ;
}
  28156a:	5d                   	pop    %ebp
  28156b:	c3                   	ret    

0028156c <sheet_refreshsub>:
 return;
}


void sheet_refreshsub(SHTCTL *ctl,int vx0,int vy0,int vx1,int vy1,int layer,int layerend)
{
  28156c:	55                   	push   %ebp
  28156d:	89 e5                	mov    %esp,%ebp
  28156f:	57                   	push   %edi
  281570:	56                   	push   %esi
  281571:	53                   	push   %ebx
  281572:	83 ec 34             	sub    $0x34,%esp
  281575:	8b 55 08             	mov    0x8(%ebp),%edx
  281578:	8b 4d 14             	mov    0x14(%ebp),%ecx
  28157b:	8b 5d 18             	mov    0x18(%ebp),%ebx
int h,bx,by,vx,vy,bx0,bx1,by0,by1;
unsigned char *buf,*vram=ctl->vram;
  28157e:	8b 02                	mov    (%edx),%eax
  281580:	89 45 ec             	mov    %eax,-0x14(%ebp)
unsigned char sid;
unsigned char c;
unsigned char *map=ctl->map;
  281583:	8b 42 04             	mov    0x4(%edx),%eax
  281586:	89 45 e8             	mov    %eax,-0x18(%ebp)


SHEET *sht;
if(vx0<0)vx=0;
if(vy0<0)vy=0;
if(vx1>ctl->xsize)vx1=ctl->xsize;
  281589:	8b 42 08             	mov    0x8(%edx),%eax
  28158c:	39 c1                	cmp    %eax,%ecx
  28158e:	0f 4e c1             	cmovle %ecx,%eax
  281591:	89 45 c8             	mov    %eax,-0x38(%ebp)
if(vy1>ctl->ysize)vy1=ctl->ysize;
  281594:	8b 42 0c             	mov    0xc(%edx),%eax
  281597:	39 c3                	cmp    %eax,%ebx
  281599:	0f 4e c3             	cmovle %ebx,%eax
  28159c:	89 45 c4             	mov    %eax,-0x3c(%ebp)
for (h=layer;h<=layerend;h++)
{
  sht=ctl->sheets[h];
  sid=sht-ctl->sheet;
  28159f:	8d 42 14             	lea    0x14(%edx),%eax
  2815a2:	89 45 c0             	mov    %eax,-0x40(%ebp)
SHEET *sht;
if(vx0<0)vx=0;
if(vy0<0)vy=0;
if(vx1>ctl->xsize)vx1=ctl->xsize;
if(vy1>ctl->ysize)vy1=ctl->ysize;
for (h=layer;h<=layerend;h++)
  2815a5:	8b 45 20             	mov    0x20(%ebp),%eax
  2815a8:	39 45 1c             	cmp    %eax,0x1c(%ebp)
  2815ab:	0f 8f c6 00 00 00    	jg     281677 <sheet_refreshsub+0x10b>
{
  sht=ctl->sheets[h];
  2815b1:	8b 45 1c             	mov    0x1c(%ebp),%eax
  buf=sht->buf;

  bx0=vx0-sht->vx0;
  by0=vy0-sht->vy0;

  bx1=vx1-sht->vx0;
  2815b4:	8b 5d c8             	mov    -0x38(%ebp),%ebx
if(vy0<0)vy=0;
if(vx1>ctl->xsize)vx1=ctl->xsize;
if(vy1>ctl->ysize)vy1=ctl->ysize;
for (h=layer;h<=layerend;h++)
{
  sht=ctl->sheets[h];
  2815b7:	8b 84 82 14 24 00 00 	mov    0x2414(%edx,%eax,4),%eax
  sid=sht-ctl->sheet;
  2815be:	89 c1                	mov    %eax,%ecx
  buf=sht->buf;
  2815c0:	8b 38                	mov    (%eax),%edi
if(vx1>ctl->xsize)vx1=ctl->xsize;
if(vy1>ctl->ysize)vy1=ctl->ysize;
for (h=layer;h<=layerend;h++)
{
  sht=ctl->sheets[h];
  sid=sht-ctl->sheet;
  2815c2:	2b 4d c0             	sub    -0x40(%ebp),%ecx
  buf=sht->buf;

  bx0=vx0-sht->vx0;
  2815c5:	8b 70 0c             	mov    0xc(%eax),%esi
if(vx1>ctl->xsize)vx1=ctl->xsize;
if(vy1>ctl->ysize)vy1=ctl->ysize;
for (h=layer;h<=layerend;h++)
{
  sht=ctl->sheets[h];
  sid=sht-ctl->sheet;
  2815c8:	c1 f9 02             	sar    $0x2,%ecx
  2815cb:	69 c9 39 8e e3 38    	imul   $0x38e38e39,%ecx,%ecx
  buf=sht->buf;
  2815d1:	89 7d e0             	mov    %edi,-0x20(%ebp)

  bx0=vx0-sht->vx0;
  by0=vy0-sht->vy0;
  2815d4:	8b 78 10             	mov    0x10(%eax),%edi

  bx1=vx1-sht->vx0;
  2815d7:	29 f3                	sub    %esi,%ebx
if(vx1>ctl->xsize)vx1=ctl->xsize;
if(vy1>ctl->ysize)vy1=ctl->ysize;
for (h=layer;h<=layerend;h++)
{
  sht=ctl->sheets[h];
  sid=sht-ctl->sheet;
  2815d9:	88 4d e7             	mov    %cl,-0x19(%ebp)

  bx0=vx0-sht->vx0;
  by0=vy0-sht->vy0;

  bx1=vx1-sht->vx0;
  by1=vy1-sht->vy0;
  2815dc:	8b 4d c4             	mov    -0x3c(%ebp),%ecx
  2815df:	89 7d f0             	mov    %edi,-0x10(%ebp)
  2815e2:	29 f9                	sub    %edi,%ecx
  2815e4:	8b 7d 0c             	mov    0xc(%ebp),%edi
  2815e7:	29 f7                	sub    %esi,%edi
  2815e9:	89 fe                	mov    %edi,%esi
  2815eb:	bf 00 00 00 00       	mov    $0x0,%edi
  2815f0:	0f 48 f7             	cmovs  %edi,%esi
  2815f3:	89 75 cc             	mov    %esi,-0x34(%ebp)
  2815f6:	8b 75 10             	mov    0x10(%ebp),%esi
  2815f9:	2b 75 f0             	sub    -0x10(%ebp),%esi
  2815fc:	0f 49 fe             	cmovns %esi,%edi

  if(bx0<0)bx0=0;
  if(by0<0)by0=0;
  if(bx1>sht->bxsize)bx1=sht->bxsize;
  2815ff:	8b 70 04             	mov    0x4(%eax),%esi
  281602:	39 f3                	cmp    %esi,%ebx
  281604:	0f 4e f3             	cmovle %ebx,%esi
  if(by1>sht->bysize)by1=sht->bysize;
  281607:	8b 58 08             	mov    0x8(%eax),%ebx
  28160a:	89 75 d0             	mov    %esi,-0x30(%ebp)
  28160d:	39 d9                	cmp    %ebx,%ecx
  28160f:	0f 4e d9             	cmovle %ecx,%ebx
  281612:	89 5d d4             	mov    %ebx,-0x2c(%ebp)
  for(by=by0;by<by1;by++)
  281615:	3b 7d d4             	cmp    -0x2c(%ebp),%edi
  281618:	7d 55                	jge    28166f <sheet_refreshsub+0x103>
  {
    vy=sht->vy0+by;
  28161a:	8b 48 10             	mov    0x10(%eax),%ecx
  28161d:	01 f9                	add    %edi,%ecx
  28161f:	89 4d dc             	mov    %ecx,-0x24(%ebp)
    for(bx=bx0;bx<bx1;bx++)
  281622:	8b 4d cc             	mov    -0x34(%ebp),%ecx
  281625:	89 4d f0             	mov    %ecx,-0x10(%ebp)
  281628:	8b 4d d0             	mov    -0x30(%ebp),%ecx
  28162b:	39 4d f0             	cmp    %ecx,-0x10(%ebp)
  28162e:	7d 3c                	jge    28166c <sheet_refreshsub+0x100>
    {
        vx=sht->vx0+bx;

            c=map[vy*ctl->xsize+vx];
  281630:	8b 75 dc             	mov    -0x24(%ebp),%esi
  281633:	0f af 72 08          	imul   0x8(%edx),%esi
  for(by=by0;by<by1;by++)
  {
    vy=sht->vy0+by;
    for(bx=bx0;bx<bx1;bx++)
    {
        vx=sht->vx0+bx;
  281637:	8b 5d f0             	mov    -0x10(%ebp),%ebx
  28163a:	03 58 0c             	add    0xc(%eax),%ebx

            c=map[vy*ctl->xsize+vx];
            if(c==sid)
  28163d:	8b 4d e8             	mov    -0x18(%ebp),%ecx
    vy=sht->vy0+by;
    for(bx=bx0;bx<bx1;bx++)
    {
        vx=sht->vx0+bx;

            c=map[vy*ctl->xsize+vx];
  281640:	01 de                	add    %ebx,%esi
            if(c==sid)
  281642:	8a 5d e7             	mov    -0x19(%ebp),%bl
    vy=sht->vy0+by;
    for(bx=bx0;bx<bx1;bx++)
    {
        vx=sht->vx0+bx;

            c=map[vy*ctl->xsize+vx];
  281645:	89 75 d8             	mov    %esi,-0x28(%ebp)
            if(c==sid)
  281648:	38 1c 31             	cmp    %bl,(%ecx,%esi,1)
  28164b:	75 1a                	jne    281667 <sheet_refreshsub+0xfb>
            {
                vram[vy*ctl->xsize+vx]=buf[by*sht->bxsize+bx];;
  28164d:	8b 70 04             	mov    0x4(%eax),%esi
  281650:	8b 4d e0             	mov    -0x20(%ebp),%ecx
  281653:	8b 5d f0             	mov    -0x10(%ebp),%ebx
  281656:	0f af f7             	imul   %edi,%esi
  281659:	01 cb                	add    %ecx,%ebx
  28165b:	8b 4d ec             	mov    -0x14(%ebp),%ecx
  28165e:	8a 1c 33             	mov    (%ebx,%esi,1),%bl
  281661:	8b 75 d8             	mov    -0x28(%ebp),%esi
  281664:	88 1c 31             	mov    %bl,(%ecx,%esi,1)
  if(bx1>sht->bxsize)bx1=sht->bxsize;
  if(by1>sht->bysize)by1=sht->bysize;
  for(by=by0;by<by1;by++)
  {
    vy=sht->vy0+by;
    for(bx=bx0;bx<bx1;bx++)
  281667:	ff 45 f0             	incl   -0x10(%ebp)
  28166a:	eb bc                	jmp    281628 <sheet_refreshsub+0xbc>

  if(bx0<0)bx0=0;
  if(by0<0)by0=0;
  if(bx1>sht->bxsize)bx1=sht->bxsize;
  if(by1>sht->bysize)by1=sht->bysize;
  for(by=by0;by<by1;by++)
  28166c:	47                   	inc    %edi
  28166d:	eb a6                	jmp    281615 <sheet_refreshsub+0xa9>
SHEET *sht;
if(vx0<0)vx=0;
if(vy0<0)vy=0;
if(vx1>ctl->xsize)vx1=ctl->xsize;
if(vy1>ctl->ysize)vy1=ctl->ysize;
for (h=layer;h<=layerend;h++)
  28166f:	ff 45 1c             	incl   0x1c(%ebp)
  281672:	e9 2e ff ff ff       	jmp    2815a5 <sheet_refreshsub+0x39>
 // if(h==1)  while(1);

}
return;

}
  281677:	83 c4 34             	add    $0x34,%esp
  28167a:	5b                   	pop    %ebx
  28167b:	5e                   	pop    %esi
  28167c:	5f                   	pop    %edi
  28167d:	5d                   	pop    %ebp
  28167e:	c3                   	ret    

0028167f <sheet_refresh>:
 }

}

void sheet_refresh(SHEET * sht,int bx0,int by0,int bx1,int by1)
{
  28167f:	55                   	push   %ebp
  281680:	89 e5                	mov    %esp,%ebp
  281682:	8b 45 08             	mov    0x8(%ebp),%eax
  281685:	53                   	push   %ebx
SHTCTL *ctl=sht->ctl;
if (sht->height>=0)
  281686:	8b 50 18             	mov    0x18(%eax),%edx

}

void sheet_refresh(SHEET * sht,int bx0,int by0,int bx1,int by1)
{
SHTCTL *ctl=sht->ctl;
  281689:	8b 58 20             	mov    0x20(%eax),%ebx
if (sht->height>=0)
  28168c:	85 d2                	test   %edx,%edx
  28168e:	78 25                	js     2816b5 <sheet_refresh+0x36>
{
    sheet_refreshsub(ctl,sht->vx0+bx0,sht->vy0+by0,
    sht->vx0+bx1,sht->vy0+by1,sht->height,sht->height);
  281690:	8b 48 10             	mov    0x10(%eax),%ecx
  281693:	8b 40 0c             	mov    0xc(%eax),%eax
void sheet_refresh(SHEET * sht,int bx0,int by0,int bx1,int by1)
{
SHTCTL *ctl=sht->ctl;
if (sht->height>=0)
{
    sheet_refreshsub(ctl,sht->vx0+bx0,sht->vy0+by0,
  281696:	52                   	push   %edx
  281697:	52                   	push   %edx
  281698:	8b 55 18             	mov    0x18(%ebp),%edx
  28169b:	01 ca                	add    %ecx,%edx
  28169d:	52                   	push   %edx
  28169e:	8b 55 14             	mov    0x14(%ebp),%edx
  2816a1:	03 4d 10             	add    0x10(%ebp),%ecx
  2816a4:	01 c2                	add    %eax,%edx
  2816a6:	03 45 0c             	add    0xc(%ebp),%eax
  2816a9:	52                   	push   %edx
  2816aa:	51                   	push   %ecx
  2816ab:	50                   	push   %eax
  2816ac:	53                   	push   %ebx
  2816ad:	e8 ba fe ff ff       	call   28156c <sheet_refreshsub>
  2816b2:	83 c4 1c             	add    $0x1c,%esp
    sht->vx0+bx1,sht->vy0+by1,sht->height,sht->height);

    }
}
  2816b5:	8b 5d fc             	mov    -0x4(%ebp),%ebx
  2816b8:	c9                   	leave  
  2816b9:	c3                   	ret    

002816ba <sheet_refreshmap>:
}



void sheet_refreshmap(SHTCTL *ctl,int vx0,int vy0,int vx1,int vy1,int layer)
{
  2816ba:	55                   	push   %ebp
  2816bb:	89 e5                	mov    %esp,%ebp
  2816bd:	57                   	push   %edi
  2816be:	56                   	push   %esi
  2816bf:	53                   	push   %ebx
  2816c0:	83 ec 28             	sub    $0x28,%esp
int h,bx,by,vx,vy, bx0,by0,bx1,by1;
unsigned char *buf,*vram=ctl->vram;
unsigned char *map=ctl->map;
  2816c3:	8b 45 08             	mov    0x8(%ebp),%eax
}



void sheet_refreshmap(SHTCTL *ctl,int vx0,int vy0,int vx1,int vy1,int layer)
{
  2816c6:	8b 5d 14             	mov    0x14(%ebp),%ebx
  2816c9:	8b 4d 18             	mov    0x18(%ebp),%ecx
int h,bx,by,vx,vy, bx0,by0,bx1,by1;
unsigned char *buf,*vram=ctl->vram;
unsigned char *map=ctl->map;
  2816cc:	8b 40 04             	mov    0x4(%eax),%eax
  2816cf:	89 45 f0             	mov    %eax,-0x10(%ebp)


SHEET *sht;
if(vx0<0)vx=0;
if(vy0<0)vy=0;
if(vx1>ctl->xsize)vx1=ctl->xsize;
  2816d2:	8b 45 08             	mov    0x8(%ebp),%eax
  2816d5:	8b 40 08             	mov    0x8(%eax),%eax
  2816d8:	39 c3                	cmp    %eax,%ebx
  2816da:	0f 4e c3             	cmovle %ebx,%eax
  2816dd:	89 45 d4             	mov    %eax,-0x2c(%ebp)
if(vy1>ctl->ysize)vy1=ctl->ysize;
  2816e0:	8b 45 08             	mov    0x8(%ebp),%eax
  2816e3:	8b 40 0c             	mov    0xc(%eax),%eax
  2816e6:	39 c1                	cmp    %eax,%ecx
  2816e8:	0f 4e c1             	cmovle %ecx,%eax
  2816eb:	89 45 d0             	mov    %eax,-0x30(%ebp)
for (h=layer;h<=ctl->top;h++)
{
  sht=ctl->sheets[h];
  sid=sht-ctl->sheet;
  2816ee:	8b 45 08             	mov    0x8(%ebp),%eax
  2816f1:	83 c0 14             	add    $0x14,%eax
  2816f4:	89 45 cc             	mov    %eax,-0x34(%ebp)
SHEET *sht;
if(vx0<0)vx=0;
if(vy0<0)vy=0;
if(vx1>ctl->xsize)vx1=ctl->xsize;
if(vy1>ctl->ysize)vy1=ctl->ysize;
for (h=layer;h<=ctl->top;h++)
  2816f7:	8b 45 08             	mov    0x8(%ebp),%eax
  2816fa:	8b 40 10             	mov    0x10(%eax),%eax
  2816fd:	39 45 1c             	cmp    %eax,0x1c(%ebp)
  281700:	0f 8f b4 00 00 00    	jg     2817ba <sheet_refreshmap+0x100>
{
  sht=ctl->sheets[h];
  281706:	8b 55 08             	mov    0x8(%ebp),%edx
  281709:	8b 45 1c             	mov    0x1c(%ebp),%eax
  buf=sht->buf;

  bx0=vx0-sht->vx0;
  by0=vy0-sht->vy0;

  bx1=vx1-sht->vx0;
  28170c:	8b 5d d4             	mov    -0x2c(%ebp),%ebx
if(vy0<0)vy=0;
if(vx1>ctl->xsize)vx1=ctl->xsize;
if(vy1>ctl->ysize)vy1=ctl->ysize;
for (h=layer;h<=ctl->top;h++)
{
  sht=ctl->sheets[h];
  28170f:	8b 84 82 14 24 00 00 	mov    0x2414(%edx,%eax,4),%eax
  sid=sht-ctl->sheet;
  281716:	89 c1                	mov    %eax,%ecx
  //printdebug((unsigned)sid,0);
  buf=sht->buf;
  281718:	8b 10                	mov    (%eax),%edx
if(vx1>ctl->xsize)vx1=ctl->xsize;
if(vy1>ctl->ysize)vy1=ctl->ysize;
for (h=layer;h<=ctl->top;h++)
{
  sht=ctl->sheets[h];
  sid=sht-ctl->sheet;
  28171a:	2b 4d cc             	sub    -0x34(%ebp),%ecx
  //printdebug((unsigned)sid,0);
  buf=sht->buf;

  bx0=vx0-sht->vx0;
  28171d:	8b 70 0c             	mov    0xc(%eax),%esi
  by0=vy0-sht->vy0;
  281720:	8b 78 10             	mov    0x10(%eax),%edi
if(vx1>ctl->xsize)vx1=ctl->xsize;
if(vy1>ctl->ysize)vy1=ctl->ysize;
for (h=layer;h<=ctl->top;h++)
{
  sht=ctl->sheets[h];
  sid=sht-ctl->sheet;
  281723:	c1 f9 02             	sar    $0x2,%ecx
  281726:	69 c9 39 8e e3 38    	imul   $0x38e38e39,%ecx,%ecx
  //printdebug((unsigned)sid,0);
  buf=sht->buf;
  28172c:	89 55 e8             	mov    %edx,-0x18(%ebp)
  28172f:	8b 55 0c             	mov    0xc(%ebp),%edx

  bx0=vx0-sht->vx0;
  by0=vy0-sht->vy0;

  bx1=vx1-sht->vx0;
  281732:	29 f3                	sub    %esi,%ebx
if(vx1>ctl->xsize)vx1=ctl->xsize;
if(vy1>ctl->ysize)vy1=ctl->ysize;
for (h=layer;h<=ctl->top;h++)
{
  sht=ctl->sheets[h];
  sid=sht-ctl->sheet;
  281734:	88 4d ef             	mov    %cl,-0x11(%ebp)

  bx0=vx0-sht->vx0;
  by0=vy0-sht->vy0;

  bx1=vx1-sht->vx0;
  by1=vy1-sht->vy0;
  281737:	8b 4d d0             	mov    -0x30(%ebp),%ecx
  28173a:	29 f9                	sub    %edi,%ecx
  28173c:	29 f2                	sub    %esi,%edx
  28173e:	89 d6                	mov    %edx,%esi
  281740:	ba 00 00 00 00       	mov    $0x0,%edx
  281745:	0f 48 f2             	cmovs  %edx,%esi
  281748:	89 75 d8             	mov    %esi,-0x28(%ebp)
  28174b:	8b 75 10             	mov    0x10(%ebp),%esi
  28174e:	29 fe                	sub    %edi,%esi
  if(bx0<0)bx0=0;
  if(by0<0)by0=0;
  if(bx1>sht->bxsize)bx1=sht->bxsize;
  281750:	8b 78 04             	mov    0x4(%eax),%edi
  281753:	0f 48 f2             	cmovs  %edx,%esi
  281756:	39 fb                	cmp    %edi,%ebx
  281758:	0f 4e fb             	cmovle %ebx,%edi
  if(by1>sht->bysize)by1=sht->bysize;
  28175b:	8b 58 08             	mov    0x8(%eax),%ebx
  28175e:	89 7d dc             	mov    %edi,-0x24(%ebp)
  281761:	39 d9                	cmp    %ebx,%ecx
  281763:	0f 4e d9             	cmovle %ecx,%ebx
  281766:	89 5d e0             	mov    %ebx,-0x20(%ebp)
  for(by=by0;by<by1;by++)
  281769:	3b 75 e0             	cmp    -0x20(%ebp),%esi
  28176c:	7d 44                	jge    2817b2 <sheet_refreshmap+0xf8>
  {
    vy=sht->vy0+by;
  28176e:	8b 50 10             	mov    0x10(%eax),%edx
    for(bx=bx0;bx<bx1;bx++)
  281771:	8b 4d d8             	mov    -0x28(%ebp),%ecx
  if(by0<0)by0=0;
  if(bx1>sht->bxsize)bx1=sht->bxsize;
  if(by1>sht->bysize)by1=sht->bysize;
  for(by=by0;by<by1;by++)
  {
    vy=sht->vy0+by;
  281774:	01 f2                	add    %esi,%edx
  281776:	89 55 e4             	mov    %edx,-0x1c(%ebp)
    for(bx=bx0;bx<bx1;bx++)
  281779:	3b 4d dc             	cmp    -0x24(%ebp),%ecx
  28177c:	7d 31                	jge    2817af <sheet_refreshmap+0xf5>
    {
        vx=sht->vx0+bx;
            c=buf[by*sht->bxsize+bx];
  28177e:	8b 58 04             	mov    0x4(%eax),%ebx
  281781:	8b 7d e8             	mov    -0x18(%ebp),%edi
  for(by=by0;by<by1;by++)
  {
    vy=sht->vy0+by;
    for(bx=bx0;bx<bx1;bx++)
    {
        vx=sht->vx0+bx;
  281784:	8b 50 0c             	mov    0xc(%eax),%edx
            c=buf[by*sht->bxsize+bx];
  281787:	0f af de             	imul   %esi,%ebx
  28178a:	01 cf                	add    %ecx,%edi
            if(c!=sht->col_inv)
  28178c:	0f b6 1c 1f          	movzbl (%edi,%ebx,1),%ebx
  281790:	3b 58 14             	cmp    0x14(%eax),%ebx
  281793:	74 17                	je     2817ac <sheet_refreshmap+0xf2>
            {
                map[vy*ctl->xsize+vx]=sid;
  281795:	8b 7d 08             	mov    0x8(%ebp),%edi
  281798:	8b 5d e4             	mov    -0x1c(%ebp),%ebx
  28179b:	0f af 5f 08          	imul   0x8(%edi),%ebx
  28179f:	8b 7d f0             	mov    -0x10(%ebp),%edi
  2817a2:	01 cf                	add    %ecx,%edi
  2817a4:	01 d7                	add    %edx,%edi
  2817a6:	8a 55 ef             	mov    -0x11(%ebp),%dl
  2817a9:	88 14 1f             	mov    %dl,(%edi,%ebx,1)
  if(bx1>sht->bxsize)bx1=sht->bxsize;
  if(by1>sht->bysize)by1=sht->bysize;
  for(by=by0;by<by1;by++)
  {
    vy=sht->vy0+by;
    for(bx=bx0;bx<bx1;bx++)
  2817ac:	41                   	inc    %ecx
  2817ad:	eb ca                	jmp    281779 <sheet_refreshmap+0xbf>
  by1=vy1-sht->vy0;
  if(bx0<0)bx0=0;
  if(by0<0)by0=0;
  if(bx1>sht->bxsize)bx1=sht->bxsize;
  if(by1>sht->bysize)by1=sht->bysize;
  for(by=by0;by<by1;by++)
  2817af:	46                   	inc    %esi
  2817b0:	eb b7                	jmp    281769 <sheet_refreshmap+0xaf>
SHEET *sht;
if(vx0<0)vx=0;
if(vy0<0)vy=0;
if(vx1>ctl->xsize)vx1=ctl->xsize;
if(vy1>ctl->ysize)vy1=ctl->ysize;
for (h=layer;h<=ctl->top;h++)
  2817b2:	ff 45 1c             	incl   0x1c(%ebp)
  2817b5:	e9 3d ff ff ff       	jmp    2816f7 <sheet_refreshmap+0x3d>
  }

}
return;

}
  2817ba:	83 c4 28             	add    $0x28,%esp
  2817bd:	5b                   	pop    %ebx
  2817be:	5e                   	pop    %esi
  2817bf:	5f                   	pop    %edi
  2817c0:	5d                   	pop    %ebp
  2817c1:	c3                   	ret    

002817c2 <sheet_updown>:
  return ;
}


void sheet_updown(SHEET * sht,int height)
{
  2817c2:	55                   	push   %ebp
  2817c3:	89 e5                	mov    %esp,%ebp
  2817c5:	57                   	push   %edi
  2817c6:	56                   	push   %esi
  2817c7:	53                   	push   %ebx
  2817c8:	83 ec 08             	sub    $0x8,%esp
  2817cb:	8b 5d 08             	mov    0x8(%ebp),%ebx
  2817ce:	8b 55 0c             	mov    0xc(%ebp),%edx
 int h ,old=sht->height;
  2817d1:	8b 43 18             	mov    0x18(%ebx),%eax
 SHTCTL *ctl=sht->ctl;
  2817d4:	8b 73 20             	mov    0x20(%ebx),%esi
}


void sheet_updown(SHEET * sht,int height)
{
 int h ,old=sht->height;
  2817d7:	89 c1                	mov    %eax,%ecx
  2817d9:	89 45 f0             	mov    %eax,-0x10(%ebp)
 SHTCTL *ctl=sht->ctl;
 if(height>ctl->top+1)
  2817dc:	8b 46 10             	mov    0x10(%esi),%eax
  2817df:	8d 78 01             	lea    0x1(%eax),%edi
  2817e2:	39 fa                	cmp    %edi,%edx
  2817e4:	0f 4f d7             	cmovg  %edi,%edx
  2817e7:	89 7d ec             	mov    %edi,-0x14(%ebp)
  2817ea:	83 cf ff             	or     $0xffffffff,%edi
  2817ed:	85 d2                	test   %edx,%edx
  2817ef:	0f 49 fa             	cmovns %edx,%edi
 {
  height=-1;
 }
 sht->height=height;

 if(old>height)
  2817f2:	39 f9                	cmp    %edi,%ecx

 if(height<-1)
 {
  height=-1;
 }
 sht->height=height;
  2817f4:	89 7b 18             	mov    %edi,0x18(%ebx)

 if(old>height)
  2817f7:	0f 8e b6 00 00 00    	jle    2818b3 <sheet_updown+0xf1>
 {
   if(height>=0)
  2817fd:	85 ff                	test   %edi,%edi
  2817ff:	78 5b                	js     28185c <sheet_updown+0x9a>
  281801:	89 c8                	mov    %ecx,%eax
   {
        for(h=old;h>height;h--)
        {
            ctl->sheets[h]=ctl->sheets[h-1];
  281803:	8d 50 ff             	lea    -0x1(%eax),%edx
  281806:	8b 8c 96 14 24 00 00 	mov    0x2414(%esi,%edx,4),%ecx

 if(old>height)
 {
   if(height>=0)
   {
        for(h=old;h>height;h--)
  28180d:	39 fa                	cmp    %edi,%edx
        {
            ctl->sheets[h]=ctl->sheets[h-1];
  28180f:	89 8c 96 18 24 00 00 	mov    %ecx,0x2418(%esi,%edx,4)
            ctl->sheets[h]->height=h;
  281816:	89 41 18             	mov    %eax,0x18(%ecx)

 if(old>height)
 {
   if(height>=0)
   {
        for(h=old;h>height;h--)
  281819:	74 04                	je     28181f <sheet_updown+0x5d>
  28181b:	89 d0                	mov    %edx,%eax
  28181d:	eb e4                	jmp    281803 <sheet_updown+0x41>
        {
            ctl->sheets[h]=ctl->sheets[h-1];
            ctl->sheets[h]->height=h;
        }
        ctl->sheets[height]=sht;
        sheet_refreshmap(ctl,sht->vx0,sht->vy0,sht->vx0+sht->bxsize,sht->vy0+sht->bysize,sht->height+1);
  28181f:	8b 7b 18             	mov    0x18(%ebx),%edi
  281822:	8b 53 10             	mov    0x10(%ebx),%edx
        for(h=old;h>height;h--)
        {
            ctl->sheets[h]=ctl->sheets[h-1];
            ctl->sheets[h]->height=h;
        }
        ctl->sheets[height]=sht;
  281825:	89 9c 86 10 24 00 00 	mov    %ebx,0x2410(%esi,%eax,4)
        sheet_refreshmap(ctl,sht->vx0,sht->vy0,sht->vx0+sht->bxsize,sht->vy0+sht->bysize,sht->height+1);
  28182c:	8b 43 0c             	mov    0xc(%ebx),%eax
  28182f:	8d 4f 01             	lea    0x1(%edi),%ecx
  281832:	51                   	push   %ecx
  281833:	8b 4b 08             	mov    0x8(%ebx),%ecx
  281836:	01 d1                	add    %edx,%ecx
  281838:	51                   	push   %ecx
  281839:	8b 4b 04             	mov    0x4(%ebx),%ecx
  28183c:	01 c1                	add    %eax,%ecx
  28183e:	51                   	push   %ecx
  28183f:	52                   	push   %edx
  281840:	50                   	push   %eax
  281841:	56                   	push   %esi
  281842:	e8 73 fe ff ff       	call   2816ba <sheet_refreshmap>

        sheet_refreshsub(ctl,sht->vx0,sht->vy0,sht->vx0+sht->bxsize,sht->vy0+sht->bysize,sht->height+1,old);
  281847:	8b 53 10             	mov    0x10(%ebx),%edx
  28184a:	8b 43 0c             	mov    0xc(%ebx),%eax
  28184d:	ff 75 f0             	pushl  -0x10(%ebp)
  281850:	8b 7b 18             	mov    0x18(%ebx),%edi
  281853:	8d 4f 01             	lea    0x1(%edi),%ecx
  281856:	51                   	push   %ecx
  281857:	e9 e1 00 00 00       	jmp    28193d <sheet_updown+0x17b>

   }
   else
   {
        if(ctl->top>old)
  28185c:	8b 7d f0             	mov    -0x10(%ebp),%edi
  28185f:	39 f8                	cmp    %edi,%eax
  281861:	89 f9                	mov    %edi,%ecx
  281863:	7f 32                	jg     281897 <sheet_updown+0xd5>
                ctl->sheets[h]=ctl->sheets[h+1];
                ctl->sheets[h]->height=h;
            }

        }
        ctl->top--;
  281865:	48                   	dec    %eax
        sheet_refreshmap(ctl,sht->vx0,sht->vy0,sht->vx0+sht->bxsize,sht->vy0+sht->bysize,0);
  281866:	8b 53 10             	mov    0x10(%ebx),%edx
                ctl->sheets[h]=ctl->sheets[h+1];
                ctl->sheets[h]->height=h;
            }

        }
        ctl->top--;
  281869:	89 46 10             	mov    %eax,0x10(%esi)
        sheet_refreshmap(ctl,sht->vx0,sht->vy0,sht->vx0+sht->bxsize,sht->vy0+sht->bysize,0);
  28186c:	8b 43 0c             	mov    0xc(%ebx),%eax
  28186f:	6a 00                	push   $0x0
  281871:	8b 4b 08             	mov    0x8(%ebx),%ecx
  281874:	01 d1                	add    %edx,%ecx
  281876:	51                   	push   %ecx
  281877:	8b 4b 04             	mov    0x4(%ebx),%ecx
  28187a:	01 c1                	add    %eax,%ecx
  28187c:	51                   	push   %ecx
  28187d:	52                   	push   %edx
  28187e:	50                   	push   %eax
  28187f:	56                   	push   %esi
  281880:	e8 35 fe ff ff       	call   2816ba <sheet_refreshmap>
        sheet_refreshsub(ctl,sht->vx0,sht->vy0,sht->vx0+sht->bxsize,sht->vy0+sht->bysize,0,old-1);
  281885:	8b 4d f0             	mov    -0x10(%ebp),%ecx
  281888:	8b 53 10             	mov    0x10(%ebx),%edx
  28188b:	8b 43 0c             	mov    0xc(%ebx),%eax
  28188e:	49                   	dec    %ecx
  28188f:	51                   	push   %ecx
  281890:	6a 00                	push   $0x0
  281892:	e9 a6 00 00 00       	jmp    28193d <sheet_updown+0x17b>
   {
        if(ctl->top>old)
        {
            for(h=old;h<ctl->top;h++)
            {
                ctl->sheets[h]=ctl->sheets[h+1];
  281897:	8d 51 01             	lea    0x1(%ecx),%edx
  28189a:	8b bc 96 14 24 00 00 	mov    0x2414(%esi,%edx,4),%edi
   }
   else
   {
        if(ctl->top>old)
        {
            for(h=old;h<ctl->top;h++)
  2818a1:	39 c2                	cmp    %eax,%edx
            {
                ctl->sheets[h]=ctl->sheets[h+1];
  2818a3:	89 bc 96 10 24 00 00 	mov    %edi,0x2410(%esi,%edx,4)
                ctl->sheets[h]->height=h;
  2818aa:	89 4f 18             	mov    %ecx,0x18(%edi)
   }
   else
   {
        if(ctl->top>old)
        {
            for(h=old;h<ctl->top;h++)
  2818ad:	74 b6                	je     281865 <sheet_updown+0xa3>
  2818af:	89 d1                	mov    %edx,%ecx
  2818b1:	eb e4                	jmp    281897 <sheet_updown+0xd5>
        sheet_refreshmap(ctl,sht->vx0,sht->vy0,sht->vx0+sht->bxsize,sht->vy0+sht->bysize,0);
        sheet_refreshsub(ctl,sht->vx0,sht->vy0,sht->vx0+sht->bxsize,sht->vy0+sht->bysize,0,old-1);

   }
 }
 else if(old<height)
  2818b3:	0f 8d 9b 00 00 00    	jge    281954 <sheet_updown+0x192>
 {

    if(old>0)
  2818b9:	83 7d f0 00          	cmpl   $0x0,-0x10(%ebp)
  2818bd:	7e 2c                	jle    2818eb <sheet_updown+0x129>
    {

        for(h=old;h<height;h++)
        {
         ctl->sheets[h]=ctl->sheets[h+1];
  2818bf:	8b 4d f0             	mov    -0x10(%ebp),%ecx
  2818c2:	89 c8                	mov    %ecx,%eax
  2818c4:	40                   	inc    %eax
  2818c5:	8b 94 86 14 24 00 00 	mov    0x2414(%esi,%eax,4),%edx
 {

    if(old>0)
    {

        for(h=old;h<height;h++)
  2818cc:	39 f8                	cmp    %edi,%eax
        {
         ctl->sheets[h]=ctl->sheets[h+1];
  2818ce:	89 94 86 10 24 00 00 	mov    %edx,0x2410(%esi,%eax,4)
         ctl->sheets[h]->height=h;
  2818d5:	89 4a 18             	mov    %ecx,0x18(%edx)
 {

    if(old>0)
    {

        for(h=old;h<height;h++)
  2818d8:	74 05                	je     2818df <sheet_updown+0x11d>
  2818da:	89 45 f0             	mov    %eax,-0x10(%ebp)
  2818dd:	eb e0                	jmp    2818bf <sheet_updown+0xfd>
        {
         ctl->sheets[h]=ctl->sheets[h+1];
         ctl->sheets[h]->height=h;
        }
        ctl->sheets[height]=sht;
  2818df:	8b 45 f0             	mov    -0x10(%ebp),%eax
  2818e2:	89 9c 86 18 24 00 00 	mov    %ebx,0x2418(%esi,%eax,4)
  2818e9:	eb 2f                	jmp    28191a <sheet_updown+0x158>
    }
    else
    {

        for(h=ctl->top;h>=height;h--)
  2818eb:	39 f8                	cmp    %edi,%eax
  2818ed:	7c 1e                	jl     28190d <sheet_updown+0x14b>
        {
            ctl->sheets[h+1]=ctl->sheets[h];
  2818ef:	8b 94 86 14 24 00 00 	mov    0x2414(%esi,%eax,4),%edx
  2818f6:	8b 8c 86 14 24 00 00 	mov    0x2414(%esi,%eax,4),%ecx
  2818fd:	89 94 86 18 24 00 00 	mov    %edx,0x2418(%esi,%eax,4)
  281904:	8d 50 01             	lea    0x1(%eax),%edx
        ctl->sheets[height]=sht;
    }
    else
    {

        for(h=ctl->top;h>=height;h--)
  281907:	48                   	dec    %eax
  281908:	89 51 18             	mov    %edx,0x18(%ecx)
  28190b:	eb de                	jmp    2818eb <sheet_updown+0x129>
        {
            ctl->sheets[h+1]=ctl->sheets[h];
            ctl->sheets[h+1]->height=h+1;
        }
        ctl->sheets[height]=sht;
        ctl->top++;
  28190d:	8b 45 ec             	mov    -0x14(%ebp),%eax
        for(h=ctl->top;h>=height;h--)
        {
            ctl->sheets[h+1]=ctl->sheets[h];
            ctl->sheets[h+1]->height=h+1;
        }
        ctl->sheets[height]=sht;
  281910:	89 9c be 14 24 00 00 	mov    %ebx,0x2414(%esi,%edi,4)
        ctl->top++;
  281917:	89 46 10             	mov    %eax,0x10(%esi)

    }
      sheet_refreshmap(ctl,sht->vx0,sht->vy0,sht->vx0+sht->bxsize,sht->vy0+sht->bysize,height);
  28191a:	8b 53 10             	mov    0x10(%ebx),%edx
  28191d:	8b 43 0c             	mov    0xc(%ebx),%eax
  281920:	57                   	push   %edi
  281921:	8b 4b 08             	mov    0x8(%ebx),%ecx
  281924:	01 d1                	add    %edx,%ecx
  281926:	51                   	push   %ecx
  281927:	8b 4b 04             	mov    0x4(%ebx),%ecx
  28192a:	01 c1                	add    %eax,%ecx
  28192c:	51                   	push   %ecx
  28192d:	52                   	push   %edx
  28192e:	50                   	push   %eax
  28192f:	56                   	push   %esi
  281930:	e8 85 fd ff ff       	call   2816ba <sheet_refreshmap>
      sheet_refreshsub(ctl,sht->vx0,sht->vy0,sht->vx0+sht->bxsize,sht->vy0+sht->bysize,height,height);
  281935:	8b 53 10             	mov    0x10(%ebx),%edx
  281938:	8b 43 0c             	mov    0xc(%ebx),%eax
  28193b:	57                   	push   %edi
  28193c:	57                   	push   %edi
  28193d:	8b 4b 08             	mov    0x8(%ebx),%ecx
  281940:	01 d1                	add    %edx,%ecx
  281942:	51                   	push   %ecx
  281943:	8b 4b 04             	mov    0x4(%ebx),%ecx
  281946:	01 c1                	add    %eax,%ecx
  281948:	51                   	push   %ecx
  281949:	52                   	push   %edx
  28194a:	50                   	push   %eax
  28194b:	56                   	push   %esi
  28194c:	e8 1b fc ff ff       	call   28156c <sheet_refreshsub>
  281951:	83 c4 34             	add    $0x34,%esp
 }

}
  281954:	8d 65 f4             	lea    -0xc(%ebp),%esp
  281957:	5b                   	pop    %ebx
  281958:	5e                   	pop    %esi
  281959:	5f                   	pop    %edi
  28195a:	5d                   	pop    %ebp
  28195b:	c3                   	ret    

0028195c <sheet_free>:
return;

}

void sheet_free(SHEET *sht)
{
  28195c:	55                   	push   %ebp
  28195d:	89 e5                	mov    %esp,%ebp
  28195f:	53                   	push   %ebx
  281960:	8b 5d 08             	mov    0x8(%ebp),%ebx
 if(sht->height>=0)
  281963:	83 7b 18 00          	cmpl   $0x0,0x18(%ebx)
  281967:	78 0a                	js     281973 <sheet_free+0x17>
 sheet_updown(sht,-1);
  281969:	6a ff                	push   $0xffffffff
  28196b:	53                   	push   %ebx
  28196c:	e8 51 fe ff ff       	call   2817c2 <sheet_updown>
  281971:	58                   	pop    %eax
  281972:	5a                   	pop    %edx

sht->flags=0;
  281973:	c7 43 1c 00 00 00 00 	movl   $0x0,0x1c(%ebx)
return;
}
  28197a:	8b 5d fc             	mov    -0x4(%ebp),%ebx
  28197d:	c9                   	leave  
  28197e:	c3                   	ret    

0028197f <sheet_move>:

    }
}

void sheet_move(SHEET * sht,int vx0,int vy0)
{
  28197f:	55                   	push   %ebp
  281980:	89 e5                	mov    %esp,%ebp
  281982:	57                   	push   %edi
  281983:	56                   	push   %esi
  281984:	53                   	push   %ebx
  281985:	83 ec 08             	sub    $0x8,%esp
  281988:	8b 5d 08             	mov    0x8(%ebp),%ebx
  28198b:	8b 75 10             	mov    0x10(%ebp),%esi
SHTCTL * ctl=sht->ctl;
 int old_vx0=sht->vx0;
 int old_vy0=sht->vy0;

 sht->vx0=vx0;
  28198e:	8b 45 0c             	mov    0xc(%ebp),%eax
 sht->vy0=vy0;
 if(sht->height>=0)
  281991:	83 7b 18 00          	cmpl   $0x0,0x18(%ebx)
}

void sheet_move(SHEET * sht,int vx0,int vy0)
{
SHTCTL * ctl=sht->ctl;
 int old_vx0=sht->vx0;
  281995:	8b 53 0c             	mov    0xc(%ebx),%edx
 int old_vy0=sht->vy0;
  281998:	8b 4b 10             	mov    0x10(%ebx),%ecx
    }
}

void sheet_move(SHEET * sht,int vx0,int vy0)
{
SHTCTL * ctl=sht->ctl;
  28199b:	8b 7b 20             	mov    0x20(%ebx),%edi
 int old_vx0=sht->vx0;
 int old_vy0=sht->vy0;

 sht->vx0=vx0;
  28199e:	89 43 0c             	mov    %eax,0xc(%ebx)
 sht->vy0=vy0;
  2819a1:	89 73 10             	mov    %esi,0x10(%ebx)
 if(sht->height>=0)
  2819a4:	78 79                	js     281a1f <sheet_move+0xa0>
 {
    //移动之后map要重新生成
    sheet_refreshmap(ctl,old_vx0,old_vy0,old_vx0+sht->bxsize,old_vy0+sht->bysize,0);
  2819a6:	6a 00                	push   $0x0
  2819a8:	8b 43 08             	mov    0x8(%ebx),%eax
  2819ab:	89 4d ec             	mov    %ecx,-0x14(%ebp)
  2819ae:	89 55 f0             	mov    %edx,-0x10(%ebp)
  2819b1:	01 c8                	add    %ecx,%eax
  2819b3:	50                   	push   %eax
  2819b4:	8b 43 04             	mov    0x4(%ebx),%eax
  2819b7:	01 d0                	add    %edx,%eax
  2819b9:	50                   	push   %eax
  2819ba:	51                   	push   %ecx
  2819bb:	52                   	push   %edx
  2819bc:	57                   	push   %edi
  2819bd:	e8 f8 fc ff ff       	call   2816ba <sheet_refreshmap>
    sheet_refreshmap(ctl,vx0,vy0,vx0+sht->bxsize,vy0+sht->bysize,sht->height);
  2819c2:	ff 73 18             	pushl  0x18(%ebx)
  2819c5:	8b 43 08             	mov    0x8(%ebx),%eax
  2819c8:	01 f0                	add    %esi,%eax
  2819ca:	50                   	push   %eax
  2819cb:	8b 45 0c             	mov    0xc(%ebp),%eax
  2819ce:	03 43 04             	add    0x4(%ebx),%eax
  2819d1:	50                   	push   %eax
  2819d2:	56                   	push   %esi
  2819d3:	ff 75 0c             	pushl  0xc(%ebp)
  2819d6:	57                   	push   %edi
  2819d7:	e8 de fc ff ff       	call   2816ba <sheet_refreshmap>
    //sheet_refresh(ctl);
    sheet_refreshsub(ctl,old_vx0,old_vy0,old_vx0+sht->bxsize,old_vy0+sht->bysize,0,sht->height-1);
  2819dc:	8b 43 18             	mov    0x18(%ebx),%eax
  2819df:	83 c4 30             	add    $0x30,%esp
  2819e2:	8b 4d ec             	mov    -0x14(%ebp),%ecx
  2819e5:	8b 55 f0             	mov    -0x10(%ebp),%edx
  2819e8:	48                   	dec    %eax
  2819e9:	50                   	push   %eax
  2819ea:	6a 00                	push   $0x0
  2819ec:	8b 43 08             	mov    0x8(%ebx),%eax
  2819ef:	01 c8                	add    %ecx,%eax
  2819f1:	50                   	push   %eax
  2819f2:	8b 43 04             	mov    0x4(%ebx),%eax
  2819f5:	01 d0                	add    %edx,%eax
  2819f7:	50                   	push   %eax
  2819f8:	51                   	push   %ecx
  2819f9:	52                   	push   %edx
  2819fa:	57                   	push   %edi
  2819fb:	e8 6c fb ff ff       	call   28156c <sheet_refreshsub>
    sheet_refreshsub(ctl,vx0,vy0,vx0+sht->bxsize,vy0+sht->bysize,sht->height,sht->height);
  281a00:	8b 43 18             	mov    0x18(%ebx),%eax
  281a03:	50                   	push   %eax
  281a04:	50                   	push   %eax
  281a05:	8b 43 08             	mov    0x8(%ebx),%eax
  281a08:	01 f0                	add    %esi,%eax
  281a0a:	50                   	push   %eax
  281a0b:	8b 45 0c             	mov    0xc(%ebp),%eax
  281a0e:	03 43 04             	add    0x4(%ebx),%eax
  281a11:	50                   	push   %eax
  281a12:	56                   	push   %esi
  281a13:	ff 75 0c             	pushl  0xc(%ebp)
  281a16:	57                   	push   %edi
  281a17:	e8 50 fb ff ff       	call   28156c <sheet_refreshsub>
  281a1c:	83 c4 38             	add    $0x38,%esp
 }
 return;
}
  281a1f:	8d 65 f4             	lea    -0xc(%ebp),%esp
  281a22:	5b                   	pop    %ebx
  281a23:	5e                   	pop    %esi
  281a24:	5f                   	pop    %edi
  281a25:	5d                   	pop    %ebp
  281a26:	c3                   	ret    
