
head.out:     file format elf32-i386


Disassembly of section .text:

0000c400 <entry>:

.globl entry
entry:
  .code16                     # Assemble for 16-bit mode

  jmp start
    c400:	eb 40                	jmp    c442 <start>

0000c402 <msg>:
    c402:	0d 0a 0a 0d 6d       	or     $0x6d0d0a0a,%eax
    c407:	79 20                	jns    c429 <try+0xb>
    c409:	6b 65 72 6e          	imul   $0x6e,0x72(%ebp),%esp
    c40d:	65                   	gs
    c40e:	6c                   	insb   (%dx),%es:(%edi)
    c40f:	20 69 73             	and    %ch,0x73(%ecx)
    c412:	20 72 75             	and    %dh,0x75(%edx)
    c415:	6e                   	outsb  %ds:(%esi),(%dx)
    c416:	69 6e 67 20 6a 6f 73 	imul   $0x736f6a20,0x67(%esi),%ebp
	...

0000c41e <try>:
    c41e:	0d 0a 0a 0d 74       	or     $0x740d0a0a,%eax
    c423:	72 79                	jb     c49e <seta20.2+0x10>
    c425:	20 69 74             	and    %ch,0x74(%ecx)
    c428:	20 61 67             	and    %ah,0x67(%ecx)
    c42b:	61                   	popa   
    c42c:	69 6e 00 8a 04 83 c6 	imul   $0xc683048a,0x0(%esi),%ebp

0000c42f <puts>:
 try:
  .asciz "\r\n\n\rtry it again"

puts:

	movb (%si),%al
    c42f:	8a 04 83             	mov    (%ebx,%eax,4),%al
	add $1,%si
    c432:	c6 01 3c             	movb   $0x3c,(%ecx)
	cmp $0,%al
    c435:	00 74 09 b4          	add    %dh,-0x4c(%ecx,%ecx,1)
	je over
	movb $0x0e,%ah
    c439:	0e                   	push   %cs
	movw $15,%bx
    c43a:	bb 0f 00 cd 10       	mov    $0x10cd000f,%ebx
	int $0x10
	jmp puts
    c43f:	eb ee                	jmp    c42f <puts>

0000c441 <over>:
over:
	ret
    c441:	c3                   	ret    

0000c442 <start>:
start:
 # Set up the important data segment registers (DS, ES, SS).
  xorw    %ax,%ax             # Segment number zero
    c442:	31 c0                	xor    %eax,%eax
  movw    %ax,%ds             # -> Data Segment
    c444:	8e d8                	mov    %eax,%ds
  movw    %ax,%es             # -> Extra Segment
    c446:	8e c0                	mov    %eax,%es
  movw    %ax,%ss             # -> Stack Segment
    c448:	8e d0                	mov    %eax,%ss

#################### # 利用中断int 0x10来改变显示模式
  movb $0x13,%al  # ;vga 320x200x8 位,color mode
    c44a:	b0 13                	mov    $0x13,%al
  movb $0x00,%ah
    c44c:	b4 00                	mov    $0x0,%ah
   int $0x10
    c44e:	cd 10                	int    $0x10
#save color mode in ram 0x0ff0
 movb  $10,(CYLS)
    c450:	c6 06 f0             	movb   $0xf0,(%esi)
    c453:	0f 0a                	(bad)  
 movb $8,(VMODE)
    c455:	c6 06 f2             	movb   $0xf2,(%esi)
    c458:	0f 08                	invd   
 movw $320,(SCRNX)
    c45a:	c7 06 f4 0f 40 01    	movl   $0x1400ff4,(%esi)
 movw $200,(SCRNY)
    c460:	c7 06 f6 0f c8 00    	movl   $0xc80ff6,(%esi)
 movl $0x000a0000,(VRAM)
    c466:	66 c7 06 f8 0f       	movw   $0xff8,(%esi)
    c46b:	00 00                	add    %al,(%eax)
    c46d:	0a 00                	or     (%eax),%al

 #get keyboard led status
 movb	$0x02,%ah
    c46f:	b4 02                	mov    $0x2,%ah
 int     $0x16			#keyboard interrupts
    c471:	cd 16                	int    $0x16
 movb   %al,(LEDS)
    c473:	a2 f1 0f be 02       	mov    %al,0x2be0ff1
#diplay "my kernel is runing jos"
  movw $msg,%si
    c478:	c4                   	(bad)  
  call puts
    c479:	e8 b3 ff b0 ff       	call   ffb1c431 <__bss_start+0xffb0fed9>


#对port 0x21 0xa1写1 关闭一切的中断，这样才能对中断进行设置
#从16位模式转换成32位模式之前，一定要把中断源关闭，避免模式转换过程中发生中断
  movb $0xff,%al
  outb %al, $0x21 #format  outb data port
    c47e:	e6 21                	out    %al,$0x21
  nop
    c480:	90                   	nop
  out %al, $0xa1
    c481:	e6 a1                	out    %al,$0xa1
   cli                         # Disable interrupts
    c483:	fa                   	cli    

0000c484 <seta20.1>:
  # Enable A20:
  #   For backwards compatibility with the earliest PCs, physical
  #   address line 20 is closed , so that addresses higher than
  #   1MB wrap around to zero by default. open A20.
seta20.1:
  inb     $0x64,%al               # Wait for not busy
    c484:	e4 64                	in     $0x64,%al
  testb   $0x2,%al   #if 1 :busy ,if 0:idle
    c486:	a8 02                	test   $0x2,%al
  jnz     seta20.1
    c488:	75 fa                	jne    c484 <seta20.1>
#对port 0x64  写0xd1
  movb    $0xd1,%al               # 0xd1 -> port 0x64
    c48a:	b0 d1                	mov    $0xd1,%al
  outb    %al,$0x64
    c48c:	e6 64                	out    %al,$0x64

0000c48e <seta20.2>:
seta20.2:
  inb     $0x64,%al               # Wait for not busy
    c48e:	e4 64                	in     $0x64,%al
  testb   $02,%al
    c490:	a8 02                	test   $0x2,%al
  jnz     seta20.2
    c492:	75 fa                	jne    c48e <seta20.2>
#对port 0x60 写0xdf
  movb    $0xdf,%al               # 0xdf -> port 0x60
    c494:	b0 df                	mov    $0xdf,%al
  outb    %al,$0x60
    c496:	e6 60                	out    %al,$0x60
  # Switch from real to protected mode, using a bootstrap GDT
  # and segment translation that makes virtual addresses
  # identical to their physical addresses, so that the
  # effective memory map does not change during the switch.
  /*my kerenl is running*/
  movw $msg,%si
    c498:	be 02 c4 e8 91       	mov    $0x91e8c402,%esi
  call puts
    c49d:	ff 0f                	decl   (%edi)

  #jmp .
  lgdt     gdtdesc
    c49f:	01 16                	add    %edx,(%esi)
    c4a1:	52                   	push   %edx
    c4a2:	c5 0f                	lds    (%edi),%ecx
  movl     %cr0, %eax
    c4a4:	20 c0                	and    %al,%al
  andl     $0x7fffffff,%eax
    c4a6:	66 25 ff ff          	and    $0xffff,%ax
    c4aa:	ff                   	(bad)  
    c4ab:	7f 66                	jg     c513 <all+0x20>
  orl      $CR0_PE_ON, %eax  #CR0_PE_ON=0x1
    c4ad:	83 c8 01             	or     $0x1,%eax

  /*这一步真正的cpu开始成了32位模式*/
  movl     %eax, %cr0
    c4b0:	0f 22 c0             	mov    %eax,%cr0
  # Switches processor into 32-bit mode.  这一个跳转的意义重大
  /*选择子为2，跳转指令进行跳转，跳转到哪？看下面：
  选择子2的基地址是：0x0000
  offset偏移地址是：protecseg代表的地址，所以会跳转到32位的代码处
  */
  ljmp    $(2*8), $protcseg   #PROT_MODE_CSEG=0x8 #32位的跳转指令。 ljmp selector ,offset
    c4b3:	ea b8 c4 10 00 66 b8 	ljmp   $0xb866,$0x10c4b8

0000c4b8 <protcseg>:
#正式进入32位的保护模式。
  .code32                     # Assemble for 32-bit mode
protcseg:
  # Set up the protected-mode data segment registers
 # movw    $PROT_MODE_DSEG, %ax    # Our data segment selector
  movw    $(1*8) , %ax
    c4b8:	66 b8 08 00          	mov    $0x8,%ax
  movw    %ax, %ds                # -> DS: Data Segment
    c4bc:	8e d8                	mov    %eax,%ds
  movw    %ax, %es                # -> ES: Extra Segment
    c4be:	8e c0                	mov    %eax,%es
  movw    %ax, %fs                # -> FS
    c4c0:	8e e0                	mov    %eax,%fs
  movw    %ax, %gs                # -> GS
    c4c2:	8e e8                	mov    %eax,%gs
  movw    %ax, %ss                # -> SS: Stack Segment
    c4c4:	8e d0                	mov    %eax,%ss

  # Set up the stack pointer and call into C.
  movl    $start, %esp
    c4c6:	bc 42 c4 00 00       	mov    $0xc442,%esp

0000c4cb <ccode>:
ccode:
  #把c代码部分复制到memory0x280000处的地址  ，复制了512kB的c代码，所以c代码不能超过这个大小
  #memcopy(bootmain,BOTPAK,size=512*1024/4);#BOTPAK =0X00280000
  #main标号后面放的是c程序，我是用cat cobj>>entry的方法实现的。

  movl $main, %esi
    c4cb:	be 58 c5 00 00       	mov    $0xc558,%esi
  movl $0X00280000  , %edi
    c4d0:	bf 00 00 28 00       	mov    $0x280000,%edi
  movl $(512*1024/4),%ecx
    c4d5:	b9 00 00 02 00       	mov    $0x20000,%ecx
  call memcpy
    c4da:	e8 41 00 00 00       	call   c520 <memcpy>

0000c4df <bootsector>:
  #ljmp   $(2*8),$0x0000
bootsector:
 #把bootsector的内容复制到 0x100000的位置
  movl $0x7c00, %esi
    c4df:	be 00 7c 00 00       	mov    $0x7c00,%esi
  movl $0x00100000 , %edi  # DSKCAC=0x00100000 把bootsector的内容复制到0x100000地址处
    c4e4:	bf 00 00 10 00       	mov    $0x100000,%edi
  movl $(512/4),%ecx
    c4e9:	b9 80 00 00 00       	mov    $0x80,%ecx
  call memcpy
    c4ee:	e8 2d 00 00 00       	call   c520 <memcpy>

0000c4f3 <all>:
all:
#把整个软盘上的内容复制到 0x100000内存地址处
  movl $(DSKCAC0+512), %esi
    c4f3:	be 00 82 00 00       	mov    $0x8200,%esi
  movl $(DSKCAC+512) , %edi
    c4f8:	bf 00 02 10 00       	mov    $0x100200,%edi
  movl $0,%ecx
    c4fd:	b9 00 00 00 00       	mov    $0x0,%ecx
  movb (CYLS),%cl
    c502:	8a 0d f0 0f 00 00    	mov    0xff0,%cl
  imul $(512*18*2/4) , %ecx
    c508:	69 c9 00 12 00 00    	imul   $0x1200,%ecx,%ecx
  subl  $(512/4),       %ecx
    c50e:	81 e9 80 00 00 00    	sub    $0x80,%ecx
  call memcpy
    c514:	e8 07 00 00 00       	call   c520 <memcpy>
 # call memcpy

#skip:
 # movl 12(%ebx),%esp
 #直接跳转到c语言的地址处，所以c函数在编译时要使用0x280000这个地址。
 ljmp  $(3*8), $0x0000
    c519:	ea 00 00 00 00 18 00 	ljmp   $0x18,$0x0

0000c520 <memcpy>:
 #ljmp  $(1*8), $main

#每次复制4个字节 ，因为这是32位的代码了
memcpy:
  movl  (%esi),%eax
    c520:	8b 06                	mov    (%esi),%eax
  addl  $4    ,%esi
    c522:	83 c6 04             	add    $0x4,%esi
  movl  %eax ,(%edi)
    c525:	89 07                	mov    %eax,(%edi)
  addl   $4    ,%edi
    c527:	83 c7 04             	add    $0x4,%edi
  subl   $1    ,%ecx
    c52a:	83 e9 01             	sub    $0x1,%ecx
  jnz    memcpy
    c52d:	75 f1                	jne    c520 <memcpy>
  ret
    c52f:	c3                   	ret    

0000c530 <gdt>:
	...
    c538:	ff                   	(bad)  
    c539:	ff 00                	incl   (%eax)
    c53b:	00 00                	add    %al,(%eax)
    c53d:	92                   	xchg   %eax,%edx
    c53e:	cf                   	iret   
    c53f:	00 ff                	add    %bh,%bh
    c541:	ff 00                	incl   (%eax)
    c543:	00 00                	add    %al,(%eax)
    c545:	9a 47 00 ff ff 00 00 	lcall  $0x0,$0xffff0047
    c54c:	28 9a 47 00 00 00    	sub    %bl,0x47(%edx)

0000c552 <gdtdesc>:
    c552:	1f                   	pop    %ds
    c553:	00 30                	add    %dh,(%eax)
    c555:	c5 00                	lds    (%eax),%eax
	...
