
ckernel.out:     file format elf32-i386


Disassembly of section .text:

00280000 <bootmain>:
#define red   1
#define green 2
extern  GUI_CONTEXT        GUI_Context;

void bootmain(void)
{
  280000:	55                   	push   %ebp
  280001:	89 e5                	mov    %esp,%ebp
  280003:	57                   	push   %edi
  280004:	56                   	push   %esi
  280005:	53                   	push   %ebx
  280006:	81 ec 38 02 00 00    	sub    $0x238,%esp

/*进入30os的部分*/
struct boot_info *bootp=(struct boot_info *)ADDR_BOOT;
init_screen((struct boot_info * )bootp);
  28000c:	68 f0 0f 00 00       	push   $0xff0
  280011:	e8 64 0d 00 00       	call   280d7a <init_screen>
init_palette();  //color table from 0 to 15
  280016:	e8 ba 09 00 00       	call   2809d5 <init_palette>

static __inline void
cli(void)
{

	__asm __volatile("cli");
  28001b:	fa                   	cli    

//display_mouse(bootp->vram,bootp->xsize,16,16,mx,my,mousepic,16);
cli();

//set gdt idt
init_gdtidt();
  28001c:	e8 5e 14 00 00       	call   28147f <init_gdtidt>
//remap irq 0-15
//函数中：　irq 1(keyboard)对应设置中断号int0x21,    irq　12(mouse)对应的中断号是int0x2c 要写中断服务程序了。
init_pic();
  280021:	e8 e4 15 00 00       	call   28160a <init_pic>
unsigned char s[40];		    //sprintf buffer
unsigned char keybuf[32];	    //keyfifo
unsigned char mousebuf[128];	//mousefifo
unsigned char data;		        //temp variable to get fifo data
int count=0;
fifo8_init(&keyfifo ,32,keybuf);//keyfifo是一个global data defined in int.c
  280026:	83 c4 0c             	add    $0xc,%esp
  280029:	8d 85 20 fe ff ff    	lea    -0x1e0(%ebp),%eax
  28002f:	50                   	push   %eax
  280030:	6a 20                	push   $0x20
  280032:	68 7c a6 28 00       	push   $0x28a67c
  280037:	e8 f4 16 00 00       	call   281730 <fifo8_init>
fifo8_init(&mousefifo,128,mousebuf);
  28003c:	83 c4 0c             	add    $0xc,%esp
  28003f:	8d 85 68 fe ff ff    	lea    -0x198(%ebp),%eax
  280045:	50                   	push   %eax
  280046:	68 80 00 00 00       	push   $0x80
  28004b:	68 94 a6 28 00       	push   $0x28a694
  280050:	e8 db 16 00 00       	call   281730 <fifo8_init>
// out:write a data to a port
static __inline void
outb(int port, uint8_t data)
{
  //data是变量0%0 , port是变量word１%w1
	__asm __volatile("outb %0,%w1" : : "a" (data), "d" (port));
  280055:	ba 21 00 00 00       	mov    $0x21,%edx
  28005a:	b0 f8                	mov    $0xf8,%al
  28005c:	ee                   	out    %al,(%dx)
  28005d:	b0 ef                	mov    $0xef,%al
  28005f:	b2 a1                	mov    $0xa1,%dl
  280061:	ee                   	out    %al,(%dx)
//enable timer ,keyboard and mouse   //1111 1000 后面的三个0代表 accept interrupt request, irq0=timer interrupt
outb(PIC0_IMR, 0xf8);//1111 1000  irq 1 2打开 因为keyboard是irq 1,irq2 enable 8259B 芯片发生的中断请求                                 // enable pic slave and keyboard interrupt
//enable mouse interrupt 1110 1111  irq 12 打开　mouse是irq 12  所以要把pic 1 pic 2的芯片中断响应位打开。
outb(PIC1_IMR, 0xef);
//初始化　鼠标按键控制电路
init_keyboard();
  280062:	e8 39 16 00 00       	call   2816a0 <init_keyboard>

//enable cpu interrupt


struct MOUSE_DEC mdec;
enable_mouse(&mdec);   //这里会产生一个mouse interrupt
  280067:	8d 85 f8 fd ff ff    	lea    -0x208(%ebp),%eax
  28006d:	89 04 24             	mov    %eax,(%esp)
  280070:	e8 67 17 00 00       	call   2817dc <enable_mouse>

unsigned int memtotal;
//get the total memory
memtotal=memtest(0x400000,0xffffffff);
  280075:	58                   	pop    %eax
  280076:	5a                   	pop    %edx
  280077:	6a ff                	push   $0xffffffff
  280079:	68 00 00 40 00       	push   $0x400000
  28007e:	e8 4a 18 00 00       	call   2818cd <memtest>
//mem=mem>>20; //convert to MBytes
//sprintf(s,"memory:%dMbytes",mem);
//puts8((char *)bootp->vram ,bootp->xsize,0,100,0,s);
Memman * memman=(Memman *)0x3c0000;
memman_init(memman);
  280083:	c7 04 24 00 00 3c 00 	movl   $0x3c0000,(%esp)
struct MOUSE_DEC mdec;
enable_mouse(&mdec);   //这里会产生一个mouse interrupt

unsigned int memtotal;
//get the total memory
memtotal=memtest(0x400000,0xffffffff);
  28008a:	89 c6                	mov    %eax,%esi
//mem=mem>>20; //convert to MBytes
//sprintf(s,"memory:%dMbytes",mem);
//puts8((char *)bootp->vram ,bootp->xsize,0,100,0,s);
Memman * memman=(Memman *)0x3c0000;
memman_init(memman);
  28008c:	e8 8a 18 00 00       	call   28191b <memman_init>
//memman_free(memman,0x1000,0x9e000);
memman_free(memman,0x400000,memtotal-0x400000);
  280091:	83 c4 0c             	add    $0xc,%esp
  280094:	8d 86 00 00 c0 ff    	lea    -0x400000(%esi),%eax
  28009a:	50                   	push   %eax
  28009b:	68 00 00 40 00       	push   $0x400000
  2800a0:	68 00 00 3c 00       	push   $0x3c0000
  2800a5:	e8 23 19 00 00       	call   2819cd <memman_free>
//memman_free(memman,0x600000,0x400000);
//memman_free(memman,0xb00000,0x400000);
char *desktop=(unsigned char*)memman_alloc(memman,320*200);
  2800aa:	59                   	pop    %ecx
  2800ab:	5b                   	pop    %ebx
  2800ac:	68 00 fa 00 00       	push   $0xfa00
  2800b1:	68 00 00 3c 00       	push   $0x3c0000
  2800b6:	e8 9e 18 00 00       	call   281959 <memman_alloc>
printdebug(desktop,0);
  2800bb:	5f                   	pop    %edi
memman_init(memman);
//memman_free(memman,0x1000,0x9e000);
memman_free(memman,0x400000,memtotal-0x400000);
//memman_free(memman,0x600000,0x400000);
//memman_free(memman,0xb00000,0x400000);
char *desktop=(unsigned char*)memman_alloc(memman,320*200);
  2800bc:	89 c3                	mov    %eax,%ebx
printdebug(desktop,0);
  2800be:	58                   	pop    %eax
  2800bf:	6a 00                	push   $0x0
  2800c1:	53                   	push   %ebx
  2800c2:	e8 43 12 00 00       	call   28130a <printdebug>
//while(1);
char *win_buf=(unsigned char*)memman_alloc_4K(memman,160*65);
  2800c7:	58                   	pop    %eax
  2800c8:	5a                   	pop    %edx
  2800c9:	68 a0 28 00 00       	push   $0x28a0
  2800ce:	68 00 00 3c 00       	push   $0x3c0000
  2800d3:	e8 dc 18 00 00       	call   2819b4 <memman_alloc_4K>
TIMERCTL *timerctl=(TIMERCTL *)memman_alloc_4K(memman,sizeof(TIMERCTL));
  2800d8:	59                   	pop    %ecx
  2800d9:	5f                   	pop    %edi
  2800da:	68 48 1f 00 00       	push   $0x1f48
  2800df:	68 00 00 3c 00       	push   $0x3c0000
//memman_free(memman,0x600000,0x400000);
//memman_free(memman,0xb00000,0x400000);
char *desktop=(unsigned char*)memman_alloc(memman,320*200);
printdebug(desktop,0);
//while(1);
char *win_buf=(unsigned char*)memman_alloc_4K(memman,160*65);
  2800e4:	89 85 dc fd ff ff    	mov    %eax,-0x224(%ebp)
TIMERCTL *timerctl=(TIMERCTL *)memman_alloc_4K(memman,sizeof(TIMERCTL));
  2800ea:	e8 c5 18 00 00       	call   2819b4 <memman_alloc_4K>
  2800ef:	89 85 e4 fd ff ff    	mov    %eax,-0x21c(%ebp)
init_pit(timerctl);//init timerctl
  2800f5:	89 04 24             	mov    %eax,(%esp)
  2800f8:	e8 ef 0e 00 00       	call   280fec <init_pit>

static __inline void
sti(void)
{

	__asm __volatile("sti");
  2800fd:	fb                   	sti    
sti();


// try some function in ucgui
GUI_Init();
  2800fe:	e8 b9 32 00 00       	call   2833bc <GUI_Init>
draw_win_buf(desktop);
  280103:	89 1c 24             	mov    %ebx,(%esp)
  280106:	e8 52 09 00 00       	call   280a5d <draw_win_buf>

GUI_Context.TextMode=0 ;
GUI_SetBkColorIndex(0);
  28010b:	c7 04 24 00 00 00 00 	movl   $0x0,(%esp)

// try some function in ucgui
GUI_Init();
draw_win_buf(desktop);

GUI_Context.TextMode=0 ;
  280112:	66 c7 05 0a a7 28 00 	movw   $0x0,0x28a70a
  280119:	00 00 
GUI_SetBkColorIndex(0);
  28011b:	e8 a2 3d 00 00       	call   283ec2 <GUI_SetBkColorIndex>
GUI_SetColorIndex(1);
  280120:	c7 04 24 01 00 00 00 	movl   $0x1,(%esp)
  280127:	e8 b3 3d 00 00       	call   283edf <GUI_SetColorIndex>
GUI_GotoXY(200,0);
  28012c:	58                   	pop    %eax
  28012d:	5a                   	pop    %edx
  28012e:	6a 00                	push   $0x0
  280130:	68 c8 00 00 00       	push   $0xc8
  280135:	e8 a8 3c 00 00       	call   283de2 <GUI_GotoXY>
rClient.y1=8;
GUI_DispStringInRect("abccc", &rClient, GUI_TA_HCENTER | GUI_TA_VCENTER);
*/

//GUI_Clear(); //will clear the screen use bkcolor=0 now black
LCD_L0_DrawHLine  (0, 100,  319);
  28013a:	83 c4 0c             	add    $0xc,%esp
  28013d:	68 3f 01 00 00       	push   $0x13f
  280142:	6a 64                	push   $0x64
  280144:	6a 00                	push   $0x0
  280146:	e8 54 4d 00 00       	call   284e9f <LCD_L0_DrawHLine>
GUI_FillCircle(50,50,30);
  28014b:	83 c4 0c             	add    $0xc,%esp
  28014e:	6a 1e                	push   $0x1e
  280150:	6a 32                	push   $0x32
  280152:	6a 32                	push   $0x32
  280154:	e8 24 2e 00 00       	call   282f7d <GUI_FillCircle>
//GUI_ClearRect(50,50,200,200);

GUI_DispStringAt("hello",250,100);
  280159:	83 c4 0c             	add    $0xc,%esp
  28015c:	6a 64                	push   $0x64
  28015e:	68 fa 00 00 00       	push   $0xfa
  280163:	68 78 88 28 00       	push   $0x288878
  280168:	e8 bc 33 00 00       	call   283529 <GUI_DispStringAt>
GUI_GotoXY(100,10);
  28016d:	59                   	pop    %ecx
  28016e:	5f                   	pop    %edi
  28016f:	6a 0a                	push   $0xa
  280171:	6a 64                	push   $0x64
  280173:	e8 6a 3c 00 00       	call   283de2 <GUI_GotoXY>

GUI_DispStringLen("abcdefg",10);
  280178:	58                   	pop    %eax
  280179:	5a                   	pop    %edx
  28017a:	6a 0a                	push   $0xa
  28017c:	68 7e 88 28 00       	push   $0x28887e
  280181:	e8 c8 33 00 00       	call   28354e <GUI_DispStringLen>
GUI_DispChars('a',10);
  280186:	59                   	pop    %ecx
  280187:	5f                   	pop    %edi
  280188:	6a 0a                	push   $0xa
  28018a:	6a 61                	push   $0x61
  28018c:	e8 e1 32 00 00       	call   283472 <GUI_DispChars>
//GUI_DispStringAtCEOL("clear line",100,10);
//GUI_DispStringAt("great this is",240,108);
GUI_DispString("\ngreat this is");
  280191:	c7 04 24 86 88 28 00 	movl   $0x288886,(%esp)
  280198:	e8 02 34 00 00       	call   28359f <GUI_DispString>
//GUI_GotoXY(200,0);
//GUI_Context.pAFont->pfDispChar('b');
GUI_DispDec(33,8);
  28019d:	58                   	pop    %eax
  28019e:	5a                   	pop    %edx
  28019f:	6a 08                	push   $0x8
  2801a1:	6a 21                	push   $0x21
  2801a3:	e8 b3 43 00 00       	call   28455b <GUI_DispDec>
GUI_DispDecMin(-1234);
  2801a8:	c7 04 24 2e fb ff ff 	movl   $0xfffffb2e,(%esp)
  2801af:	e8 d2 42 00 00       	call   284486 <GUI_DispDecMin>
GUI_Context.DispPosX+=10;
GUI_DispSDec(32,3);
  2801b4:	59                   	pop    %ecx
  2801b5:	5f                   	pop    %edi
GUI_DispString("\ngreat this is");
//GUI_GotoXY(200,0);
//GUI_Context.pAFont->pfDispChar('b');
GUI_DispDec(33,8);
GUI_DispDecMin(-1234);
GUI_Context.DispPosX+=10;
  2801b6:	66 83 05 02 a7 28 00 	addw   $0xa,0x28a702
  2801bd:	0a 
GUI_DispSDec(32,3);
  2801be:	6a 03                	push   $0x3
  2801c0:	6a 20                	push   $0x20
  2801c2:	e8 6b 43 00 00       	call   284532 <GUI_DispSDec>
GUI_Context.DispPosX+=2;
GUI_DispFloatMin(3.124,2);
  2801c7:	58                   	pop    %eax
  2801c8:	5a                   	pop    %edx
//GUI_Context.pAFont->pfDispChar('b');
GUI_DispDec(33,8);
GUI_DispDecMin(-1234);
GUI_Context.DispPosX+=10;
GUI_DispSDec(32,3);
GUI_Context.DispPosX+=2;
  2801c9:	66 83 05 02 a7 28 00 	addw   $0x2,0x28a702
  2801d0:	02 
GUI_DispFloatMin(3.124,2);
  2801d1:	6a 02                	push   $0x2
  2801d3:	68 9e ef 47 40       	push   $0x4047ef9e
  2801d8:	e8 e7 3f 00 00       	call   2841c4 <GUI_DispFloatMin>
GUI_Context.DispPosX+=2;
GUI_DispSFloatFix(4.52432,9,5);
  2801dd:	83 c4 0c             	add    $0xc,%esp
  2801e0:	6a 05                	push   $0x5
  2801e2:	6a 09                	push   $0x9
  2801e4:	68 3b c7 90 40       	push   $0x4090c73b
GUI_DispDecMin(-1234);
GUI_Context.DispPosX+=10;
GUI_DispSDec(32,3);
GUI_Context.DispPosX+=2;
GUI_DispFloatMin(3.124,2);
GUI_Context.DispPosX+=2;
  2801e9:	66 83 05 02 a7 28 00 	addw   $0x2,0x28a702
  2801f0:	02 
GUI_DispSFloatFix(4.52432,9,5);
  2801f1:	e8 00 41 00 00       	call   2842f6 <GUI_DispSFloatFix>
GUI_GotoXY(100,30);
  2801f6:	59                   	pop    %ecx
  2801f7:	5f                   	pop    %edi
  2801f8:	6a 1e                	push   $0x1e
  2801fa:	6a 64                	push   $0x64
  2801fc:	e8 e1 3b 00 00       	call   283de2 <GUI_GotoXY>
GUI_DispString("15 binary:");
  280201:	c7 04 24 95 88 28 00 	movl   $0x288895,(%esp)
  280208:	e8 92 33 00 00       	call   28359f <GUI_DispString>
GUI_DispBin(15,4);
  28020d:	58                   	pop    %eax
  28020e:	5a                   	pop    %edx
  28020f:	6a 04                	push   $0x4
  280211:	6a 0f                	push   $0xf
  280213:	e8 ca 31 00 00       	call   2833e2 <GUI_DispBin>
GUI_Context.DispPosX+=2;
GUI_DispString("15 hex:");
  280218:	c7 04 24 a0 88 28 00 	movl   $0x2888a0,(%esp)
GUI_Context.DispPosX+=2;
GUI_DispSFloatFix(4.52432,9,5);
GUI_GotoXY(100,30);
GUI_DispString("15 binary:");
GUI_DispBin(15,4);
GUI_Context.DispPosX+=2;
  28021f:	66 83 05 02 a7 28 00 	addw   $0x2,0x28a702
  280226:	02 
GUI_DispString("15 hex:");
  280227:	e8 73 33 00 00       	call   28359f <GUI_DispString>
GUI_DispHex(15,4);
  28022c:	59                   	pop    %ecx
  28022d:	5f                   	pop    %edi
// 画一个填充多边形
GUI_FillPolygon (&aPointArrow[0],7,150,150);
*/

unsigned i;
for (i=10; i<50; i++)
  28022e:	bf 0a 00 00 00       	mov    $0xa,%edi
GUI_GotoXY(100,30);
GUI_DispString("15 binary:");
GUI_DispBin(15,4);
GUI_Context.DispPosX+=2;
GUI_DispString("15 hex:");
GUI_DispHex(15,4);
  280233:	6a 04                	push   $0x4
  280235:	6a 0f                	push   $0xf
  280237:	e8 5d 32 00 00       	call   283499 <GUI_DispHex>
GUI_SetPenSize(5);
  28023c:	c7 04 24 05 00 00 00 	movl   $0x5,(%esp)
  280243:	e8 30 3c 00 00       	call   283e78 <GUI_SetPenSize>
GUI_DrawPoint(199,180);
  280248:	58                   	pop    %eax
  280249:	5a                   	pop    %edx
  28024a:	68 b4 00 00 00       	push   $0xb4
  28024f:	68 c7 00 00 00       	push   $0xc7
  280254:	e8 ab 29 00 00       	call   282c04 <GUI_DrawPoint>
GUI_FillRect(0,0,20,20);
  280259:	6a 14                	push   $0x14
  28025b:	6a 14                	push   $0x14
  28025d:	6a 00                	push   $0x0
  28025f:	6a 00                	push   $0x0
  280261:	e8 fa 3a 00 00       	call   283d60 <GUI_FillRect>
GUI_InvertRect(0,0,20,20);
  280266:	83 c4 20             	add    $0x20,%esp
  280269:	6a 14                	push   $0x14
  28026b:	6a 14                	push   $0x14
  28026d:	6a 00                	push   $0x0
  28026f:	6a 00                	push   $0x0
  280271:	e8 94 3b 00 00       	call   283e0a <GUI_InvertRect>
GUI_ClearRect(0,0,20,20);
  280276:	6a 14                	push   $0x14
  280278:	6a 14                	push   $0x14
  28027a:	6a 00                	push   $0x0
  28027c:	6a 00                	push   $0x0
  28027e:	e8 b7 30 00 00       	call   28333a <GUI_ClearRect>

GUI_DrawHLine(120,0,320);
  280283:	83 c4 1c             	add    $0x1c,%esp
  280286:	68 40 01 00 00       	push   $0x140
  28028b:	6a 00                	push   $0x0
  28028d:	6a 78                	push   $0x78
  28028f:	e8 ef 34 00 00       	call   283783 <GUI_DrawHLine>

GUI_SetDrawMode(GUI_DRAWMODE_NORMAL);
  280294:	c7 04 24 00 00 00 00 	movl   $0x0,(%esp)
  28029b:	e8 5c 3c 00 00       	call   283efc <GUI_SetDrawMode>
GUI_FillCircle(120, 64, 40);
  2802a0:	83 c4 0c             	add    $0xc,%esp
  2802a3:	6a 28                	push   $0x28
  2802a5:	6a 40                	push   $0x40
  2802a7:	6a 78                	push   $0x78
  2802a9:	e8 cf 2c 00 00       	call   282f7d <GUI_FillCircle>
GUI_SetDrawMode(GUI_DRAWMODE_XOR);
  2802ae:	c7 04 24 01 00 00 00 	movl   $0x1,(%esp)
  2802b5:	e8 42 3c 00 00       	call   283efc <GUI_SetDrawMode>
GUI_FillCircle(140, 84, 40);
  2802ba:	83 c4 0c             	add    $0xc,%esp
  2802bd:	6a 28                	push   $0x28
  2802bf:	6a 54                	push   $0x54
  2802c1:	68 8c 00 00 00       	push   $0x8c
  2802c6:	e8 b2 2c 00 00       	call   282f7d <GUI_FillCircle>
  2802cb:	83 c4 10             	add    $0x10,%esp
GUI_FillPolygon (&aPointArrow[0],7,150,150);
*/

unsigned i;
for (i=10; i<50; i++)
GUI_DrawCircle(60,60,i);
  2802ce:	50                   	push   %eax
  2802cf:	57                   	push   %edi
// 画一个填充多边形
GUI_FillPolygon (&aPointArrow[0],7,150,150);
*/

unsigned i;
for (i=10; i<50; i++)
  2802d0:	47                   	inc    %edi
GUI_DrawCircle(60,60,i);
  2802d1:	6a 3c                	push   $0x3c
  2802d3:	6a 3c                	push   $0x3c
  2802d5:	e8 17 2b 00 00       	call   282df1 <GUI_DrawCircle>
// 画一个填充多边形
GUI_FillPolygon (&aPointArrow[0],7,150,150);
*/

unsigned i;
for (i=10; i<50; i++)
  2802da:	83 c4 10             	add    $0x10,%esp
  2802dd:	83 ff 32             	cmp    $0x32,%edi
  2802e0:	75 ec                	jne    2802ce <bootmain+0x2ce>
GUI_DrawCircle(60,60,i);

make_window8(win_buf,160,68,"timer");
  2802e2:	68 a8 88 28 00       	push   $0x2888a8
  2802e7:	6a 44                	push   $0x44
  2802e9:	68 a0 00 00 00       	push   $0xa0
  2802ee:	ff b5 dc fd ff ff    	pushl  -0x224(%ebp)
init_mouse(mousepic,99);	//99　means background color


sprintf(s,"memory:%dMB,free:%dMB,%d",memtotal>>20
  2802f4:	c1 ee 14             	shr    $0x14,%esi

unsigned i;
for (i=10; i<50; i++)
GUI_DrawCircle(60,60,i);

make_window8(win_buf,160,68,"timer");
  2802f7:	e8 26 0b 00 00       	call   280e22 <make_window8>
init_mouse(mousepic,99);	//99　means background color
  2802fc:	5f                   	pop    %edi
  2802fd:	58                   	pop    %eax
  2802fe:	8d bd e8 fe ff ff    	lea    -0x118(%ebp),%edi
  280304:	6a 63                	push   $0x63
  280306:	57                   	push   %edi
  280307:	e8 8d 0a 00 00       	call   280d99 <init_mouse>


sprintf(s,"memory:%dMB,free:%dMB,%d",memtotal>>20
  28030c:	8b 15 00 00 3c 00    	mov    0x3c0000,%edx
,memman_avail(memman)>>20,memman->cellnum);
  280312:	c7 04 24 00 00 3c 00 	movl   $0x3c0000,(%esp)

make_window8(win_buf,160,68,"timer");
init_mouse(mousepic,99);	//99　means background color


sprintf(s,"memory:%dMB,free:%dMB,%d",memtotal>>20
  280319:	89 95 e0 fd ff ff    	mov    %edx,-0x220(%ebp)
,memman_avail(memman)>>20,memman->cellnum);
  28031f:	e8 1a 16 00 00       	call   28193e <memman_avail>

make_window8(win_buf,160,68,"timer");
init_mouse(mousepic,99);	//99　means background color


sprintf(s,"memory:%dMB,free:%dMB,%d",memtotal>>20
  280324:	8b 95 e0 fd ff ff    	mov    -0x220(%ebp),%edx
  28032a:	89 14 24             	mov    %edx,(%esp)
  28032d:	c1 e8 14             	shr    $0x14,%eax
  280330:	50                   	push   %eax
  280331:	56                   	push   %esi
  280332:	68 ae 88 28 00       	push   $0x2888ae
  280337:	8d 85 40 fe ff ff    	lea    -0x1c0(%ebp),%eax
  28033d:	50                   	push   %eax
  28033e:	e8 6b 0e 00 00       	call   2811ae <sprintf>
,memman_avail(memman)>>20,memman->cellnum);
puts8(desktop ,bootp->xsize,0,150,0,s);
  280343:	83 c4 18             	add    $0x18,%esp
  280346:	8d 85 40 fe ff ff    	lea    -0x1c0(%ebp),%eax
  28034c:	50                   	push   %eax
  28034d:	6a 00                	push   $0x0
  28034f:	68 96 00 00 00       	push   $0x96
  280354:	6a 00                	push   $0x0
  280356:	0f bf 05 f4 0f 00 00 	movswl 0xff4,%eax
  28035d:	50                   	push   %eax
  28035e:	53                   	push   %ebx
  28035f:	e8 45 0f 00 00       	call   2812a9 <puts8>

SHTCTL *shtctl;
shtctl=shtctl_init(memman,bootp->vram,bootp->xsize,bootp->ysize);
  280364:	0f bf 05 f6 0f 00 00 	movswl 0xff6,%eax
  28036b:	83 c4 20             	add    $0x20,%esp
  28036e:	50                   	push   %eax
  28036f:	0f bf 05 f4 0f 00 00 	movswl 0xff4,%eax
  280376:	50                   	push   %eax
  280377:	ff 35 f8 0f 00 00    	pushl  0xff8
  28037d:	68 00 00 3c 00       	push   $0x3c0000
  280382:	e8 49 17 00 00       	call   281ad0 <shtctl_init>

SHEET *sht_back,*sht_mouse,*sht_win;
//allocate a sheet space from shtctl
sht_back=sheet_alloc(shtctl);
  280387:	89 04 24             	mov    %eax,(%esp)
sprintf(s,"memory:%dMB,free:%dMB,%d",memtotal>>20
,memman_avail(memman)>>20,memman->cellnum);
puts8(desktop ,bootp->xsize,0,150,0,s);

SHTCTL *shtctl;
shtctl=shtctl_init(memman,bootp->vram,bootp->xsize,bootp->ysize);
  28038a:	89 c6                	mov    %eax,%esi

SHEET *sht_back,*sht_mouse,*sht_win;
//allocate a sheet space from shtctl
sht_back=sheet_alloc(shtctl);
  28038c:	e8 c3 17 00 00       	call   281b54 <sheet_alloc>
sht_mouse=sheet_alloc(shtctl);
  280391:	89 34 24             	mov    %esi,(%esp)
SHTCTL *shtctl;
shtctl=shtctl_init(memman,bootp->vram,bootp->xsize,bootp->ysize);

SHEET *sht_back,*sht_mouse,*sht_win;
//allocate a sheet space from shtctl
sht_back=sheet_alloc(shtctl);
  280394:	89 85 e0 fd ff ff    	mov    %eax,-0x220(%ebp)
sht_mouse=sheet_alloc(shtctl);
  28039a:	e8 b5 17 00 00       	call   281b54 <sheet_alloc>
sht_win=sheet_alloc(shtctl);
  28039f:	89 34 24             	mov    %esi,(%esp)
shtctl=shtctl_init(memman,bootp->vram,bootp->xsize,bootp->ysize);

SHEET *sht_back,*sht_mouse,*sht_win;
//allocate a sheet space from shtctl
sht_back=sheet_alloc(shtctl);
sht_mouse=sheet_alloc(shtctl);
  2803a2:	89 85 d0 fd ff ff    	mov    %eax,-0x230(%ebp)
sht_win=sheet_alloc(shtctl);
  2803a8:	e8 a7 17 00 00       	call   281b54 <sheet_alloc>
//write something inside the window
//puts8(win_buf ,160,24,28,0,"hello ,easy os");
//puts8(win_buf ,160,24,44,0,"second line");//y=28+16=44

//hoop the buffer with sheet
sheet_setbuf(sht_back,desktop,320,200,-1);
  2803ad:	8b b5 e0 fd ff ff    	mov    -0x220(%ebp),%esi
  2803b3:	c7 04 24 ff ff ff ff 	movl   $0xffffffff,(%esp)
  2803ba:	68 c8 00 00 00       	push   $0xc8
  2803bf:	68 40 01 00 00       	push   $0x140
  2803c4:	53                   	push   %ebx
  2803c5:	56                   	push   %esi

SHEET *sht_back,*sht_mouse,*sht_win;
//allocate a sheet space from shtctl
sht_back=sheet_alloc(shtctl);
sht_mouse=sheet_alloc(shtctl);
sht_win=sheet_alloc(shtctl);
  2803c6:	89 85 cc fd ff ff    	mov    %eax,-0x234(%ebp)
//write something inside the window
//puts8(win_buf ,160,24,28,0,"hello ,easy os");
//puts8(win_buf ,160,24,44,0,"second line");//y=28+16=44

//hoop the buffer with sheet
sheet_setbuf(sht_back,desktop,320,200,-1);
  2803cc:	e8 b6 17 00 00       	call   281b87 <sheet_setbuf>
sheet_setbuf(sht_mouse,mousepic,16,16,99);
  2803d1:	83 c4 14             	add    $0x14,%esp
  2803d4:	6a 63                	push   $0x63
  2803d6:	6a 10                	push   $0x10
  2803d8:	6a 10                	push   $0x10
  2803da:	57                   	push   %edi
  2803db:	ff b5 d0 fd ff ff    	pushl  -0x230(%ebp)
  2803e1:	e8 a1 17 00 00       	call   281b87 <sheet_setbuf>
sheet_setbuf(sht_win,win_buf,160,65,-1);
  2803e6:	83 c4 14             	add    $0x14,%esp
  2803e9:	8b bd cc fd ff ff    	mov    -0x234(%ebp),%edi
  2803ef:	6a ff                	push   $0xffffffff
  2803f1:	6a 41                	push   $0x41
  2803f3:	68 a0 00 00 00       	push   $0xa0
  2803f8:	ff b5 dc fd ff ff    	pushl  -0x224(%ebp)
  2803fe:	57                   	push   %edi
  2803ff:	e8 83 17 00 00       	call   281b87 <sheet_setbuf>
mx=0;my=0;//set mouse initial position
sheet_move(sht_back,0,0);
  280404:	83 c4 1c             	add    $0x1c,%esp
  280407:	6a 00                	push   $0x0
  280409:	6a 00                	push   $0x0
  28040b:	56                   	push   %esi
  28040c:	e8 a8 1b 00 00       	call   281fb9 <sheet_move>
sheet_move(sht_mouse,mx,my);
  280411:	83 c4 0c             	add    $0xc,%esp
  280414:	6a 00                	push   $0x0
  280416:	6a 00                	push   $0x0
  280418:	ff b5 d0 fd ff ff    	pushl  -0x230(%ebp)
  28041e:	e8 96 1b 00 00       	call   281fb9 <sheet_move>
sheet_move(sht_win,80,72);
  280423:	83 c4 0c             	add    $0xc,%esp
  280426:	6a 48                	push   $0x48
  280428:	6a 50                	push   $0x50
  28042a:	57                   	push   %edi
  28042b:	e8 89 1b 00 00       	call   281fb9 <sheet_move>

//set sht_back to layer0 ;set sht_mouse to layer1
sheet_updown(sht_back,0);
  280430:	58                   	pop    %eax
  280431:	5a                   	pop    %edx
  280432:	6a 00                	push   $0x0
  280434:	56                   	push   %esi
  280435:	e8 c2 19 00 00       	call   281dfc <sheet_updown>
sheet_updown(sht_win,1);
  28043a:	59                   	pop    %ecx
  28043b:	58                   	pop    %eax
  28043c:	6a 01                	push   $0x1
  28043e:	57                   	push   %edi
  28043f:	e8 b8 19 00 00       	call   281dfc <sheet_updown>
sheet_updown(sht_mouse,2);
  280444:	58                   	pop    %eax
  280445:	5a                   	pop    %edx
  280446:	6a 02                	push   $0x2
  280448:	ff b5 d0 fd ff ff    	pushl  -0x230(%ebp)
  28044e:	e8 a9 19 00 00       	call   281dfc <sheet_updown>
//refresh a specific rectangle
sheet_refresh(sht_back,0,0,bootp->xsize,bootp->ysize);
  280453:	0f bf 05 f6 0f 00 00 	movswl 0xff6,%eax
  28045a:	89 04 24             	mov    %eax,(%esp)
  28045d:	0f bf 05 f4 0f 00 00 	movswl 0xff4,%eax
  280464:	50                   	push   %eax
  280465:	6a 00                	push   $0x0
  280467:	6a 00                	push   $0x0
  280469:	56                   	push   %esi
  28046a:	e8 4a 18 00 00       	call   281cb9 <sheet_refresh>
struct FIFO8 timerfifo;
char timerbuf[8];
TIMER *timer,*timer2,*timer3;

//just one fifio
fifo8_init(&timerfifo,8,timerbuf);
  28046f:	83 c4 1c             	add    $0x1c,%esp
  280472:	8d 85 f0 fd ff ff    	lea    -0x210(%ebp),%eax
  280478:	50                   	push   %eax
  280479:	6a 08                	push   $0x8
  28047b:	8d 85 08 fe ff ff    	lea    -0x1f8(%ebp),%eax
  280481:	50                   	push   %eax
  280482:	e8 a9 12 00 00       	call   281730 <fifo8_init>

timer=timer_alloc(timerctl,0);
  280487:	59                   	pop    %ecx
  280488:	5e                   	pop    %esi
  280489:	8b b5 e4 fd ff ff    	mov    -0x21c(%ebp),%esi
  28048f:	6a 00                	push   $0x0
  280491:	56                   	push   %esi
  280492:	e8 e5 0b 00 00       	call   28107c <timer_alloc>
timer2=timer_alloc(timerctl,1);
  280497:	89 b5 e4 fd ff ff    	mov    %esi,-0x21c(%ebp)
TIMER *timer,*timer2,*timer3;

//just one fifio
fifo8_init(&timerfifo,8,timerbuf);

timer=timer_alloc(timerctl,0);
  28049d:	89 c7                	mov    %eax,%edi
timer2=timer_alloc(timerctl,1);
  28049f:	58                   	pop    %eax
  2804a0:	5a                   	pop    %edx
  2804a1:	6a 01                	push   $0x1
  2804a3:	56                   	push   %esi
  2804a4:	e8 d3 0b 00 00       	call   28107c <timer_alloc>
timer3=timer_alloc(timerctl,2);
  2804a9:	59                   	pop    %ecx

//just one fifio
fifo8_init(&timerfifo,8,timerbuf);

timer=timer_alloc(timerctl,0);
timer2=timer_alloc(timerctl,1);
  2804aa:	89 c6                	mov    %eax,%esi
timer3=timer_alloc(timerctl,2);
  2804ac:	58                   	pop    %eax
  2804ad:	6a 02                	push   $0x2
  2804af:	ff b5 e4 fd ff ff    	pushl  -0x21c(%ebp)
  2804b5:	e8 c2 0b 00 00       	call   28107c <timer_alloc>

timer_init(timer,&timerfifo,10);//10s
  2804ba:	83 c4 0c             	add    $0xc,%esp
  2804bd:	6a 0a                	push   $0xa
  2804bf:	8d 8d 08 fe ff ff    	lea    -0x1f8(%ebp),%ecx
  2804c5:	51                   	push   %ecx
  2804c6:	57                   	push   %edi
//just one fifio
fifo8_init(&timerfifo,8,timerbuf);

timer=timer_alloc(timerctl,0);
timer2=timer_alloc(timerctl,1);
timer3=timer_alloc(timerctl,2);
  2804c7:	89 85 d8 fd ff ff    	mov    %eax,-0x228(%ebp)

timer_init(timer,&timerfifo,10);//10s
  2804cd:	e8 eb 0b 00 00       	call   2810bd <timer_init>
timer_init(timer2,&timerfifo,3);//3s
  2804d2:	83 c4 0c             	add    $0xc,%esp
  2804d5:	6a 03                	push   $0x3
  2804d7:	8d 8d 08 fe ff ff    	lea    -0x1f8(%ebp),%ecx
  2804dd:	51                   	push   %ecx
  2804de:	56                   	push   %esi
  2804df:	e8 d9 0b 00 00       	call   2810bd <timer_init>
timer_init(timer3,&timerfifo,1);//50ms
  2804e4:	83 c4 0c             	add    $0xc,%esp
  2804e7:	8d 8d 08 fe ff ff    	lea    -0x1f8(%ebp),%ecx
  2804ed:	6a 01                	push   $0x1
  2804ef:	51                   	push   %ecx
  2804f0:	ff b5 d8 fd ff ff    	pushl  -0x228(%ebp)
  2804f6:	e8 c2 0b 00 00       	call   2810bd <timer_init>
//while(1);
timer_settime(timer,1000,timerctl);
  2804fb:	83 c4 0c             	add    $0xc,%esp
  2804fe:	ff b5 e4 fd ff ff    	pushl  -0x21c(%ebp)
  280504:	68 e8 03 00 00       	push   $0x3e8
  280509:	57                   	push   %edi
  28050a:	e8 c2 0b 00 00       	call   2810d1 <timer_settime>
timer_settime(timer2,300,timerctl);
  28050f:	8b bd e4 fd ff ff    	mov    -0x21c(%ebp),%edi
  280515:	83 c4 0c             	add    $0xc,%esp
  280518:	57                   	push   %edi
  280519:	68 2c 01 00 00       	push   $0x12c
  28051e:	56                   	push   %esi
  28051f:	e8 ad 0b 00 00       	call   2810d1 <timer_settime>
timer_settime(timer3,50,timerctl);
  280524:	83 c4 0c             	add    $0xc,%esp
  280527:	57                   	push   %edi

//hoop the buffer with sheet
sheet_setbuf(sht_back,desktop,320,200,-1);
sheet_setbuf(sht_mouse,mousepic,16,16,99);
sheet_setbuf(sht_win,win_buf,160,65,-1);
mx=0;my=0;//set mouse initial position
  280528:	31 ff                	xor    %edi,%edi
timer_init(timer2,&timerfifo,3);//3s
timer_init(timer3,&timerfifo,1);//50ms
//while(1);
timer_settime(timer,1000,timerctl);
timer_settime(timer2,300,timerctl);
timer_settime(timer3,50,timerctl);
  28052a:	6a 32                	push   $0x32
  28052c:	ff b5 d8 fd ff ff    	pushl  -0x228(%ebp)

while(1)
 {

    //wrtrfrsh(sht_win,24,28,0,7,"count",5);
    sprintf(s,"%d ",timerctl->count);
  280532:	8d b5 40 fe ff ff    	lea    -0x1c0(%ebp),%esi
timer_init(timer2,&timerfifo,3);//3s
timer_init(timer3,&timerfifo,1);//50ms
//while(1);
timer_settime(timer,1000,timerctl);
timer_settime(timer2,300,timerctl);
timer_settime(timer3,50,timerctl);
  280538:	e8 94 0b 00 00       	call   2810d1 <timer_settime>
    cli();//disable cpu interrupt
     // sti();
    //while(1);
   if(fifo8_status(&keyfifo) +
   fifo8_status(&mousefifo)  +
   fifo8_status(&timerfifo)
  28053d:	8d 85 08 fe ff ff    	lea    -0x1f8(%ebp),%eax
timer_init(timer2,&timerfifo,3);//3s
timer_init(timer3,&timerfifo,1);//50ms
//while(1);
timer_settime(timer,1000,timerctl);
timer_settime(timer2,300,timerctl);
timer_settime(timer3,50,timerctl);
  280543:	83 c4 10             	add    $0x10,%esp

//hoop the buffer with sheet
sheet_setbuf(sht_back,desktop,320,200,-1);
sheet_setbuf(sht_mouse,mousepic,16,16,99);
sheet_setbuf(sht_win,win_buf,160,65,-1);
mx=0;my=0;//set mouse initial position
  280546:	c7 85 dc fd ff ff 00 	movl   $0x0,-0x224(%ebp)
  28054d:	00 00 00 
    cli();//disable cpu interrupt
     // sti();
    //while(1);
   if(fifo8_status(&keyfifo) +
   fifo8_status(&mousefifo)  +
   fifo8_status(&timerfifo)
  280550:	89 85 d4 fd ff ff    	mov    %eax,-0x22c(%ebp)

while(1)
 {

    //wrtrfrsh(sht_win,24,28,0,7,"count",5);
    sprintf(s,"%d ",timerctl->count);
  280556:	50                   	push   %eax
  280557:	8b 85 e4 fd ff ff    	mov    -0x21c(%ebp),%eax
  28055d:	ff 30                	pushl  (%eax)
  28055f:	68 c7 88 28 00       	push   $0x2888c7
  280564:	56                   	push   %esi
  280565:	e8 44 0c 00 00       	call   2811ae <sprintf>
    wrtrfrsh(sht_win,20,28,0,7,s,7);
  28056a:	83 c4 0c             	add    $0xc,%esp
  28056d:	6a 07                	push   $0x7
  28056f:	56                   	push   %esi
  280570:	6a 07                	push   $0x7
  280572:	6a 00                	push   $0x0
  280574:	6a 1c                	push   $0x1c
  280576:	6a 14                	push   $0x14
  280578:	ff b5 cc fd ff ff    	pushl  -0x234(%ebp)
  28057e:	e8 ef 09 00 00       	call   280f72 <wrtrfrsh>
    GUI_GotoXY(280,180);
  280583:	83 c4 18             	add    $0x18,%esp
  280586:	68 b4 00 00 00       	push   $0xb4
  28058b:	68 18 01 00 00       	push   $0x118
  280590:	e8 4d 38 00 00       	call   283de2 <GUI_GotoXY>
    GUI_DispDec(timerctl->count,5);
  280595:	58                   	pop    %eax
  280596:	8b 85 e4 fd ff ff    	mov    -0x21c(%ebp),%eax
  28059c:	5a                   	pop    %edx
  28059d:	6a 05                	push   $0x5
  28059f:	ff 30                	pushl  (%eax)
  2805a1:	e8 b5 3f 00 00       	call   28455b <GUI_DispDec>
    sheet_refresh(sht_back,280,180,320,190);
  2805a6:	c7 04 24 be 00 00 00 	movl   $0xbe,(%esp)
  2805ad:	68 40 01 00 00       	push   $0x140
  2805b2:	68 b4 00 00 00       	push   $0xb4
  2805b7:	68 18 01 00 00       	push   $0x118
  2805bc:	ff b5 e0 fd ff ff    	pushl  -0x220(%ebp)
  2805c2:	e8 f2 16 00 00       	call   281cb9 <sheet_refresh>

static __inline void
cli(void)
{

	__asm __volatile("cli");
  2805c7:	fa                   	cli    
    cli();//disable cpu interrupt
     // sti();
    //while(1);
   if(fifo8_status(&keyfifo) +
  2805c8:	83 c4 14             	add    $0x14,%esp
  2805cb:	68 7c a6 28 00       	push   $0x28a67c
  2805d0:	e8 f9 11 00 00       	call   2817ce <fifo8_status>
   fifo8_status(&mousefifo)  +
  2805d5:	c7 04 24 94 a6 28 00 	movl   $0x28a694,(%esp)
    GUI_DispDec(timerctl->count,5);
    sheet_refresh(sht_back,280,180,320,190);
    cli();//disable cpu interrupt
     // sti();
    //while(1);
   if(fifo8_status(&keyfifo) +
  2805dc:	89 85 c8 fd ff ff    	mov    %eax,-0x238(%ebp)
   fifo8_status(&mousefifo)  +
  2805e2:	e8 e7 11 00 00       	call   2817ce <fifo8_status>
   fifo8_status(&timerfifo)
  2805e7:	59                   	pop    %ecx
  2805e8:	ff b5 d4 fd ff ff    	pushl  -0x22c(%ebp)
    GUI_DispDec(timerctl->count,5);
    sheet_refresh(sht_back,280,180,320,190);
    cli();//disable cpu interrupt
     // sti();
    //while(1);
   if(fifo8_status(&keyfifo) +
  2805ee:	03 85 c8 fd ff ff    	add    -0x238(%ebp),%eax
  2805f4:	89 85 c8 fd ff ff    	mov    %eax,-0x238(%ebp)
   fifo8_status(&mousefifo)  +
   fifo8_status(&timerfifo)
  2805fa:	e8 cf 11 00 00       	call   2817ce <fifo8_status>
    GUI_DispDec(timerctl->count,5);
    sheet_refresh(sht_back,280,180,320,190);
    cli();//disable cpu interrupt
     // sti();
    //while(1);
   if(fifo8_status(&keyfifo) +
  2805ff:	83 c4 10             	add    $0x10,%esp
   fifo8_status(&mousefifo)  +
  280602:	03 85 c8 fd ff ff    	add    -0x238(%ebp),%eax
    GUI_DispDec(timerctl->count,5);
    sheet_refresh(sht_back,280,180,320,190);
    cli();//disable cpu interrupt
     // sti();
    //while(1);
   if(fifo8_status(&keyfifo) +
  280608:	85 c0                	test   %eax,%eax
  28060a:	75 06                	jne    280612 <bootmain+0x612>

static __inline void
sti(void)
{

	__asm __volatile("sti");
  28060c:	fb                   	sti    
  28060d:	e9 44 ff ff ff       	jmp    280556 <bootmain+0x556>
    sti();
    //hlt();//wait for interrupt
   }
   else
   {
      if(fifo8_status(&keyfifo) != 0)
  280612:	83 ec 0c             	sub    $0xc,%esp
  280615:	68 7c a6 28 00       	push   $0x28a67c
  28061a:	e8 af 11 00 00       	call   2817ce <fifo8_status>
  28061f:	83 c4 10             	add    $0x10,%esp
  280622:	85 c0                	test   %eax,%eax
  280624:	74 13                	je     280639 <bootmain+0x639>
      {
        data=fifo8_read(&keyfifo);
  280626:	83 ec 0c             	sub    $0xc,%esp
  280629:	68 7c a6 28 00       	push   $0x28a67c
  28062e:	e8 66 11 00 00       	call   281799 <fifo8_read>
  280633:	fb                   	sti    
  280634:	e9 85 01 00 00       	jmp    2807be <bootmain+0x7be>
        sti();
      }//end of keyboard decoder
      else if(fifo8_status(&mousefifo) != 0)//we have mouse interrupt data to process
  280639:	83 ec 0c             	sub    $0xc,%esp
  28063c:	68 94 a6 28 00       	push   $0x28a694
  280641:	e8 88 11 00 00       	call   2817ce <fifo8_status>
  280646:	83 c4 10             	add    $0x10,%esp
  280649:	85 c0                	test   %eax,%eax
  28064b:	0f 84 75 01 00 00    	je     2807c6 <bootmain+0x7c6>
      {
        data=fifo8_read(&mousefifo);
  280651:	83 ec 0c             	sub    $0xc,%esp
  280654:	68 94 a6 28 00       	push   $0x28a694
  280659:	e8 3b 11 00 00       	call   281799 <fifo8_read>
  28065e:	fb                   	sti    
        sti();
        if(mouse_decode(&mdec,data))
  28065f:	5a                   	pop    %edx
  280660:	0f b6 c0             	movzbl %al,%eax
  280663:	59                   	pop    %ecx
  280664:	50                   	push   %eax
  280665:	8d 85 f8 fd ff ff    	lea    -0x208(%ebp),%eax
  28066b:	50                   	push   %eax
  28066c:	e8 94 11 00 00       	call   281805 <mouse_decode>
  280671:	83 c4 10             	add    $0x10,%esp
  280674:	85 c0                	test   %eax,%eax
  280676:	0f 84 da fe ff ff    	je     280556 <bootmain+0x556>
        {
              //3个字节都得到了
              switch (mdec.button)
  28067c:	8b 85 04 fe ff ff    	mov    -0x1fc(%ebp),%eax
  280682:	83 f8 02             	cmp    $0x2,%eax
  280685:	74 11                	je     280698 <bootmain+0x698>
  280687:	83 f8 04             	cmp    $0x4,%eax
  28068a:	74 15                	je     2806a1 <bootmain+0x6a1>
  28068c:	48                   	dec    %eax
  28068d:	75 19                	jne    2806a8 <bootmain+0x6a8>
              {
                case 1:s[1]='L';break;
  28068f:	c6 85 41 fe ff ff 4c 	movb   $0x4c,-0x1bf(%ebp)
  280696:	eb 10                	jmp    2806a8 <bootmain+0x6a8>
                case 2:s[3]='R';break;
  280698:	c6 85 43 fe ff ff 52 	movb   $0x52,-0x1bd(%ebp)
  28069f:	eb 07                	jmp    2806a8 <bootmain+0x6a8>
                case 4:s[2]='M';break;
  2806a1:	c6 85 42 fe ff ff 4d 	movb   $0x4d,-0x1be(%ebp)
              }
              sprintf(s,"[lmr:%d %d]",mdec.x,mdec.y);
  2806a8:	ff b5 00 fe ff ff    	pushl  -0x200(%ebp)
  2806ae:	ff b5 fc fd ff ff    	pushl  -0x204(%ebp)
  2806b4:	68 cb 88 28 00       	push   $0x2888cb
  2806b9:	56                   	push   %esi
  2806ba:	e8 ef 0a 00 00       	call   2811ae <sprintf>
              boxfill8(desktop,320,0,32,16,32+15*8-1,33);//一个黑色的小box
  2806bf:	83 c4 0c             	add    $0xc,%esp
  2806c2:	6a 21                	push   $0x21
  2806c4:	68 97 00 00 00       	push   $0x97
  2806c9:	6a 10                	push   $0x10
  2806cb:	6a 20                	push   $0x20
  2806cd:	6a 00                	push   $0x0
  2806cf:	68 40 01 00 00       	push   $0x140
  2806d4:	53                   	push   %ebx
  2806d5:	e8 2c 03 00 00       	call   280a06 <boxfill8>
              puts8(desktop,bootp->xsize,32,16,7,s);     //display e0
  2806da:	83 c4 18             	add    $0x18,%esp
  2806dd:	56                   	push   %esi
  2806de:	6a 07                	push   $0x7
  2806e0:	6a 10                	push   $0x10
  2806e2:	6a 20                	push   $0x20
  2806e4:	0f bf 05 f4 0f 00 00 	movswl 0xff4,%eax
  2806eb:	50                   	push   %eax
  2806ec:	53                   	push   %ebx
  2806ed:	e8 b7 0b 00 00       	call   2812a9 <puts8>
              sheet_refresh(sht_back,32,16,32+20*8-1,31);
  2806f2:	83 c4 14             	add    $0x14,%esp
  2806f5:	6a 1f                	push   $0x1f
  2806f7:	68 bf 00 00 00       	push   $0xbf
  2806fc:	6a 10                	push   $0x10
  2806fe:	6a 20                	push   $0x20
  280700:	ff b5 e0 fd ff ff    	pushl  -0x220(%ebp)
  280706:	e8 ae 15 00 00       	call   281cb9 <sheet_refresh>
  28070b:	8b 95 dc fd ff ff    	mov    -0x224(%ebp),%edx
  280711:	83 c4 20             	add    $0x20,%esp
  280714:	31 c0                	xor    %eax,%eax
  280716:	03 95 fc fd ff ff    	add    -0x204(%ebp),%edx
  28071c:	0f 48 d0             	cmovs  %eax,%edx
  28071f:	03 bd 00 fe ff ff    	add    -0x200(%ebp),%edi
  280725:	89 d1                	mov    %edx,%ecx
  280727:	0f 48 f8             	cmovs  %eax,%edi
              {
                my=0;
              }


              if(mx>bootp->xsize-1)
  28072a:	0f bf 05 f4 0f 00 00 	movswl 0xff4,%eax
              {
                mx=bootp->xsize-1;
  280731:	39 c8                	cmp    %ecx,%eax
  280733:	8d 50 ff             	lea    -0x1(%eax),%edx
              }

              if(my>bootp->ysize-1)
  280736:	0f bf 05 f6 0f 00 00 	movswl 0xff6,%eax
              }


              if(mx>bootp->xsize-1)
              {
                mx=bootp->xsize-1;
  28073d:	0f 4f d1             	cmovg  %ecx,%edx
  280740:	89 d1                	mov    %edx,%ecx
  280742:	89 95 dc fd ff ff    	mov    %edx,-0x224(%ebp)
              }

              if(my>bootp->ysize-1)
              {
                my=bootp->ysize-1;
  280748:	39 f8                	cmp    %edi,%eax
  28074a:	8d 50 ff             	lea    -0x1(%eax),%edx
  28074d:	0f 4e fa             	cmovle %edx,%edi
              }
              sprintf(s,"(%d, %d)",mx,my);
  280750:	57                   	push   %edi
  280751:	51                   	push   %ecx
  280752:	68 d7 88 28 00       	push   $0x2888d7
  280757:	56                   	push   %esi
  280758:	e8 51 0a 00 00       	call   2811ae <sprintf>
              boxfill8(desktop,320,0,0,0,79,15);//坐标的背景色
  28075d:	83 c4 0c             	add    $0xc,%esp
  280760:	6a 0f                	push   $0xf
  280762:	6a 4f                	push   $0x4f
  280764:	6a 00                	push   $0x0
  280766:	6a 00                	push   $0x0
  280768:	6a 00                	push   $0x0
  28076a:	68 40 01 00 00       	push   $0x140
  28076f:	53                   	push   %ebx
  280770:	e8 91 02 00 00       	call   280a06 <boxfill8>
              puts8(desktop ,bootp->xsize,0,0,7,s);//显示坐标
  280775:	83 c4 18             	add    $0x18,%esp
  280778:	56                   	push   %esi
  280779:	6a 07                	push   $0x7
  28077b:	6a 00                	push   $0x0
  28077d:	6a 00                	push   $0x0
  28077f:	0f bf 05 f4 0f 00 00 	movswl 0xff4,%eax
  280786:	50                   	push   %eax
  280787:	53                   	push   %ebx
  280788:	e8 1c 0b 00 00       	call   2812a9 <puts8>
              sheet_refresh(sht_back,0,0,bootp->xsize,15);
  28078d:	83 c4 14             	add    $0x14,%esp
  280790:	6a 0f                	push   $0xf
  280792:	0f bf 05 f4 0f 00 00 	movswl 0xff4,%eax
  280799:	50                   	push   %eax
  28079a:	6a 00                	push   $0x0
  28079c:	6a 00                	push   $0x0
  28079e:	ff b5 e0 fd ff ff    	pushl  -0x220(%ebp)
  2807a4:	e8 10 15 00 00       	call   281cb9 <sheet_refresh>
              sheet_move(sht_mouse,mx,my);
  2807a9:	83 c4 1c             	add    $0x1c,%esp
  2807ac:	57                   	push   %edi
  2807ad:	ff b5 dc fd ff ff    	pushl  -0x224(%ebp)
  2807b3:	ff b5 d0 fd ff ff    	pushl  -0x230(%ebp)
  2807b9:	e8 fb 17 00 00       	call   281fb9 <sheet_move>
  2807be:	83 c4 10             	add    $0x10,%esp
  2807c1:	e9 90 fd ff ff       	jmp    280556 <bootmain+0x556>
        }
      }//end of mouse decoder
      else if(fifo8_status(&timerfifo)!=0)
  2807c6:	83 ec 0c             	sub    $0xc,%esp
  2807c9:	ff b5 d4 fd ff ff    	pushl  -0x22c(%ebp)
  2807cf:	e8 fa 0f 00 00       	call   2817ce <fifo8_status>
  2807d4:	83 c4 10             	add    $0x10,%esp
  2807d7:	85 c0                	test   %eax,%eax
  2807d9:	0f 84 77 fd ff ff    	je     280556 <bootmain+0x556>
  2807df:	fb                   	sti    
      {
         sti();
         data=fifo8_read(&timerfifo);
  2807e0:	83 ec 0c             	sub    $0xc,%esp
  2807e3:	ff b5 d4 fd ff ff    	pushl  -0x22c(%ebp)
  2807e9:	e8 ab 0f 00 00       	call   281799 <fifo8_read>
         if(data==10)
  2807ee:	83 c4 10             	add    $0x10,%esp
  2807f1:	3c 0a                	cmp    $0xa,%al
  2807f3:	75 3c                	jne    280831 <bootmain+0x831>
         {
            puts8(desktop ,bootp->xsize,0,64,0,"10[sec]");//显示坐标
  2807f5:	50                   	push   %eax
  2807f6:	50                   	push   %eax
  2807f7:	68 e0 88 28 00       	push   $0x2888e0
  2807fc:	6a 00                	push   $0x0
  2807fe:	6a 40                	push   $0x40
  280800:	6a 00                	push   $0x0
  280802:	0f bf 05 f4 0f 00 00 	movswl 0xff4,%eax
  280809:	50                   	push   %eax
  28080a:	53                   	push   %ebx
  28080b:	e8 99 0a 00 00       	call   2812a9 <puts8>
            sheet_refresh(sht_back,0,64,bootp->xsize,80);
  280810:	83 c4 14             	add    $0x14,%esp
  280813:	6a 50                	push   $0x50
  280815:	0f bf 05 f4 0f 00 00 	movswl 0xff4,%eax
  28081c:	50                   	push   %eax
  28081d:	6a 40                	push   $0x40
  28081f:	6a 00                	push   $0x0
  280821:	ff b5 e0 fd ff ff    	pushl  -0x220(%ebp)
  280827:	e8 8d 14 00 00       	call   281cb9 <sheet_refresh>
  28082c:	83 c4 20             	add    $0x20,%esp
  28082f:	eb 39                	jmp    28086a <bootmain+0x86a>
         }
         if(data==3)
  280831:	3c 03                	cmp    $0x3,%al
  280833:	75 31                	jne    280866 <bootmain+0x866>
         {
            puts8(desktop ,bootp->xsize,0,80,0,"3[sec]");//显示坐标
  280835:	50                   	push   %eax
  280836:	50                   	push   %eax
  280837:	68 e8 88 28 00       	push   $0x2888e8
  28083c:	6a 00                	push   $0x0
  28083e:	6a 50                	push   $0x50
  280840:	6a 00                	push   $0x0
  280842:	0f bf 05 f4 0f 00 00 	movswl 0xff4,%eax
  280849:	50                   	push   %eax
  28084a:	53                   	push   %ebx
  28084b:	e8 59 0a 00 00       	call   2812a9 <puts8>
            sheet_refresh(sht_back,0,80,bootp->xsize,96);
  280850:	83 c4 14             	add    $0x14,%esp
  280853:	6a 60                	push   $0x60
  280855:	0f bf 05 f4 0f 00 00 	movswl 0xff4,%eax
  28085c:	50                   	push   %eax
  28085d:	6a 50                	push   $0x50
  28085f:	6a 00                	push   $0x0
  280861:	e9 f3 00 00 00       	jmp    280959 <bootmain+0x959>
         }
         else
         {
             if(data!=0)
  280866:	84 c0                	test   %al,%al
  280868:	74 56                	je     2808c0 <bootmain+0x8c0>
             {
                    timer_init(timer3,&timerfifo,0);//50ms
  28086a:	51                   	push   %ecx
  28086b:	6a 00                	push   $0x0
  28086d:	ff b5 d4 fd ff ff    	pushl  -0x22c(%ebp)
  280873:	ff b5 d8 fd ff ff    	pushl  -0x228(%ebp)
  280879:	e8 3f 08 00 00       	call   2810bd <timer_init>
                    boxfill8(desktop,bootp->xsize,7,8,96,15,111);
  28087e:	83 c4 0c             	add    $0xc,%esp
  280881:	6a 6f                	push   $0x6f
  280883:	6a 0f                	push   $0xf
  280885:	6a 60                	push   $0x60
  280887:	6a 08                	push   $0x8
  280889:	6a 07                	push   $0x7
  28088b:	0f bf 05 f4 0f 00 00 	movswl 0xff4,%eax
  280892:	50                   	push   %eax
  280893:	53                   	push   %ebx
  280894:	e8 6d 01 00 00       	call   280a06 <boxfill8>
                    GUI_SetBkColorIndex(0);
  280899:	83 c4 14             	add    $0x14,%esp
  28089c:	6a 00                	push   $0x0
  28089e:	e8 1f 36 00 00       	call   283ec2 <GUI_SetBkColorIndex>
                    GUI_SetColorIndex(6);
  2808a3:	c7 04 24 06 00 00 00 	movl   $0x6,(%esp)
  2808aa:	e8 30 36 00 00       	call   283edf <GUI_SetColorIndex>
                    GUI_DispStringAt("hello wolrd",250,100);
  2808af:	83 c4 0c             	add    $0xc,%esp
  2808b2:	6a 64                	push   $0x64
  2808b4:	68 fa 00 00 00       	push   $0xfa
  2808b9:	68 ef 88 28 00       	push   $0x2888ef
  2808be:	eb 54                	jmp    280914 <bootmain+0x914>
             }
             else
             {

                    timer_init(timer3,&timerfifo,1);//50ms
  2808c0:	52                   	push   %edx
  2808c1:	6a 01                	push   $0x1
  2808c3:	ff b5 d4 fd ff ff    	pushl  -0x22c(%ebp)
  2808c9:	ff b5 d8 fd ff ff    	pushl  -0x228(%ebp)
  2808cf:	e8 e9 07 00 00       	call   2810bd <timer_init>
                    boxfill8(desktop,bootp->xsize,0,8,96,15,111);
  2808d4:	83 c4 0c             	add    $0xc,%esp
  2808d7:	6a 6f                	push   $0x6f
  2808d9:	6a 0f                	push   $0xf
  2808db:	6a 60                	push   $0x60
  2808dd:	6a 08                	push   $0x8
  2808df:	6a 00                	push   $0x0
  2808e1:	0f bf 05 f4 0f 00 00 	movswl 0xff4,%eax
  2808e8:	50                   	push   %eax
  2808e9:	53                   	push   %ebx
  2808ea:	e8 17 01 00 00       	call   280a06 <boxfill8>
                    GUI_SetBkColorIndex(6);
  2808ef:	83 c4 14             	add    $0x14,%esp
  2808f2:	6a 06                	push   $0x6
  2808f4:	e8 c9 35 00 00       	call   283ec2 <GUI_SetBkColorIndex>
                    GUI_SetColorIndex(0);
  2808f9:	c7 04 24 00 00 00 00 	movl   $0x0,(%esp)
  280900:	e8 da 35 00 00       	call   283edf <GUI_SetColorIndex>
                    GUI_DispStringAt("hello",250,100);
  280905:	83 c4 0c             	add    $0xc,%esp
  280908:	6a 64                	push   $0x64
  28090a:	68 fa 00 00 00       	push   $0xfa
  28090f:	68 78 88 28 00       	push   $0x288878
  280914:	e8 10 2c 00 00       	call   283529 <GUI_DispStringAt>
  280919:	83 c4 10             	add    $0x10,%esp
             }
                timer_settime(timer3,50,timerctl);
  28091c:	50                   	push   %eax
  28091d:	ff b5 e4 fd ff ff    	pushl  -0x21c(%ebp)
  280923:	6a 32                	push   $0x32
  280925:	ff b5 d8 fd ff ff    	pushl  -0x228(%ebp)
  28092b:	e8 a1 07 00 00       	call   2810d1 <timer_settime>
                sheet_refresh(sht_back,8,96,15,111);
  280930:	c7 04 24 6f 00 00 00 	movl   $0x6f,(%esp)
  280937:	6a 0f                	push   $0xf
  280939:	6a 60                	push   $0x60
  28093b:	6a 08                	push   $0x8
  28093d:	ff b5 e0 fd ff ff    	pushl  -0x220(%ebp)
  280943:	e8 71 13 00 00       	call   281cb9 <sheet_refresh>
                sheet_refresh(sht_back,250,100,320,108);
  280948:	83 c4 14             	add    $0x14,%esp
  28094b:	6a 6c                	push   $0x6c
  28094d:	68 40 01 00 00       	push   $0x140
  280952:	6a 64                	push   $0x64
  280954:	68 fa 00 00 00       	push   $0xfa
  280959:	ff b5 e0 fd ff ff    	pushl  -0x220(%ebp)
  28095f:	e8 55 13 00 00       	call   281cb9 <sheet_refresh>
  280964:	83 c4 20             	add    $0x20,%esp
  280967:	e9 ea fb ff ff       	jmp    280556 <bootmain+0x556>

0028096c <clear_screen>:
#include<header.h>

void clear_screen(char color) //15:pure white
{
  28096c:	55                   	push   %ebp
  int i;
  for(i=0xa0000;i<0xaffff;i++)
  28096d:	b8 00 00 0a 00       	mov    $0xa0000,%eax
#include<header.h>

void clear_screen(char color) //15:pure white
{
  280972:	89 e5                	mov    %esp,%ebp
  280974:	8a 55 08             	mov    0x8(%ebp),%dl
  int i;
  for(i=0xa0000;i<0xaffff;i++)
  {
  write_mem8(i,color);  //if we write 15 ,all pixels color will be white,15 mens pure white ,so the screen changes into white
  280977:	88 10                	mov    %dl,(%eax)
#include<header.h>

void clear_screen(char color) //15:pure white
{
  int i;
  for(i=0xa0000;i<0xaffff;i++)
  280979:	40                   	inc    %eax
  28097a:	3d ff ff 0a 00       	cmp    $0xaffff,%eax
  28097f:	75 f6                	jne    280977 <clear_screen+0xb>
  {
  write_mem8(i,color);  //if we write 15 ,all pixels color will be white,15 mens pure white ,so the screen changes into white

  }
}
  280981:	5d                   	pop    %ebp
  280982:	c3                   	ret    

00280983 <color_screen>:

void color_screen(char color) //15:pure white
{
  280983:	55                   	push   %ebp
  int i;
  color=color;
  for(i=0xa0000;i<0xaffff;i++)
  280984:	b8 00 00 0a 00       	mov    $0xa0000,%eax

  }
}

void color_screen(char color) //15:pure white
{
  280989:	89 e5                	mov    %esp,%ebp
  int i;
  color=color;
  for(i=0xa0000;i<0xaffff;i++)
  {
  write_mem8(i,i);  //if we write 15 ,all pixels color will be white,15 mens pure white ,so the screen changes into white
  28098b:	88 00                	mov    %al,(%eax)

void color_screen(char color) //15:pure white
{
  int i;
  color=color;
  for(i=0xa0000;i<0xaffff;i++)
  28098d:	40                   	inc    %eax
  28098e:	3d ff ff 0a 00       	cmp    $0xaffff,%eax
  280993:	75 f6                	jne    28098b <color_screen+0x8>
  {
  write_mem8(i,i);  //if we write 15 ,all pixels color will be white,15 mens pure white ,so the screen changes into white

  }
}
  280995:	5d                   	pop    %ebp
  280996:	c3                   	ret    

00280997 <set_palette>:
   set_palette(0,255,table_rgb);
}

//设置调色板，  只用到了16个color,后面的都没有用到。
void set_palette(int start,int end, unsigned char *rgb)
{
  280997:	55                   	push   %ebp
  280998:	89 e5                	mov    %esp,%ebp
  28099a:	56                   	push   %esi
  28099b:	8b 4d 10             	mov    0x10(%ebp),%ecx
  28099e:	53                   	push   %ebx
  28099f:	8b 5d 08             	mov    0x8(%ebp),%ebx
//read eflags and write_eflags
static __inline uint32_t
read_eflags(void)
{
        uint32_t eflags;
        __asm __volatile("pushfl; popl %0" : "=r" (eflags));
  2809a2:	9c                   	pushf  
  2809a3:	5e                   	pop    %esi

static __inline void
cli(void)
{

	__asm __volatile("cli");
  2809a4:	fa                   	cli    
// out:write a data to a port
static __inline void
outb(int port, uint8_t data)
{
  //data是变量0%0 , port是变量word１%w1
	__asm __volatile("outb %0,%w1" : : "a" (data), "d" (port));
  2809a5:	ba c8 03 00 00       	mov    $0x3c8,%edx

  cli(); // disable interrupt
  //为什么写port 0x03c8

  //rgb=rgb+;
  outb(0x03c8,start);
  2809aa:	0f b6 c3             	movzbl %bl,%eax
  2809ad:	ee                   	out    %al,(%dx)
  2809ae:	b2 c9                	mov    $0xc9,%dl
  for(i=start;i<=end;i++)
  2809b0:	3b 5d 0c             	cmp    0xc(%ebp),%ebx
  2809b3:	7f 1a                	jg     2809cf <set_palette+0x38>
  {
    outb(0x03c9,*(rgb)/4);    //outb函数是往指定的设备，送数据。
  2809b5:	8a 01                	mov    (%ecx),%al
  2809b7:	c0 e8 02             	shr    $0x2,%al
  2809ba:	ee                   	out    %al,(%dx)
    outb(0x03c9,*(rgb+1)/4);
  2809bb:	8a 41 01             	mov    0x1(%ecx),%al
  2809be:	c0 e8 02             	shr    $0x2,%al
  2809c1:	ee                   	out    %al,(%dx)
    outb(0x03c9,*(rgb+2)/4);
  2809c2:	8a 41 02             	mov    0x2(%ecx),%al
  2809c5:	c0 e8 02             	shr    $0x2,%al
  2809c8:	ee                   	out    %al,(%dx)
    rgb=rgb+3;
  2809c9:	83 c1 03             	add    $0x3,%ecx
  cli(); // disable interrupt
  //为什么写port 0x03c8

  //rgb=rgb+;
  outb(0x03c8,start);
  for(i=start;i<=end;i++)
  2809cc:	43                   	inc    %ebx
  2809cd:	eb e1                	jmp    2809b0 <set_palette+0x19>
}

static __inline void
write_eflags(uint32_t eflags)
{
        __asm __volatile("pushl %0; popfl" : : "r" (eflags));
  2809cf:	56                   	push   %esi
  2809d0:	9d                   	popf   
  }

write_eflags(eflag);  //恢复从前的cpsr
  return;

}
  2809d1:	5b                   	pop    %ebx
  2809d2:	5e                   	pop    %esi
  2809d3:	5d                   	pop    %ebp
  2809d4:	c3                   	ret    

002809d5 <init_palette>:
}

//初始化调色板，table_rgb[]保存了16种color的编码。
//什么调色板是这样进行设置，这个与x86的port 0x03c8 0x03c9
void init_palette(void)
{
  2809d5:	55                   	push   %ebp
  //16种color，每个color三个字节。
unsigned char table_rgb[16*3]={
  2809d6:	b9 0c 00 00 00       	mov    $0xc,%ecx
}

//初始化调色板，table_rgb[]保存了16种color的编码。
//什么调色板是这样进行设置，这个与x86的port 0x03c8 0x03c9
void init_palette(void)
{
  2809db:	89 e5                	mov    %esp,%ebp
  2809dd:	57                   	push   %edi
  2809de:	56                   	push   %esi
  //16种color，每个color三个字节。
unsigned char table_rgb[16*3]={
  2809df:	be 30 7e 28 00       	mov    $0x287e30,%esi
}

//初始化调色板，table_rgb[]保存了16种color的编码。
//什么调色板是这样进行设置，这个与x86的port 0x03c8 0x03c9
void init_palette(void)
{
  2809e4:	83 ec 30             	sub    $0x30,%esp
    0x00,0x00,0x84,   /*12:dark 青*/
    0x84,0x00,0x84,   /*13:dark purper*/
    0x00,0x84,0x84,   /*14:light blue*/
    0x84,0x84,0x84,   /*15:dark gray*/
  };
   set_palette(0,255,table_rgb);
  2809e7:	8d 45 c8             	lea    -0x38(%ebp),%eax
//初始化调色板，table_rgb[]保存了16种color的编码。
//什么调色板是这样进行设置，这个与x86的port 0x03c8 0x03c9
void init_palette(void)
{
  //16种color，每个color三个字节。
unsigned char table_rgb[16*3]={
  2809ea:	8d 7d c8             	lea    -0x38(%ebp),%edi
  2809ed:	f3 a5                	rep movsl %ds:(%esi),%es:(%edi)
    0x00,0x00,0x84,   /*12:dark 青*/
    0x84,0x00,0x84,   /*13:dark purper*/
    0x00,0x84,0x84,   /*14:light blue*/
    0x84,0x84,0x84,   /*15:dark gray*/
  };
   set_palette(0,255,table_rgb);
  2809ef:	50                   	push   %eax
  2809f0:	68 ff 00 00 00       	push   $0xff
  2809f5:	6a 00                	push   $0x0
  2809f7:	e8 9b ff ff ff       	call   280997 <set_palette>
  2809fc:	83 c4 0c             	add    $0xc,%esp
}
  2809ff:	8d 65 f8             	lea    -0x8(%ebp),%esp
  280a02:	5e                   	pop    %esi
  280a03:	5f                   	pop    %edi
  280a04:	5d                   	pop    %ebp
  280a05:	c3                   	ret    

00280a06 <boxfill8>:
  return;

}

void boxfill8(unsigned char *vram,int xsize,unsigned char color,int x0,int y0,int x1,int y1)
{
  280a06:	55                   	push   %ebp
  280a07:	89 e5                	mov    %esp,%ebp
  280a09:	8b 4d 18             	mov    0x18(%ebp),%ecx
  280a0c:	8b 45 0c             	mov    0xc(%ebp),%eax
  280a0f:	53                   	push   %ebx
  280a10:	8a 5d 10             	mov    0x10(%ebp),%bl
  280a13:	0f af c1             	imul   %ecx,%eax
  280a16:	03 45 08             	add    0x8(%ebp),%eax
 int x,y;
 for(y=y0;y<=y1;y++)
  280a19:	3b 4d 20             	cmp    0x20(%ebp),%ecx
  280a1c:	7f 14                	jg     280a32 <boxfill8+0x2c>
  280a1e:	8b 55 14             	mov    0x14(%ebp),%edx
 {
   for(x=x0;x<=x1;x++)
  280a21:	3b 55 1c             	cmp    0x1c(%ebp),%edx
  280a24:	7f 06                	jg     280a2c <boxfill8+0x26>
   {
      vram[y*xsize+x]=color;
  280a26:	88 1c 10             	mov    %bl,(%eax,%edx,1)
void boxfill8(unsigned char *vram,int xsize,unsigned char color,int x0,int y0,int x1,int y1)
{
 int x,y;
 for(y=y0;y<=y1;y++)
 {
   for(x=x0;x<=x1;x++)
  280a29:	42                   	inc    %edx
  280a2a:	eb f5                	jmp    280a21 <boxfill8+0x1b>
}

void boxfill8(unsigned char *vram,int xsize,unsigned char color,int x0,int y0,int x1,int y1)
{
 int x,y;
 for(y=y0;y<=y1;y++)
  280a2c:	41                   	inc    %ecx
  280a2d:	03 45 0c             	add    0xc(%ebp),%eax
  280a30:	eb e7                	jmp    280a19 <boxfill8+0x13>
   {
      vram[y*xsize+x]=color;
   }
 }

}
  280a32:	5b                   	pop    %ebx
  280a33:	5d                   	pop    %ebp
  280a34:	c3                   	ret    

00280a35 <boxfill>:
void boxfill(unsigned char color,int x0,int y0,int x1,int y1)
{
  280a35:	55                   	push   %ebp
  280a36:	89 e5                	mov    %esp,%ebp
  boxfill8((unsigned char *)VRAM,320,color,x0,y0,x1,y1);
  280a38:	ff 75 18             	pushl  0x18(%ebp)
  280a3b:	ff 75 14             	pushl  0x14(%ebp)
  280a3e:	ff 75 10             	pushl  0x10(%ebp)
  280a41:	ff 75 0c             	pushl  0xc(%ebp)
  280a44:	0f b6 45 08          	movzbl 0x8(%ebp),%eax
  280a48:	50                   	push   %eax
  280a49:	68 40 01 00 00       	push   $0x140
  280a4e:	68 00 00 0a 00       	push   $0xa0000
  280a53:	e8 ae ff ff ff       	call   280a06 <boxfill8>
  280a58:	83 c4 1c             	add    $0x1c,%esp
}
  280a5b:	c9                   	leave  
  280a5c:	c3                   	ret    

00280a5d <draw_win_buf>:


void draw_win_buf(unsigned char *p)
{
  280a5d:	55                   	push   %ebp
  280a5e:	89 e5                	mov    %esp,%ebp
  280a60:	53                   	push   %ebx
  280a61:	8b 5d 08             	mov    0x8(%ebp),%ebx
  int x=320,y=200;
    //p=(unsigned char*)VRAM;
//     boxfill8(p,320,110,20,20,250,150);

    //draw a window
    boxfill8(p,320,7 ,0, 0   ,x-1,y-29);
  280a64:	68 ab 00 00 00       	push   $0xab
  280a69:	68 3f 01 00 00       	push   $0x13f
  280a6e:	6a 00                	push   $0x0
  280a70:	6a 00                	push   $0x0
  280a72:	6a 07                	push   $0x7
  280a74:	68 40 01 00 00       	push   $0x140
  280a79:	53                   	push   %ebx
  280a7a:	e8 87 ff ff ff       	call   280a06 <boxfill8>
//task button
    boxfill8(p,320,8  ,0, y-28,x-1,y-28);
  280a7f:	68 ac 00 00 00       	push   $0xac
  280a84:	68 3f 01 00 00       	push   $0x13f
  280a89:	68 ac 00 00 00       	push   $0xac
  280a8e:	6a 00                	push   $0x0
  280a90:	6a 08                	push   $0x8
  280a92:	68 40 01 00 00       	push   $0x140
  280a97:	53                   	push   %ebx
  280a98:	e8 69 ff ff ff       	call   280a06 <boxfill8>
    boxfill8(p,320,7  ,0, y-27,x-1,y-27);
  280a9d:	83 c4 38             	add    $0x38,%esp
  280aa0:	68 ad 00 00 00       	push   $0xad
  280aa5:	68 3f 01 00 00       	push   $0x13f
  280aaa:	68 ad 00 00 00       	push   $0xad
  280aaf:	6a 00                	push   $0x0
  280ab1:	6a 07                	push   $0x7
  280ab3:	68 40 01 00 00       	push   $0x140
  280ab8:	53                   	push   %ebx
  280ab9:	e8 48 ff ff ff       	call   280a06 <boxfill8>
    boxfill8(p,320,8  ,0, y-26,x-1,y-1);
  280abe:	68 c7 00 00 00       	push   $0xc7
  280ac3:	68 3f 01 00 00       	push   $0x13f
  280ac8:	68 ae 00 00 00       	push   $0xae
  280acd:	6a 00                	push   $0x0
  280acf:	6a 08                	push   $0x8
  280ad1:	68 40 01 00 00       	push   $0x140
  280ad6:	53                   	push   %ebx
  280ad7:	e8 2a ff ff ff       	call   280a06 <boxfill8>


//left button
    boxfill8(p,320,7, 3,  y-24, 59,  y-24);
  280adc:	83 c4 38             	add    $0x38,%esp
  280adf:	68 b0 00 00 00       	push   $0xb0
  280ae4:	6a 3b                	push   $0x3b
  280ae6:	68 b0 00 00 00       	push   $0xb0
  280aeb:	6a 03                	push   $0x3
  280aed:	6a 07                	push   $0x7
  280aef:	68 40 01 00 00       	push   $0x140
  280af4:	53                   	push   %ebx
  280af5:	e8 0c ff ff ff       	call   280a06 <boxfill8>
    boxfill8(p,320,7, 2,  y-24, 2 ,  y-4);
  280afa:	68 c4 00 00 00       	push   $0xc4
  280aff:	6a 02                	push   $0x2
  280b01:	68 b0 00 00 00       	push   $0xb0
  280b06:	6a 02                	push   $0x2
  280b08:	6a 07                	push   $0x7
  280b0a:	68 40 01 00 00       	push   $0x140
  280b0f:	53                   	push   %ebx
  280b10:	e8 f1 fe ff ff       	call   280a06 <boxfill8>
    boxfill8(p,320,15, 3,  y-4,  59,  y-4);
  280b15:	83 c4 38             	add    $0x38,%esp
  280b18:	68 c4 00 00 00       	push   $0xc4
  280b1d:	6a 3b                	push   $0x3b
  280b1f:	68 c4 00 00 00       	push   $0xc4
  280b24:	6a 03                	push   $0x3
  280b26:	6a 0f                	push   $0xf
  280b28:	68 40 01 00 00       	push   $0x140
  280b2d:	53                   	push   %ebx
  280b2e:	e8 d3 fe ff ff       	call   280a06 <boxfill8>
    boxfill8(p,320,15, 59, y-23, 59,  y-5);
  280b33:	68 c3 00 00 00       	push   $0xc3
  280b38:	6a 3b                	push   $0x3b
  280b3a:	68 b1 00 00 00       	push   $0xb1
  280b3f:	6a 3b                	push   $0x3b
  280b41:	6a 0f                	push   $0xf
  280b43:	68 40 01 00 00       	push   $0x140
  280b48:	53                   	push   %ebx
  280b49:	e8 b8 fe ff ff       	call   280a06 <boxfill8>
    boxfill8(p,320,0, 2,  y-3,  59,  y-3);
  280b4e:	83 c4 38             	add    $0x38,%esp
  280b51:	68 c5 00 00 00       	push   $0xc5
  280b56:	6a 3b                	push   $0x3b
  280b58:	68 c5 00 00 00       	push   $0xc5
  280b5d:	6a 02                	push   $0x2
  280b5f:	6a 00                	push   $0x0
  280b61:	68 40 01 00 00       	push   $0x140
  280b66:	53                   	push   %ebx
  280b67:	e8 9a fe ff ff       	call   280a06 <boxfill8>
    boxfill8(p,320,0, 60, y-24, 60,  y-3);
  280b6c:	68 c5 00 00 00       	push   $0xc5
  280b71:	6a 3c                	push   $0x3c
  280b73:	68 b0 00 00 00       	push   $0xb0
  280b78:	6a 3c                	push   $0x3c
  280b7a:	6a 00                	push   $0x0
  280b7c:	68 40 01 00 00       	push   $0x140
  280b81:	53                   	push   %ebx
  280b82:	e8 7f fe ff ff       	call   280a06 <boxfill8>

//
//right button
    boxfill8(p,320,15, x-47, y-24,x-4,y-24);
  280b87:	83 c4 38             	add    $0x38,%esp
  280b8a:	68 b0 00 00 00       	push   $0xb0
  280b8f:	68 3c 01 00 00       	push   $0x13c
  280b94:	68 b0 00 00 00       	push   $0xb0
  280b99:	68 11 01 00 00       	push   $0x111
  280b9e:	6a 0f                	push   $0xf
  280ba0:	68 40 01 00 00       	push   $0x140
  280ba5:	53                   	push   %ebx
  280ba6:	e8 5b fe ff ff       	call   280a06 <boxfill8>
    boxfill8(p,320,15, x-47, y-23,x-47,y-4);
  280bab:	68 c4 00 00 00       	push   $0xc4
  280bb0:	68 11 01 00 00       	push   $0x111
  280bb5:	68 b1 00 00 00       	push   $0xb1
  280bba:	68 11 01 00 00       	push   $0x111
  280bbf:	6a 0f                	push   $0xf
  280bc1:	68 40 01 00 00       	push   $0x140
  280bc6:	53                   	push   %ebx
  280bc7:	e8 3a fe ff ff       	call   280a06 <boxfill8>
    boxfill8(p,320,7, x-47, y-3,x-4,y-3);
  280bcc:	83 c4 38             	add    $0x38,%esp
  280bcf:	68 c5 00 00 00       	push   $0xc5
  280bd4:	68 3c 01 00 00       	push   $0x13c
  280bd9:	68 c5 00 00 00       	push   $0xc5
  280bde:	68 11 01 00 00       	push   $0x111
  280be3:	6a 07                	push   $0x7
  280be5:	68 40 01 00 00       	push   $0x140
  280bea:	53                   	push   %ebx
  280beb:	e8 16 fe ff ff       	call   280a06 <boxfill8>
    boxfill8(p,320,7, x-3, y-24,x-3,y-3);
  280bf0:	68 c5 00 00 00       	push   $0xc5
  280bf5:	68 3d 01 00 00       	push   $0x13d
  280bfa:	68 b0 00 00 00       	push   $0xb0
  280bff:	68 3d 01 00 00       	push   $0x13d
  280c04:	6a 07                	push   $0x7
  280c06:	68 40 01 00 00       	push   $0x140
  280c0b:	53                   	push   %ebx
  280c0c:	e8 f5 fd ff ff       	call   280a06 <boxfill8>
  280c11:	83 c4 38             	add    $0x38,%esp
}
  280c14:	8b 5d fc             	mov    -0x4(%ebp),%ebx
  280c17:	c9                   	leave  
  280c18:	c3                   	ret    

00280c19 <draw_window>:
void draw_window()
{
  280c19:	55                   	push   %ebp
  280c1a:	89 e5                	mov    %esp,%ebp
  int x=320,y=200;
    p=(unsigned char*)VRAM;
//     boxfill8(p,320,110,20,20,250,150);

    //draw a window
    boxfill(7 ,0, 0   ,x-1,y-29);
  280c1c:	68 ab 00 00 00       	push   $0xab
  280c21:	68 3f 01 00 00       	push   $0x13f
  280c26:	6a 00                	push   $0x0
  280c28:	6a 00                	push   $0x0
  280c2a:	6a 07                	push   $0x7
  280c2c:	e8 04 fe ff ff       	call   280a35 <boxfill>
//task button
    boxfill(8  ,0, y-28,x-1,y-28);
  280c31:	68 ac 00 00 00       	push   $0xac
  280c36:	68 3f 01 00 00       	push   $0x13f
  280c3b:	68 ac 00 00 00       	push   $0xac
  280c40:	6a 00                	push   $0x0
  280c42:	6a 08                	push   $0x8
  280c44:	e8 ec fd ff ff       	call   280a35 <boxfill>
    boxfill(7  ,0, y-27,x-1,y-27);
  280c49:	83 c4 28             	add    $0x28,%esp
  280c4c:	68 ad 00 00 00       	push   $0xad
  280c51:	68 3f 01 00 00       	push   $0x13f
  280c56:	68 ad 00 00 00       	push   $0xad
  280c5b:	6a 00                	push   $0x0
  280c5d:	6a 07                	push   $0x7
  280c5f:	e8 d1 fd ff ff       	call   280a35 <boxfill>
    boxfill(8  ,0, y-26,x-1,y-1);
  280c64:	68 c7 00 00 00       	push   $0xc7
  280c69:	68 3f 01 00 00       	push   $0x13f
  280c6e:	68 ae 00 00 00       	push   $0xae
  280c73:	6a 00                	push   $0x0
  280c75:	6a 08                	push   $0x8
  280c77:	e8 b9 fd ff ff       	call   280a35 <boxfill>


//left button
    boxfill(7, 3,  y-24, 59,  y-24);
  280c7c:	83 c4 28             	add    $0x28,%esp
  280c7f:	68 b0 00 00 00       	push   $0xb0
  280c84:	6a 3b                	push   $0x3b
  280c86:	68 b0 00 00 00       	push   $0xb0
  280c8b:	6a 03                	push   $0x3
  280c8d:	6a 07                	push   $0x7
  280c8f:	e8 a1 fd ff ff       	call   280a35 <boxfill>
    boxfill(7, 2,  y-24, 2 ,  y-4);
  280c94:	68 c4 00 00 00       	push   $0xc4
  280c99:	6a 02                	push   $0x2
  280c9b:	68 b0 00 00 00       	push   $0xb0
  280ca0:	6a 02                	push   $0x2
  280ca2:	6a 07                	push   $0x7
  280ca4:	e8 8c fd ff ff       	call   280a35 <boxfill>
    boxfill(15, 3,  y-4,  59,  y-4);
  280ca9:	83 c4 28             	add    $0x28,%esp
  280cac:	68 c4 00 00 00       	push   $0xc4
  280cb1:	6a 3b                	push   $0x3b
  280cb3:	68 c4 00 00 00       	push   $0xc4
  280cb8:	6a 03                	push   $0x3
  280cba:	6a 0f                	push   $0xf
  280cbc:	e8 74 fd ff ff       	call   280a35 <boxfill>
    boxfill(15, 59, y-23, 59,  y-5);
  280cc1:	68 c3 00 00 00       	push   $0xc3
  280cc6:	6a 3b                	push   $0x3b
  280cc8:	68 b1 00 00 00       	push   $0xb1
  280ccd:	6a 3b                	push   $0x3b
  280ccf:	6a 0f                	push   $0xf
  280cd1:	e8 5f fd ff ff       	call   280a35 <boxfill>
    boxfill(0, 2,  y-3,  59,  y-3);
  280cd6:	83 c4 28             	add    $0x28,%esp
  280cd9:	68 c5 00 00 00       	push   $0xc5
  280cde:	6a 3b                	push   $0x3b
  280ce0:	68 c5 00 00 00       	push   $0xc5
  280ce5:	6a 02                	push   $0x2
  280ce7:	6a 00                	push   $0x0
  280ce9:	e8 47 fd ff ff       	call   280a35 <boxfill>
    boxfill(0, 60, y-24, 60,  y-3);
  280cee:	68 c5 00 00 00       	push   $0xc5
  280cf3:	6a 3c                	push   $0x3c
  280cf5:	68 b0 00 00 00       	push   $0xb0
  280cfa:	6a 3c                	push   $0x3c
  280cfc:	6a 00                	push   $0x0
  280cfe:	e8 32 fd ff ff       	call   280a35 <boxfill>

//
//right button
    boxfill(15, x-47, y-24,x-4,y-24);
  280d03:	83 c4 28             	add    $0x28,%esp
  280d06:	68 b0 00 00 00       	push   $0xb0
  280d0b:	68 3c 01 00 00       	push   $0x13c
  280d10:	68 b0 00 00 00       	push   $0xb0
  280d15:	68 11 01 00 00       	push   $0x111
  280d1a:	6a 0f                	push   $0xf
  280d1c:	e8 14 fd ff ff       	call   280a35 <boxfill>
    boxfill(15, x-47, y-23,x-47,y-4);
  280d21:	68 c4 00 00 00       	push   $0xc4
  280d26:	68 11 01 00 00       	push   $0x111
  280d2b:	68 b1 00 00 00       	push   $0xb1
  280d30:	68 11 01 00 00       	push   $0x111
  280d35:	6a 0f                	push   $0xf
  280d37:	e8 f9 fc ff ff       	call   280a35 <boxfill>
    boxfill(7, x-47, y-3,x-4,y-3);
  280d3c:	83 c4 28             	add    $0x28,%esp
  280d3f:	68 c5 00 00 00       	push   $0xc5
  280d44:	68 3c 01 00 00       	push   $0x13c
  280d49:	68 c5 00 00 00       	push   $0xc5
  280d4e:	68 11 01 00 00       	push   $0x111
  280d53:	6a 07                	push   $0x7
  280d55:	e8 db fc ff ff       	call   280a35 <boxfill>
    boxfill(7, x-3, y-24,x-3,y-3);
  280d5a:	68 c5 00 00 00       	push   $0xc5
  280d5f:	68 3d 01 00 00       	push   $0x13d
  280d64:	68 b0 00 00 00       	push   $0xb0
  280d69:	68 3d 01 00 00       	push   $0x13d
  280d6e:	6a 07                	push   $0x7
  280d70:	e8 c0 fc ff ff       	call   280a35 <boxfill>
  280d75:	83 c4 28             	add    $0x28,%esp
}
  280d78:	c9                   	leave  
  280d79:	c3                   	ret    

00280d7a <init_screen>:


void init_screen(struct boot_info * bootp)
{
  280d7a:	55                   	push   %ebp
  280d7b:	89 e5                	mov    %esp,%ebp
  280d7d:	8b 45 08             	mov    0x8(%ebp),%eax
  bootp->vram=(char *)VRAM;
  280d80:	c7 40 08 00 00 0a 00 	movl   $0xa0000,0x8(%eax)
  bootp->color_mode=8;
  280d87:	c6 40 02 08          	movb   $0x8,0x2(%eax)
  bootp->xsize=320;
  280d8b:	66 c7 40 04 40 01    	movw   $0x140,0x4(%eax)
  bootp->ysize=200;
  280d91:	66 c7 40 06 c8 00    	movw   $0xc8,0x6(%eax)

}
  280d97:	5d                   	pop    %ebp
  280d98:	c3                   	ret    

00280d99 <init_mouse>:

///关于mouse的函数
void init_mouse(char *mouse,char bg)
{
  280d99:	55                   	push   %ebp
  280d9a:	31 c9                	xor    %ecx,%ecx
  280d9c:	89 e5                	mov    %esp,%ebp
  280d9e:	8a 45 0c             	mov    0xc(%ebp),%al
  280da1:	8b 55 08             	mov    0x8(%ebp),%edx
  280da4:	56                   	push   %esi
  280da5:	53                   	push   %ebx
  280da6:	89 c6                	mov    %eax,%esi
  280da8:	31 c0                	xor    %eax,%eax
	int x,y;
	for(y=0;y<16;y++)
	{
	  for(x=0;x<16;x++)
	  {
	    switch (cursor[y][x])
  280daa:	8a 9c 01 40 7f 28 00 	mov    0x287f40(%ecx,%eax,1),%bl
  280db1:	80 fb 2e             	cmp    $0x2e,%bl
  280db4:	74 10                	je     280dc6 <init_mouse+0x2d>
  280db6:	80 fb 4f             	cmp    $0x4f,%bl
  280db9:	74 12                	je     280dcd <init_mouse+0x34>
  280dbb:	80 fb 2a             	cmp    $0x2a,%bl
  280dbe:	75 11                	jne    280dd1 <init_mouse+0x38>
	    {
	      case '.':mouse[x+16*y]=bg;break;  //background
	      case '*':mouse[x+16*y]=outline;break;   //outline
  280dc0:	c6 04 02 00          	movb   $0x0,(%edx,%eax,1)
  280dc4:	eb 0b                	jmp    280dd1 <init_mouse+0x38>
	{
	  for(x=0;x<16;x++)
	  {
	    switch (cursor[y][x])
	    {
	      case '.':mouse[x+16*y]=bg;break;  //background
  280dc6:	89 f3                	mov    %esi,%ebx
  280dc8:	88 1c 02             	mov    %bl,(%edx,%eax,1)
  280dcb:	eb 04                	jmp    280dd1 <init_mouse+0x38>
	      case '*':mouse[x+16*y]=outline;break;   //outline
	      case 'O':mouse[x+16*y]=inside;break;  //inside
  280dcd:	c6 04 02 02          	movb   $0x2,(%edx,%eax,1)
		".............***"
	};
	int x,y;
	for(y=0;y<16;y++)
	{
	  for(x=0;x<16;x++)
  280dd1:	40                   	inc    %eax
  280dd2:	83 f8 10             	cmp    $0x10,%eax
  280dd5:	75 d3                	jne    280daa <init_mouse+0x11>
  280dd7:	83 c1 10             	add    $0x10,%ecx
  280dda:	83 c2 10             	add    $0x10,%edx
		"*..........*OOO*",
		"............*OO*",
		".............***"
	};
	int x,y;
	for(y=0;y<16;y++)
  280ddd:	81 f9 00 01 00 00    	cmp    $0x100,%ecx
  280de3:	75 c3                	jne    280da8 <init_mouse+0xf>

	  }

	}

}
  280de5:	5b                   	pop    %ebx
  280de6:	5e                   	pop    %esi
  280de7:	5d                   	pop    %ebp
  280de8:	c3                   	ret    

00280de9 <display_mouse>:

void display_mouse(char *vram,int xsize,int pxsize,int pysize,int px0,int py0,char *buf,int bxsize)
{
  280de9:	55                   	push   %ebp
  280dea:	89 e5                	mov    %esp,%ebp
  280dec:	8b 45 1c             	mov    0x1c(%ebp),%eax
  280def:	56                   	push   %esi
  int x,y;
  for(y=0;y<pysize;y++)
  280df0:	31 f6                	xor    %esi,%esi
	}

}

void display_mouse(char *vram,int xsize,int pxsize,int pysize,int px0,int py0,char *buf,int bxsize)
{
  280df2:	53                   	push   %ebx
  280df3:	8b 5d 20             	mov    0x20(%ebp),%ebx
  280df6:	0f af 45 0c          	imul   0xc(%ebp),%eax
  280dfa:	03 45 18             	add    0x18(%ebp),%eax
  280dfd:	03 45 08             	add    0x8(%ebp),%eax
  int x,y;
  for(y=0;y<pysize;y++)
  280e00:	3b 75 14             	cmp    0x14(%ebp),%esi
  280e03:	7d 19                	jge    280e1e <display_mouse+0x35>
  280e05:	31 d2                	xor    %edx,%edx
  {
    for(x=0;x<pxsize;x++)
  280e07:	3b 55 10             	cmp    0x10(%ebp),%edx
  280e0a:	7d 09                	jge    280e15 <display_mouse+0x2c>
    {
     vram[(py0+y)*xsize+(px0+x)]=buf[y*bxsize+x];
  280e0c:	8a 0c 13             	mov    (%ebx,%edx,1),%cl
  280e0f:	88 0c 10             	mov    %cl,(%eax,%edx,1)
void display_mouse(char *vram,int xsize,int pxsize,int pysize,int px0,int py0,char *buf,int bxsize)
{
  int x,y;
  for(y=0;y<pysize;y++)
  {
    for(x=0;x<pxsize;x++)
  280e12:	42                   	inc    %edx
  280e13:	eb f2                	jmp    280e07 <display_mouse+0x1e>
}

void display_mouse(char *vram,int xsize,int pxsize,int pysize,int px0,int py0,char *buf,int bxsize)
{
  int x,y;
  for(y=0;y<pysize;y++)
  280e15:	46                   	inc    %esi
  280e16:	03 5d 24             	add    0x24(%ebp),%ebx
  280e19:	03 45 0c             	add    0xc(%ebp),%eax
  280e1c:	eb e2                	jmp    280e00 <display_mouse+0x17>
    {
     vram[(py0+y)*xsize+(px0+x)]=buf[y*bxsize+x];
    }
  }

}
  280e1e:	5b                   	pop    %ebx
  280e1f:	5e                   	pop    %esi
  280e20:	5d                   	pop    %ebp
  280e21:	c3                   	ret    

00280e22 <make_window8>:


*/

void make_window8(unsigned char *buf,int xsize,int ysize,char *title)
{
  280e22:	55                   	push   %ebp
  280e23:	89 e5                	mov    %esp,%ebp
  280e25:	57                   	push   %edi
  280e26:	56                   	push   %esi
  280e27:	53                   	push   %ebx
  280e28:	83 ec 1c             	sub    $0x1c,%esp
  280e2b:	8b 5d 0c             	mov    0xc(%ebp),%ebx
		"@@@@@@@@@@@@@@@@"
	};

	int x,y;
	char c;
    boxfill8(buf, xsize, 8, 0,         0,         xsize - 1, 0        );
  280e2e:	6a 00                	push   $0x0


*/

void make_window8(unsigned char *buf,int xsize,int ysize,char *title)
{
  280e30:	8b 75 08             	mov    0x8(%ebp),%esi
		"@@@@@@@@@@@@@@@@"
	};

	int x,y;
	char c;
    boxfill8(buf, xsize, 8, 0,         0,         xsize - 1, 0        );
  280e33:	8d 7b ff             	lea    -0x1(%ebx),%edi
  280e36:	57                   	push   %edi
  280e37:	6a 00                	push   $0x0
  280e39:	6a 00                	push   $0x0
  280e3b:	6a 08                	push   $0x8
  280e3d:	53                   	push   %ebx
  280e3e:	56                   	push   %esi
  280e3f:	e8 c2 fb ff ff       	call   280a06 <boxfill8>
	boxfill8(buf, xsize, 7, 1,         1,         xsize - 2, 1        );
  280e44:	8d 53 fe             	lea    -0x2(%ebx),%edx
  280e47:	6a 01                	push   $0x1
  280e49:	52                   	push   %edx
  280e4a:	6a 01                	push   $0x1
  280e4c:	6a 01                	push   $0x1
  280e4e:	6a 07                	push   $0x7
  280e50:	53                   	push   %ebx
  280e51:	56                   	push   %esi
  280e52:	89 55 d8             	mov    %edx,-0x28(%ebp)
  280e55:	e8 ac fb ff ff       	call   280a06 <boxfill8>
	boxfill8(buf, xsize, 8, 0,         0,         0,         ysize - 1);
  280e5a:	8b 45 10             	mov    0x10(%ebp),%eax
  280e5d:	83 c4 38             	add    $0x38,%esp
  280e60:	48                   	dec    %eax
  280e61:	50                   	push   %eax
  280e62:	6a 00                	push   $0x0
  280e64:	6a 00                	push   $0x0
  280e66:	6a 00                	push   $0x0
  280e68:	6a 08                	push   $0x8
  280e6a:	53                   	push   %ebx
  280e6b:	56                   	push   %esi
  280e6c:	89 45 e4             	mov    %eax,-0x1c(%ebp)
  280e6f:	e8 92 fb ff ff       	call   280a06 <boxfill8>
	boxfill8(buf, xsize, 7, 1,         1,         1,         ysize - 2);
  280e74:	8b 55 10             	mov    0x10(%ebp),%edx
  280e77:	8d 42 fe             	lea    -0x2(%edx),%eax
  280e7a:	50                   	push   %eax
  280e7b:	6a 01                	push   $0x1
  280e7d:	6a 01                	push   $0x1
  280e7f:	6a 01                	push   $0x1
  280e81:	6a 07                	push   $0x7
  280e83:	53                   	push   %ebx
  280e84:	56                   	push   %esi
  280e85:	89 45 e0             	mov    %eax,-0x20(%ebp)
  280e88:	e8 79 fb ff ff       	call   280a06 <boxfill8>
	boxfill8(buf, xsize, 15, xsize - 2, 1,         xsize - 2, ysize - 2);
  280e8d:	8b 45 e0             	mov    -0x20(%ebp),%eax
  280e90:	83 c4 38             	add    $0x38,%esp
  280e93:	8b 55 d8             	mov    -0x28(%ebp),%edx
  280e96:	50                   	push   %eax
  280e97:	52                   	push   %edx
  280e98:	6a 01                	push   $0x1
  280e9a:	52                   	push   %edx
  280e9b:	6a 0f                	push   $0xf
  280e9d:	53                   	push   %ebx
  280e9e:	56                   	push   %esi
  280e9f:	89 45 dc             	mov    %eax,-0x24(%ebp)
  280ea2:	89 55 e0             	mov    %edx,-0x20(%ebp)
  280ea5:	e8 5c fb ff ff       	call   280a06 <boxfill8>
	boxfill8(buf, xsize, 0, xsize - 1, 0,         xsize - 1, ysize - 1);
  280eaa:	ff 75 e4             	pushl  -0x1c(%ebp)
  280ead:	57                   	push   %edi
  280eae:	6a 00                	push   $0x0
  280eb0:	57                   	push   %edi
  280eb1:	6a 00                	push   $0x0
  280eb3:	53                   	push   %ebx
  280eb4:	56                   	push   %esi
  280eb5:	e8 4c fb ff ff       	call   280a06 <boxfill8>
	boxfill8(buf, xsize, 8, 2,         2,         xsize - 3, ysize - 3);
  280eba:	8b 55 10             	mov    0x10(%ebp),%edx
  280ebd:	83 c4 38             	add    $0x38,%esp
  280ec0:	8d 4a fd             	lea    -0x3(%edx),%ecx
  280ec3:	51                   	push   %ecx
  280ec4:	8d 4b fd             	lea    -0x3(%ebx),%ecx
  280ec7:	51                   	push   %ecx
  280ec8:	6a 02                	push   $0x2
  280eca:	6a 02                	push   $0x2
  280ecc:	6a 08                	push   $0x8
  280ece:	53                   	push   %ebx
  280ecf:	56                   	push   %esi
  280ed0:	e8 31 fb ff ff       	call   280a06 <boxfill8>
	boxfill8(buf, xsize, 12, 3,         3,         xsize - 4, 20       );
  280ed5:	8d 4b fc             	lea    -0x4(%ebx),%ecx
  280ed8:	6a 14                	push   $0x14
  280eda:	51                   	push   %ecx
  280edb:	6a 03                	push   $0x3
  280edd:	6a 03                	push   $0x3
  280edf:	6a 0c                	push   $0xc
  280ee1:	53                   	push   %ebx
  280ee2:	56                   	push   %esi
  280ee3:	e8 1e fb ff ff       	call   280a06 <boxfill8>
	boxfill8(buf, xsize, 15, 1,         ysize - 2, xsize - 2, ysize - 2);
  280ee8:	8b 45 dc             	mov    -0x24(%ebp),%eax
  280eeb:	83 c4 38             	add    $0x38,%esp
  280eee:	8b 55 e0             	mov    -0x20(%ebp),%edx
  280ef1:	50                   	push   %eax
  280ef2:	52                   	push   %edx
  280ef3:	50                   	push   %eax
  280ef4:	6a 01                	push   $0x1
  280ef6:	6a 0f                	push   $0xf
  280ef8:	53                   	push   %ebx
  280ef9:	56                   	push   %esi
  280efa:	e8 07 fb ff ff       	call   280a06 <boxfill8>
	boxfill8(buf, xsize, 0, 0,         ysize - 1, xsize - 1, ysize - 1);
  280eff:	8b 45 e4             	mov    -0x1c(%ebp),%eax
  280f02:	50                   	push   %eax
  280f03:	57                   	push   %edi


 puts8(buf,xsize,24,4,7,title);
  280f04:	31 ff                	xor    %edi,%edi
	boxfill8(buf, xsize, 15, xsize - 2, 1,         xsize - 2, ysize - 2);
	boxfill8(buf, xsize, 0, xsize - 1, 0,         xsize - 1, ysize - 1);
	boxfill8(buf, xsize, 8, 2,         2,         xsize - 3, ysize - 3);
	boxfill8(buf, xsize, 12, 3,         3,         xsize - 4, 20       );
	boxfill8(buf, xsize, 15, 1,         ysize - 2, xsize - 2, ysize - 2);
	boxfill8(buf, xsize, 0, 0,         ysize - 1, xsize - 1, ysize - 1);
  280f06:	50                   	push   %eax
  280f07:	6a 00                	push   $0x0
  280f09:	6a 00                	push   $0x0
  280f0b:	53                   	push   %ebx
  280f0c:	56                   	push   %esi
  280f0d:	e8 f4 fa ff ff       	call   280a06 <boxfill8>


 puts8(buf,xsize,24,4,7,title);
  280f12:	83 c4 30             	add    $0x30,%esp
  280f15:	ff 75 14             	pushl  0x14(%ebp)
  280f18:	6a 07                	push   $0x7
  280f1a:	6a 04                	push   $0x4
  280f1c:	6a 18                	push   $0x18
  280f1e:	53                   	push   %ebx
  280f1f:	56                   	push   %esi
  280f20:	e8 84 03 00 00       	call   2812a9 <puts8>
  280f25:	6b c3 06             	imul   $0x6,%ebx,%eax
  280f28:	83 c4 20             	add    $0x20,%esp
  280f2b:	31 d2                	xor    %edx,%edx
  280f2d:	01 c6                	add    %eax,%esi


*/

void make_window8(unsigned char *buf,int xsize,int ysize,char *title)
{
  280f2f:	31 c0                	xor    %eax,%eax
 //write the x button to the buf
 for(y=0;y<14;y++)
 {
    for(x=0;x<16;x++)
    {
        c=closebtn[y][x];
  280f31:	8a 8c 02 60 7e 28 00 	mov    0x287e60(%edx,%eax,1),%cl
        if(c=='@')
  280f38:	80 f9 40             	cmp    $0x40,%cl
  280f3b:	74 10                	je     280f4d <make_window8+0x12b>
        c=0;
        else if(c=='$')
  280f3d:	80 f9 24             	cmp    $0x24,%cl
  280f40:	74 0f                	je     280f51 <make_window8+0x12f>
        c=15;
        else if(c=='Q')
        c=8;
  280f42:	80 f9 51             	cmp    $0x51,%cl
  280f45:	0f 94 c1             	sete   %cl
  280f48:	83 c1 07             	add    $0x7,%ecx
  280f4b:	eb 06                	jmp    280f53 <make_window8+0x131>
 {
    for(x=0;x<16;x++)
    {
        c=closebtn[y][x];
        if(c=='@')
        c=0;
  280f4d:	31 c9                	xor    %ecx,%ecx
  280f4f:	eb 02                	jmp    280f53 <make_window8+0x131>
        else if(c=='$')
        c=15;
  280f51:	b1 0f                	mov    $0xf,%cl

 puts8(buf,xsize,24,4,7,title);
 //write the x button to the buf
 for(y=0;y<14;y++)
 {
    for(x=0;x<16;x++)
  280f53:	40                   	inc    %eax
  280f54:	83 f8 10             	cmp    $0x10,%eax
  280f57:	75 d8                	jne    280f31 <make_window8+0x10f>
  280f59:	83 c2 10             	add    $0x10,%edx
        c=15;
        else if(c=='Q')
        c=8;
        else c=7;
    }
    buf[(5+y)*xsize+(xsize-21+x)]=c;
  280f5c:	88 4c 3e fb          	mov    %cl,-0x5(%esi,%edi,1)
  280f60:	01 df                	add    %ebx,%edi
	boxfill8(buf, xsize, 0, 0,         ysize - 1, xsize - 1, ysize - 1);


 puts8(buf,xsize,24,4,7,title);
 //write the x button to the buf
 for(y=0;y<14;y++)
  280f62:	81 fa e0 00 00 00    	cmp    $0xe0,%edx
  280f68:	75 c5                	jne    280f2f <make_window8+0x10d>
    buf[(5+y)*xsize+(xsize-21+x)]=c;


 }
 return;
}
  280f6a:	8d 65 f4             	lea    -0xc(%ebp),%esp
  280f6d:	5b                   	pop    %ebx
  280f6e:	5e                   	pop    %esi
  280f6f:	5f                   	pop    %edi
  280f70:	5d                   	pop    %ebp
  280f71:	c3                   	ret    

00280f72 <wrtrfrsh>:

void wrtrfrsh(SHEET * sht,int x,int y,unsigned char fontcolor,unsigned backcolor,char *s,int length)
{
  280f72:	55                   	push   %ebp
  280f73:	89 e5                	mov    %esp,%ebp
  280f75:	57                   	push   %edi
  280f76:	56                   	push   %esi
  280f77:	53                   	push   %ebx
  280f78:	83 ec 1c             	sub    $0x1c,%esp
  280f7b:	8b 45 14             	mov    0x14(%ebp),%eax
  280f7e:	8b 7d 10             	mov    0x10(%ebp),%edi
  280f81:	8b 75 0c             	mov    0xc(%ebp),%esi
  280f84:	8b 4d 1c             	mov    0x1c(%ebp),%ecx
  280f87:	89 45 e4             	mov    %eax,-0x1c(%ebp)
  boxfill8(sht->buf,sht->bxsize,backcolor, x,y,x+length*8-1,y+15);
  280f8a:	8b 45 20             	mov    0x20(%ebp),%eax
  280f8d:	8d 57 0f             	lea    0xf(%edi),%edx
 }
 return;
}

void wrtrfrsh(SHEET * sht,int x,int y,unsigned char fontcolor,unsigned backcolor,char *s,int length)
{
  280f90:	8b 5d 08             	mov    0x8(%ebp),%ebx
  boxfill8(sht->buf,sht->bxsize,backcolor, x,y,x+length*8-1,y+15);
  280f93:	52                   	push   %edx
  280f94:	8d 44 c6 ff          	lea    -0x1(%esi,%eax,8),%eax
 }
 return;
}

void wrtrfrsh(SHEET * sht,int x,int y,unsigned char fontcolor,unsigned backcolor,char *s,int length)
{
  280f98:	89 4d e0             	mov    %ecx,-0x20(%ebp)
  280f9b:	0f b6 4d 18          	movzbl 0x18(%ebp),%ecx
  boxfill8(sht->buf,sht->bxsize,backcolor, x,y,x+length*8-1,y+15);
  280f9f:	50                   	push   %eax
  280fa0:	57                   	push   %edi
  280fa1:	56                   	push   %esi
  280fa2:	51                   	push   %ecx
  280fa3:	ff 73 04             	pushl  0x4(%ebx)
  280fa6:	ff 33                	pushl  (%ebx)
  280fa8:	89 55 d8             	mov    %edx,-0x28(%ebp)
  280fab:	89 45 dc             	mov    %eax,-0x24(%ebp)
  280fae:	e8 53 fa ff ff       	call   280a06 <boxfill8>
  puts8(sht->buf ,sht->bxsize,x,y,fontcolor,s);
  280fb3:	0f be 4d e4          	movsbl -0x1c(%ebp),%ecx
  280fb7:	58                   	pop    %eax
  280fb8:	ff 75 e0             	pushl  -0x20(%ebp)
  280fbb:	51                   	push   %ecx
  280fbc:	57                   	push   %edi
  280fbd:	56                   	push   %esi
  280fbe:	ff 73 04             	pushl  0x4(%ebx)
  280fc1:	ff 33                	pushl  (%ebx)
  280fc3:	e8 e1 02 00 00       	call   2812a9 <puts8>
  sheet_refresh(sht,x,y,x+length*8-1,y+15);
  280fc8:	8b 55 d8             	mov    -0x28(%ebp),%edx
  280fcb:	83 c4 30             	add    $0x30,%esp
  280fce:	8b 45 dc             	mov    -0x24(%ebp),%eax
  280fd1:	89 7d 10             	mov    %edi,0x10(%ebp)
  280fd4:	89 75 0c             	mov    %esi,0xc(%ebp)
  280fd7:	89 5d 08             	mov    %ebx,0x8(%ebp)
  280fda:	89 55 18             	mov    %edx,0x18(%ebp)
  280fdd:	89 45 14             	mov    %eax,0x14(%ebp)
}
  280fe0:	8d 65 f4             	lea    -0xc(%ebp),%esp
  280fe3:	5b                   	pop    %ebx
  280fe4:	5e                   	pop    %esi
  280fe5:	5f                   	pop    %edi
  280fe6:	5d                   	pop    %ebp

void wrtrfrsh(SHEET * sht,int x,int y,unsigned char fontcolor,unsigned backcolor,char *s,int length)
{
  boxfill8(sht->buf,sht->bxsize,backcolor, x,y,x+length*8-1,y+15);
  puts8(sht->buf ,sht->bxsize,x,y,fontcolor,s);
  sheet_refresh(sht,x,y,x+length*8-1,y+15);
  280fe7:	e9 cd 0c 00 00       	jmp    281cb9 <sheet_refresh>

00280fec <init_pit>:
#include<x86.h>
#include<timer.h>


void init_pit(TIMERCTL *timerctl)
{
  280fec:	55                   	push   %ebp
// out:write a data to a port
static __inline void
outb(int port, uint8_t data)
{
  //data是变量0%0 , port是变量word１%w1
	__asm __volatile("outb %0,%w1" : : "a" (data), "d" (port));
  280fed:	ba 43 00 00 00       	mov    $0x43,%edx
  280ff2:	89 e5                	mov    %esp,%ebp
  280ff4:	b0 34                	mov    $0x34,%al
  280ff6:	8b 4d 08             	mov    0x8(%ebp),%ecx
  280ff9:	ee                   	out    %al,(%dx)
  280ffa:	b0 9c                	mov    $0x9c,%al
  280ffc:	b2 40                	mov    $0x40,%dl
  280ffe:	ee                   	out    %al,(%dx)
  280fff:	b0 2e                	mov    $0x2e,%al
  281001:	ee                   	out    %al,(%dx)
  281002:	31 c0                	xor    %eax,%eax
 outb(0x40,11932%256);//0x9c
 outb(0x40,11932/256);//0x2e  set interrupt cycle=10ms
 int i;
 for(i=0;i<MAX_TIMER;i++)
 {
  timerctl->timer[i].flag=0;//not used
  281004:	c7 44 01 08 00 00 00 	movl   $0x0,0x8(%ecx,%eax,1)
  28100b:	00 
  28100c:	83 c0 10             	add    $0x10,%eax

 outb(0x43,0x34);//port(0x43)=0x34
 outb(0x40,11932%256);//0x9c
 outb(0x40,11932/256);//0x2e  set interrupt cycle=10ms
 int i;
 for(i=0;i<MAX_TIMER;i++)
  28100f:	3d 40 1f 00 00       	cmp    $0x1f40,%eax
  281014:	75 ee                	jne    281004 <init_pit+0x18>
 {
  timerctl->timer[i].flag=0;//not used
 }
 return;
}
  281016:	5d                   	pop    %ebp
  281017:	c3                   	ret    

00281018 <inthandler20>:


void inthandler20(int* esp)
{
  281018:	55                   	push   %ebp
  281019:	ba 20 00 00 00       	mov    $0x20,%edx
  28101e:	89 e5                	mov    %esp,%ebp
  281020:	b0 60                	mov    $0x60,%al
  281022:	56                   	push   %esi
  281023:	53                   	push   %ebx
  281024:	ee                   	out    %al,(%dx)
#define PIC0_OCW2		0x0020
    outb(PIC0_OCW2,0x60);
    TIMERCTL *timerctl=(TIMERCTL *)0x412a00;
    timerctl->count++;
  281025:	ff 05 00 2a 41 00    	incl   0x412a00
    int i;
     //printdebug(timerctl.timer[0].flag,80);
    for(i=0;i<timerctl->number;i++)
  28102b:	31 db                	xor    %ebx,%ebx
  28102d:	31 f6                	xor    %esi,%esi
  28102f:	3b 35 04 2a 41 00    	cmp    0x412a04,%esi
  281035:	73 3e                	jae    281075 <inthandler20+0x5d>
    {
        if(timerctl->timer[i].flag==RUNNING)
  281037:	83 bb 08 2a 41 00 02 	cmpl   $0x2,0x412a08(%ebx)
  28103e:	75 2f                	jne    28106f <inthandler20+0x57>
        {

            if(timerctl->timer[i].timeout<=timerctl->count)
  281040:	a1 00 2a 41 00       	mov    0x412a00,%eax
  281045:	39 83 0c 2a 41 00    	cmp    %eax,0x412a0c(%ebx)
  28104b:	77 22                	ja     28106f <inthandler20+0x57>
            {

                timerctl->timer[i].flag=ALLOC;
  28104d:	c7 83 08 2a 41 00 01 	movl   $0x1,0x412a08(%ebx)
  281054:	00 00 00 
                fifo8_write(timerctl->timer[i].fifo,timerctl->timer[i].data);
  281057:	50                   	push   %eax
  281058:	50                   	push   %eax
  281059:	0f b6 83 14 2a 41 00 	movzbl 0x412a14(%ebx),%eax
  281060:	50                   	push   %eax
  281061:	ff b3 10 2a 41 00    	pushl  0x412a10(%ebx)
  281067:	e8 ef 06 00 00       	call   28175b <fifo8_write>
  28106c:	83 c4 10             	add    $0x10,%esp
    outb(PIC0_OCW2,0x60);
    TIMERCTL *timerctl=(TIMERCTL *)0x412a00;
    timerctl->count++;
    int i;
     //printdebug(timerctl.timer[0].flag,80);
    for(i=0;i<timerctl->number;i++)
  28106f:	46                   	inc    %esi
  281070:	83 c3 10             	add    $0x10,%ebx
  281073:	eb ba                	jmp    28102f <inthandler20+0x17>
            }
        }
    }

  return;
}
  281075:	8d 65 f8             	lea    -0x8(%ebp),%esp
  281078:	5b                   	pop    %ebx
  281079:	5e                   	pop    %esi
  28107a:	5d                   	pop    %ebp
  28107b:	c3                   	ret    

0028107c <timer_alloc>:

TIMER * timer_alloc(TIMERCTL * timerctl,unsigned i)
{
  28107c:	55                   	push   %ebp

    //int i;
    for(i=0;i<MAX_TIMER;i++)
  28107d:	31 c0                	xor    %eax,%eax

  return;
}

TIMER * timer_alloc(TIMERCTL * timerctl,unsigned i)
{
  28107f:	89 e5                	mov    %esp,%ebp
  281081:	8b 55 08             	mov    0x8(%ebp),%edx
  281084:	89 c1                	mov    %eax,%ecx
  281086:	c1 e1 04             	shl    $0x4,%ecx

    //int i;
    for(i=0;i<MAX_TIMER;i++)
    {
      if((timerctl->timer[i].flag)==0)//not used
  281089:	83 7c 0a 08 00       	cmpl   $0x0,0x8(%edx,%ecx,1)
  28108e:	75 12                	jne    2810a2 <timer_alloc+0x26>
      {
       // printdebug(i,0);
        timerctl->timer[i].flag=1;
  281090:	8d 04 0a             	lea    (%edx,%ecx,1),%eax
  281093:	c7 40 08 01 00 00 00 	movl   $0x1,0x8(%eax)
       // printdebug(i,150);
        timerctl->number++;
        return &(timerctl->timer[i]);
  28109a:	83 c0 08             	add    $0x8,%eax
      if((timerctl->timer[i].flag)==0)//not used
      {
       // printdebug(i,0);
        timerctl->timer[i].flag=1;
       // printdebug(i,150);
        timerctl->number++;
  28109d:	ff 42 04             	incl   0x4(%edx)
        return &(timerctl->timer[i]);
  2810a0:	eb 0b                	jmp    2810ad <timer_alloc+0x31>

TIMER * timer_alloc(TIMERCTL * timerctl,unsigned i)
{

    //int i;
    for(i=0;i<MAX_TIMER;i++)
  2810a2:	40                   	inc    %eax
  2810a3:	3d f4 01 00 00       	cmp    $0x1f4,%eax
  2810a8:	75 da                	jne    281084 <timer_alloc+0x8>
     timerctl->number++;
      timerctl->timer[i].flag=ALLOC;
           return &(timerctl->timer[i]);
 */

     return 0;
  2810aa:	66 31 c0             	xor    %ax,%ax
}
  2810ad:	5d                   	pop    %ebp
  2810ae:	c3                   	ret    

002810af <timer_free>:


void timer_free(TIMER *timer)
{
  2810af:	55                   	push   %ebp
  2810b0:	89 e5                	mov    %esp,%ebp
  timer->flag=0;
  2810b2:	8b 45 08             	mov    0x8(%ebp),%eax
  2810b5:	c7 00 00 00 00 00    	movl   $0x0,(%eax)
  return;
}
  2810bb:	5d                   	pop    %ebp
  2810bc:	c3                   	ret    

002810bd <timer_init>:

void timer_init(TIMER *timer,struct FIFO8 *fifo,unsigned char data)
{
  2810bd:	55                   	push   %ebp
  2810be:	89 e5                	mov    %esp,%ebp
  2810c0:	8b 45 08             	mov    0x8(%ebp),%eax
 timer->fifo=fifo;
  2810c3:	8b 55 0c             	mov    0xc(%ebp),%edx
  2810c6:	89 50 08             	mov    %edx,0x8(%eax)
 timer->data=data;
  2810c9:	8b 55 10             	mov    0x10(%ebp),%edx
  2810cc:	88 50 0c             	mov    %dl,0xc(%eax)
 return;
}
  2810cf:	5d                   	pop    %ebp
  2810d0:	c3                   	ret    

002810d1 <timer_settime>:

void timer_settime(TIMER *timer,unsigned timeout,TIMERCTL * timerctl)
{
  2810d1:	55                   	push   %ebp
  2810d2:	89 e5                	mov    %esp,%ebp
    timer->timeout=timeout+timerctl->count;//只是比当前的colock点多了timeout,记录的是时刻点
  2810d4:	8b 45 10             	mov    0x10(%ebp),%eax
 timer->data=data;
 return;
}

void timer_settime(TIMER *timer,unsigned timeout,TIMERCTL * timerctl)
{
  2810d7:	8b 55 08             	mov    0x8(%ebp),%edx
    timer->timeout=timeout+timerctl->count;//只是比当前的colock点多了timeout,记录的是时刻点
  2810da:	8b 00                	mov    (%eax),%eax
  2810dc:	03 45 0c             	add    0xc(%ebp),%eax
    timer->flag=RUNNING;
  2810df:	c7 02 02 00 00 00    	movl   $0x2,(%edx)
 return;
}

void timer_settime(TIMER *timer,unsigned timeout,TIMERCTL * timerctl)
{
    timer->timeout=timeout+timerctl->count;//只是比当前的colock点多了timeout,记录的是时刻点
  2810e5:	89 42 04             	mov    %eax,0x4(%edx)
    timer->flag=RUNNING;
    return;
}
  2810e8:	5d                   	pop    %ebp
  2810e9:	c3                   	ret    

002810ea <itoa>:
boxfill(7,x,150,320,166);
puts8((char *)VRAM ,320,x,150,1,font);

}

void itoa(int value,unsigned char *buf){
  2810ea:	55                   	push   %ebp
   unsigned char tmp_buf[10] = {0};
  2810eb:	31 c0                	xor    %eax,%eax
boxfill(7,x,150,320,166);
puts8((char *)VRAM ,320,x,150,1,font);

}

void itoa(int value,unsigned char *buf){
  2810ed:	89 e5                	mov    %esp,%ebp
   unsigned char tmp_buf[10] = {0};
  2810ef:	b9 0a 00 00 00       	mov    $0xa,%ecx
boxfill(7,x,150,320,166);
puts8((char *)VRAM ,320,x,150,1,font);

}

void itoa(int value,unsigned char *buf){
  2810f4:	57                   	push   %edi
  2810f5:	56                   	push   %esi
  2810f6:	53                   	push   %ebx
  2810f7:	83 ec 10             	sub    $0x10,%esp
  2810fa:	8b 55 08             	mov    0x8(%ebp),%edx
   unsigned char tmp_buf[10] = {0};
  2810fd:	8d 7d ea             	lea    -0x16(%ebp),%edi
boxfill(7,x,150,320,166);
puts8((char *)VRAM ,320,x,150,1,font);

}

void itoa(int value,unsigned char *buf){
  281100:	8b 5d 0c             	mov    0xc(%ebp),%ebx
   unsigned char tmp_buf[10] = {0};
  281103:	f3 aa                	rep stos %al,%es:(%edi)
  281105:	8d 7d ea             	lea    -0x16(%ebp),%edi
    unsigned char *tbp = tmp_buf;
    if((value >> 31) & 0x1)
  281108:	85 d2                	test   %edx,%edx
  28110a:	79 06                	jns    281112 <itoa+0x28>
    { /* neg num */
        *buf++ = '-';//得到负号
  28110c:	c6 03 2d             	movb   $0x2d,(%ebx)
        value = ~value + 1; //将负数变为正数
  28110f:	f7 da                	neg    %edx
void itoa(int value,unsigned char *buf){
   unsigned char tmp_buf[10] = {0};
    unsigned char *tbp = tmp_buf;
    if((value >> 31) & 0x1)
    { /* neg num */
        *buf++ = '-';//得到负号
  281111:	43                   	inc    %ebx
  281112:	89 f9                	mov    %edi,%ecx



    do
    {
        *tbp++ = ('0' + (char)(value % 10));//得到低位数字
  281114:	be 0a 00 00 00       	mov    $0xa,%esi
  281119:	89 d0                	mov    %edx,%eax
  28111b:	41                   	inc    %ecx
  28111c:	99                   	cltd   
  28111d:	f7 fe                	idiv   %esi
  28111f:	83 c2 30             	add    $0x30,%edx
        value /= 10;
    }while(value);
  281122:	85 c0                	test   %eax,%eax



    do
    {
        *tbp++ = ('0' + (char)(value % 10));//得到低位数字
  281124:	88 51 ff             	mov    %dl,-0x1(%ecx)
        value /= 10;
  281127:	89 c2                	mov    %eax,%edx
    }while(value);
  281129:	75 ee                	jne    281119 <itoa+0x2f>



    do
    {
        *tbp++ = ('0' + (char)(value % 10));//得到低位数字
  28112b:	89 ce                	mov    %ecx,%esi
  28112d:	89 d8                	mov    %ebx,%eax
        value /= 10;
    }while(value);


    while(tmp_buf != tbp)
  28112f:	39 f9                	cmp    %edi,%ecx
  281131:	74 09                	je     28113c <itoa+0x52>
    {
      tbp--;
  281133:	49                   	dec    %ecx
      *buf++ = *tbp;
  281134:	8a 11                	mov    (%ecx),%dl
  281136:	40                   	inc    %eax
  281137:	88 50 ff             	mov    %dl,-0x1(%eax)
  28113a:	eb f3                	jmp    28112f <itoa+0x45>
  28113c:	89 f0                	mov    %esi,%eax
  28113e:	29 c8                	sub    %ecx,%eax

    }
    *buf='\0';
  281140:	c6 04 03 00          	movb   $0x0,(%ebx,%eax,1)


}
  281144:	83 c4 10             	add    $0x10,%esp
  281147:	5b                   	pop    %ebx
  281148:	5e                   	pop    %esi
  281149:	5f                   	pop    %edi
  28114a:	5d                   	pop    %ebp
  28114b:	c3                   	ret    

0028114c <xtoa>:
    else
        value = value + 48;
    return value;
}

void xtoa(unsigned int value,unsigned char *buf){
  28114c:	55                   	push   %ebp
   unsigned char tmp_buf[30] = {0};
  28114d:	31 c0                	xor    %eax,%eax
    else
        value = value + 48;
    return value;
}

void xtoa(unsigned int value,unsigned char *buf){
  28114f:	89 e5                	mov    %esp,%ebp
   unsigned char tmp_buf[30] = {0};
  281151:	b9 1e 00 00 00       	mov    $0x1e,%ecx
    else
        value = value + 48;
    return value;
}

void xtoa(unsigned int value,unsigned char *buf){
  281156:	57                   	push   %edi
  281157:	56                   	push   %esi
  281158:	53                   	push   %ebx
  281159:	83 ec 20             	sub    $0x20,%esp
  28115c:	8b 55 0c             	mov    0xc(%ebp),%edx
   unsigned char tmp_buf[30] = {0};
  28115f:	8d 7d d6             	lea    -0x2a(%ebp),%edi
  281162:	f3 aa                	rep stos %al,%es:(%edi)
   unsigned char *tbp = tmp_buf;
  281164:	8d 45 d6             	lea    -0x2a(%ebp),%eax

    *buf++='0';
  281167:	c6 02 30             	movb   $0x30,(%edx)
    *buf++='x';
  28116a:	8d 72 02             	lea    0x2(%edx),%esi
  28116d:	c6 42 01 78          	movb   $0x78,0x1(%edx)

    do
    {
        // *tbp++ = ('0' + (char)(value % 16));//得到低位数字
	*tbp++=fourbtoc(value&0x0000000f);
  281171:	8b 5d 08             	mov    0x8(%ebp),%ebx
  281174:	40                   	inc    %eax
  281175:	83 e3 0f             	and    $0xf,%ebx


}
static  inline unsigned char fourbtoc(int value){
    if(value >= 10)
        value = value - 10 + 65;
  281178:	83 fb 0a             	cmp    $0xa,%ebx
  28117b:	8d 4b 37             	lea    0x37(%ebx),%ecx
  28117e:	8d 7b 30             	lea    0x30(%ebx),%edi
  281181:	0f 4c cf             	cmovl  %edi,%ecx
        // *tbp++ = ('0' + (char)(value % 16));//得到低位数字
	*tbp++=fourbtoc(value&0x0000000f);

        //*tbp++ = ((value % 16)>9)?('A' + (char)(value % 16-10)):('0' + (char)(value % 16));//得到低位数字
        value >>= 4;
    }while(value);
  281184:	c1 6d 08 04          	shrl   $0x4,0x8(%ebp)
static  inline unsigned char fourbtoc(int value){
    if(value >= 10)
        value = value - 10 + 65;
    else
        value = value + 48;
    return value;
  281188:	88 48 ff             	mov    %cl,-0x1(%eax)
        // *tbp++ = ('0' + (char)(value % 16));//得到低位数字
	*tbp++=fourbtoc(value&0x0000000f);

        //*tbp++ = ((value % 16)>9)?('A' + (char)(value % 16-10)):('0' + (char)(value % 16));//得到低位数字
        value >>= 4;
    }while(value);
  28118b:	75 e4                	jne    281171 <xtoa+0x25>
    *buf++='x';

    do
    {
        // *tbp++ = ('0' + (char)(value % 16));//得到低位数字
	*tbp++=fourbtoc(value&0x0000000f);
  28118d:	89 c3                	mov    %eax,%ebx
        //*tbp++ = ((value % 16)>9)?('A' + (char)(value % 16-10)):('0' + (char)(value % 16));//得到低位数字
        value >>= 4;
    }while(value);


    while(tmp_buf != tbp)
  28118f:	8d 7d d6             	lea    -0x2a(%ebp),%edi
  281192:	39 f8                	cmp    %edi,%eax
  281194:	74 09                	je     28119f <xtoa+0x53>
    {
      tbp--;
  281196:	48                   	dec    %eax
      *buf++ = *tbp;
  281197:	8a 08                	mov    (%eax),%cl
  281199:	46                   	inc    %esi
  28119a:	88 4e ff             	mov    %cl,-0x1(%esi)
  28119d:	eb f0                	jmp    28118f <xtoa+0x43>
  28119f:	29 c3                	sub    %eax,%ebx

    }
    *buf='\0';
  2811a1:	c6 44 1a 02 00       	movb   $0x0,0x2(%edx,%ebx,1)


}
  2811a6:	83 c4 20             	add    $0x20,%esp
  2811a9:	5b                   	pop    %ebx
  2811aa:	5e                   	pop    %esi
  2811ab:	5f                   	pop    %edi
  2811ac:	5d                   	pop    %ebp
  2811ad:	c3                   	ret    

002811ae <sprintf>:



//实现可变参数的打印，主要是为了观察打印的变量。
void sprintf( char *str, char *format ,...)
{
  2811ae:	55                   	push   %ebp
  2811af:	89 e5                	mov    %esp,%ebp
  2811b1:	57                   	push   %edi
  2811b2:	56                   	push   %esi
  2811b3:	53                   	push   %ebx
  2811b4:	83 ec 10             	sub    $0x10,%esp
  2811b7:	8b 5d 08             	mov    0x8(%ebp),%ebx

   int *var=(int *)(&format)+1; //得到第一个可变参数的地址
  2811ba:	8d 75 10             	lea    0x10(%ebp),%esi
    char buffer[10];
    char *buf=buffer;
  while(*format)
  2811bd:	8b 7d 0c             	mov    0xc(%ebp),%edi
  2811c0:	8a 07                	mov    (%edi),%al
  2811c2:	84 c0                	test   %al,%al
  2811c4:	0f 84 83 00 00 00    	je     28124d <sprintf+0x9f>
  2811ca:	8d 4f 01             	lea    0x1(%edi),%ecx
  {
      if(*format!='%')
  2811cd:	3c 25                	cmp    $0x25,%al
      {
	*str++=*format++;
  2811cf:	89 4d 0c             	mov    %ecx,0xc(%ebp)
   int *var=(int *)(&format)+1; //得到第一个可变参数的地址
    char buffer[10];
    char *buf=buffer;
  while(*format)
  {
      if(*format!='%')
  2811d2:	74 05                	je     2811d9 <sprintf+0x2b>
      {
	*str++=*format++;
  2811d4:	88 03                	mov    %al,(%ebx)
  2811d6:	43                   	inc    %ebx
	continue;
  2811d7:	eb e4                	jmp    2811bd <sprintf+0xf>
      }
      else
      {
	format++;
	switch (*format)
  2811d9:	8a 47 01             	mov    0x1(%edi),%al
  2811dc:	3c 73                	cmp    $0x73,%al
  2811de:	74 46                	je     281226 <sprintf+0x78>
  2811e0:	3c 78                	cmp    $0x78,%al
  2811e2:	74 23                	je     281207 <sprintf+0x59>
  2811e4:	3c 64                	cmp    $0x64,%al
  2811e6:	75 53                	jne    28123b <sprintf+0x8d>
	{
	  case 'd':itoa(*var,buf);while(*buf){*str++=*buf++;};break;
  2811e8:	8d 45 ea             	lea    -0x16(%ebp),%eax
  2811eb:	50                   	push   %eax
  2811ec:	ff 36                	pushl  (%esi)
  2811ee:	e8 f7 fe ff ff       	call   2810ea <itoa>
  2811f3:	59                   	pop    %ecx
  2811f4:	8d 4d ea             	lea    -0x16(%ebp),%ecx
  2811f7:	58                   	pop    %eax
  2811f8:	89 d8                	mov    %ebx,%eax
  2811fa:	8a 19                	mov    (%ecx),%bl
  2811fc:	84 db                	test   %bl,%bl
  2811fe:	74 3d                	je     28123d <sprintf+0x8f>
  281200:	40                   	inc    %eax
  281201:	41                   	inc    %ecx
  281202:	88 58 ff             	mov    %bl,-0x1(%eax)
  281205:	eb f3                	jmp    2811fa <sprintf+0x4c>
	  case 'x':xtoa(*var,buf);while(*buf){*str++=*buf++;};break;
  281207:	8d 45 ea             	lea    -0x16(%ebp),%eax
  28120a:	50                   	push   %eax
  28120b:	ff 36                	pushl  (%esi)
  28120d:	e8 3a ff ff ff       	call   28114c <xtoa>
  281212:	8d 4d ea             	lea    -0x16(%ebp),%ecx
  281215:	58                   	pop    %eax
  281216:	89 d8                	mov    %ebx,%eax
  281218:	5a                   	pop    %edx
  281219:	8a 19                	mov    (%ecx),%bl
  28121b:	84 db                	test   %bl,%bl
  28121d:	74 1e                	je     28123d <sprintf+0x8f>
  28121f:	40                   	inc    %eax
  281220:	41                   	inc    %ecx
  281221:	88 58 ff             	mov    %bl,-0x1(%eax)
  281224:	eb f3                	jmp    281219 <sprintf+0x6b>
	  case 's':buf=(char*)(*var);while(*buf){*str++=*buf++;};break;
  281226:	8b 16                	mov    (%esi),%edx
  281228:	89 d8                	mov    %ebx,%eax
  28122a:	89 c1                	mov    %eax,%ecx
  28122c:	29 d9                	sub    %ebx,%ecx
  28122e:	8a 0c 11             	mov    (%ecx,%edx,1),%cl
  281231:	84 c9                	test   %cl,%cl
  281233:	74 08                	je     28123d <sprintf+0x8f>
  281235:	40                   	inc    %eax
  281236:	88 48 ff             	mov    %cl,-0x1(%eax)
  281239:	eb ef                	jmp    28122a <sprintf+0x7c>
	continue;
      }
      else
      {
	format++;
	switch (*format)
  28123b:	89 d8                	mov    %ebx,%eax
	  case 's':buf=(char*)(*var);while(*buf){*str++=*buf++;};break;

	}
	buf=buffer;
	var++;
	format++;
  28123d:	83 c7 02             	add    $0x2,%edi
	  case 'x':xtoa(*var,buf);while(*buf){*str++=*buf++;};break;
	  case 's':buf=(char*)(*var);while(*buf){*str++=*buf++;};break;

	}
	buf=buffer;
	var++;
  281240:	83 c6 04             	add    $0x4,%esi
	format++;
  281243:	89 7d 0c             	mov    %edi,0xc(%ebp)
  281246:	89 c3                	mov    %eax,%ebx
  281248:	e9 70 ff ff ff       	jmp    2811bd <sprintf+0xf>

      }

  }
  *str='\0';
  28124d:	c6 03 00             	movb   $0x0,(%ebx)

}
  281250:	8d 65 f4             	lea    -0xc(%ebp),%esp
  281253:	5b                   	pop    %ebx
  281254:	5e                   	pop    %esi
  281255:	5f                   	pop    %edi
  281256:	5d                   	pop    %ebp
  281257:	c3                   	ret    

00281258 <putfont8>:
}

}

void putfont8(char *vram ,int xsize,int x,int y,char color,char *font)//x=0 311 y=0 183
{
  281258:	55                   	push   %ebp
  int row,col;
  char d;
  for(row=0;row<16;row++)
  281259:	31 d2                	xor    %edx,%edx
}

}

void putfont8(char *vram ,int xsize,int x,int y,char color,char *font)//x=0 311 y=0 183
{
  28125b:	89 e5                	mov    %esp,%ebp
  28125d:	57                   	push   %edi
  for(row=0;row<16;row++)
  {
    d=font[row];
    for(col=0;col<8;col++)
    {
      if(d&(0x80>>col))
  28125e:	bf 80 00 00 00       	mov    $0x80,%edi
}

}

void putfont8(char *vram ,int xsize,int x,int y,char color,char *font)//x=0 311 y=0 183
{
  281263:	56                   	push   %esi
  281264:	53                   	push   %ebx
  281265:	83 ec 01             	sub    $0x1,%esp
  281268:	8a 45 18             	mov    0x18(%ebp),%al
  28126b:	88 45 f3             	mov    %al,-0xd(%ebp)
  28126e:	8b 45 14             	mov    0x14(%ebp),%eax
  281271:	0f af 45 0c          	imul   0xc(%ebp),%eax
  281275:	03 45 10             	add    0x10(%ebp),%eax
  281278:	03 45 08             	add    0x8(%ebp),%eax
  for(row=0;row<16;row++)
  {
    d=font[row];
    for(col=0;col<8;col++)
    {
      if(d&(0x80>>col))
  28127b:	8b 75 1c             	mov    0x1c(%ebp),%esi
  int row,col;
  char d;
  for(row=0;row<16;row++)
  {
    d=font[row];
    for(col=0;col<8;col++)
  28127e:	31 c9                	xor    %ecx,%ecx
    {
      if(d&(0x80>>col))
  281280:	0f be 34 16          	movsbl (%esi,%edx,1),%esi
  281284:	89 fb                	mov    %edi,%ebx
  281286:	d3 fb                	sar    %cl,%ebx
  281288:	85 f3                	test   %esi,%ebx
  28128a:	74 06                	je     281292 <putfont8+0x3a>
      {
	vram[(y+row)*xsize+x+col]=color;
  28128c:	8a 5d f3             	mov    -0xd(%ebp),%bl
  28128f:	88 1c 08             	mov    %bl,(%eax,%ecx,1)
  int row,col;
  char d;
  for(row=0;row<16;row++)
  {
    d=font[row];
    for(col=0;col<8;col++)
  281292:	41                   	inc    %ecx
  281293:	83 f9 08             	cmp    $0x8,%ecx
  281296:	75 ec                	jne    281284 <putfont8+0x2c>

void putfont8(char *vram ,int xsize,int x,int y,char color,char *font)//x=0 311 y=0 183
{
  int row,col;
  char d;
  for(row=0;row<16;row++)
  281298:	42                   	inc    %edx
  281299:	03 45 0c             	add    0xc(%ebp),%eax
  28129c:	83 fa 10             	cmp    $0x10,%edx
  28129f:	75 da                	jne    28127b <putfont8+0x23>
    }

  }
  return;

}
  2812a1:	83 c4 01             	add    $0x1,%esp
  2812a4:	5b                   	pop    %ebx
  2812a5:	5e                   	pop    %esi
  2812a6:	5f                   	pop    %edi
  2812a7:	5d                   	pop    %ebp
  2812a8:	c3                   	ret    

002812a9 <puts8>:
  *str='\0';

}

void puts8(char *vram ,int xsize,int x,int y,char color,unsigned char *font)//x=0 311 y=0 183
{
  2812a9:	55                   	push   %ebp
  2812aa:	89 e5                	mov    %esp,%ebp
  2812ac:	57                   	push   %edi
  2812ad:	8b 7d 14             	mov    0x14(%ebp),%edi
  2812b0:	56                   	push   %esi
      y=y+16;

    }
    else
    {
    putfont8((char *)vram ,xsize,x,y,color,(char *)(Font8x16+(*font)*16));
  2812b1:	0f be 75 18          	movsbl 0x18(%ebp),%esi
  *str='\0';

}

void puts8(char *vram ,int xsize,int x,int y,char color,unsigned char *font)//x=0 311 y=0 183
{
  2812b5:	53                   	push   %ebx
  2812b6:	8b 5d 10             	mov    0x10(%ebp),%ebx

 while(*font)
  2812b9:	8b 45 1c             	mov    0x1c(%ebp),%eax
  2812bc:	0f b6 00             	movzbl (%eax),%eax
  2812bf:	84 c0                	test   %al,%al
  2812c1:	74 3f                	je     281302 <puts8+0x59>
 {
    if(*font=='\n')
  2812c3:	3c 0a                	cmp    $0xa,%al
  2812c5:	75 05                	jne    2812cc <puts8+0x23>
    {
      x=0;
      y=y+16;
  2812c7:	83 c7 10             	add    $0x10,%edi
  2812ca:	eb 2f                	jmp    2812fb <puts8+0x52>

    }
    else
    {
    putfont8((char *)vram ,xsize,x,y,color,(char *)(Font8x16+(*font)*16));
  2812cc:	c1 e0 04             	shl    $0x4,%eax
  2812cf:	05 60 64 28 00       	add    $0x286460,%eax
  2812d4:	50                   	push   %eax
  2812d5:	56                   	push   %esi
  2812d6:	57                   	push   %edi
  2812d7:	53                   	push   %ebx
    x+=8;
  2812d8:	83 c3 08             	add    $0x8,%ebx
      y=y+16;

    }
    else
    {
    putfont8((char *)vram ,xsize,x,y,color,(char *)(Font8x16+(*font)*16));
  2812db:	ff 75 0c             	pushl  0xc(%ebp)
  2812de:	ff 75 08             	pushl  0x8(%ebp)
  2812e1:	e8 72 ff ff ff       	call   281258 <putfont8>
    x+=8;
    if(x>xsize)
  2812e6:	83 c4 18             	add    $0x18,%esp
  2812e9:	3b 5d 0c             	cmp    0xc(%ebp),%ebx
  2812ec:	7e 0f                	jle    2812fd <puts8+0x54>
       {
	  x=0;
	  y+=16;
  2812ee:	83 c7 10             	add    $0x10,%edi
	  if(y>183)
  2812f1:	81 ff b7 00 00 00    	cmp    $0xb7,%edi
  2812f7:	7e 02                	jle    2812fb <puts8+0x52>
	  {
	    x=0;
	    y=0;
  2812f9:	31 ff                	xor    %edi,%edi
       {
	  x=0;
	  y+=16;
	  if(y>183)
	  {
	    x=0;
  2812fb:	31 db                	xor    %ebx,%ebx

	  }
        }
    }

    font++;
  2812fd:	ff 45 1c             	incl   0x1c(%ebp)
  281300:	eb b7                	jmp    2812b9 <puts8+0x10>
}

}
  281302:	8d 65 f4             	lea    -0xc(%ebp),%esp
  281305:	5b                   	pop    %ebx
  281306:	5e                   	pop    %esi
  281307:	5f                   	pop    %edi
  281308:	5d                   	pop    %ebp
  281309:	c3                   	ret    

0028130a <printdebug>:
#include<header.h>


void printdebug(unsigned int i,unsigned int x)
{
  28130a:	55                   	push   %ebp
  28130b:	89 e5                	mov    %esp,%ebp
  28130d:	56                   	push   %esi
  28130e:	53                   	push   %ebx
  28130f:	83 ec 20             	sub    $0x20,%esp
  281312:	8b 5d 0c             	mov    0xc(%ebp),%ebx
char font[30];
sprintf(font,"Debug:var=%x" ,i);
  281315:	ff 75 08             	pushl  0x8(%ebp)
  281318:	8d 75 da             	lea    -0x26(%ebp),%esi
  28131b:	68 fb 88 28 00       	push   $0x2888fb
  281320:	56                   	push   %esi
  281321:	e8 88 fe ff ff       	call   2811ae <sprintf>
boxfill(7,x,150,320,166);
  281326:	68 a6 00 00 00       	push   $0xa6
  28132b:	68 40 01 00 00       	push   $0x140
  281330:	68 96 00 00 00       	push   $0x96
  281335:	53                   	push   %ebx
  281336:	6a 07                	push   $0x7
  281338:	e8 f8 f6 ff ff       	call   280a35 <boxfill>
puts8((char *)VRAM ,320,x,150,1,font);
  28133d:	83 c4 18             	add    $0x18,%esp
  281340:	56                   	push   %esi
  281341:	6a 01                	push   $0x1
  281343:	68 96 00 00 00       	push   $0x96
  281348:	53                   	push   %ebx
  281349:	68 40 01 00 00       	push   $0x140
  28134e:	68 00 00 0a 00       	push   $0xa0000
  281353:	e8 51 ff ff ff       	call   2812a9 <puts8>
  281358:	83 c4 20             	add    $0x20,%esp

}
  28135b:	8d 65 f8             	lea    -0x8(%ebp),%esp
  28135e:	5b                   	pop    %ebx
  28135f:	5e                   	pop    %esi
  281360:	5d                   	pop    %ebp
  281361:	c3                   	ret    

00281362 <putfont16>:

  }

}
void putfont16(char *vram ,int xsize,int x,int y,char color,unsigned short *font)//x=0 311 y=0 183
{
  281362:	55                   	push   %ebp
  281363:	31 c9                	xor    %ecx,%ecx
  281365:	89 e5                	mov    %esp,%ebp
  281367:	57                   	push   %edi
  281368:	56                   	push   %esi
  281369:	53                   	push   %ebx
  28136a:	52                   	push   %edx
  28136b:	8b 55 14             	mov    0x14(%ebp),%edx
  28136e:	0f af 55 0c          	imul   0xc(%ebp),%edx
  281372:	8b 45 10             	mov    0x10(%ebp),%eax
  281375:	03 45 08             	add    0x8(%ebp),%eax
  281378:	8a 5d 18             	mov    0x18(%ebp),%bl
  28137b:	01 d0                	add    %edx,%eax
  int row,col;
  unsigned short  d;
  unsigned short *pt=(unsigned short *)(font-32*24);
  for(row=0;row<24;row++)
  28137d:	31 d2                	xor    %edx,%edx
  28137f:	89 45 f0             	mov    %eax,-0x10(%ebp)
  {
    d=pt[row];
    for(col=0;col<16;col++)
    {
       if( (d&(1 << col) ))
  281382:	8b 7d 1c             	mov    0x1c(%ebp),%edi
  281385:	8b 45 f0             	mov    -0x10(%ebp),%eax
  281388:	0f b7 bc 57 00 fa ff 	movzwl -0x600(%edi,%edx,2),%edi
  28138f:	ff 
  281390:	8d 34 01             	lea    (%ecx,%eax,1),%esi
  unsigned short  d;
  unsigned short *pt=(unsigned short *)(font-32*24);
  for(row=0;row<24;row++)
  {
    d=pt[row];
    for(col=0;col<16;col++)
  281393:	31 c0                	xor    %eax,%eax
    {
       if( (d&(1 << col) ))
  281395:	0f a3 c7             	bt     %eax,%edi
  281398:	73 03                	jae    28139d <putfont16+0x3b>
     // if((d<<col)&0x0001)
      {
	vram[(y+row)*xsize+x+col]=color;
  28139a:	88 1c 06             	mov    %bl,(%esi,%eax,1)
  unsigned short  d;
  unsigned short *pt=(unsigned short *)(font-32*24);
  for(row=0;row<24;row++)
  {
    d=pt[row];
    for(col=0;col<16;col++)
  28139d:	40                   	inc    %eax
  28139e:	83 f8 10             	cmp    $0x10,%eax
  2813a1:	75 f2                	jne    281395 <putfont16+0x33>
void putfont16(char *vram ,int xsize,int x,int y,char color,unsigned short *font)//x=0 311 y=0 183
{
  int row,col;
  unsigned short  d;
  unsigned short *pt=(unsigned short *)(font-32*24);
  for(row=0;row<24;row++)
  2813a3:	42                   	inc    %edx
  2813a4:	03 4d 0c             	add    0xc(%ebp),%ecx
  2813a7:	83 fa 18             	cmp    $0x18,%edx
  2813aa:	75 d6                	jne    281382 <putfont16+0x20>
    }

  }
  return;

}
  2813ac:	58                   	pop    %eax
  2813ad:	5b                   	pop    %ebx
  2813ae:	5e                   	pop    %esi
  2813af:	5f                   	pop    %edi
  2813b0:	5d                   	pop    %ebp
  2813b1:	c3                   	ret    

002813b2 <puts16>:
  return;

}
//print string: big string
void puts16(char *vram ,int xsize,int x,int y,char color,char *font)
{
  2813b2:	55                   	push   %ebp
  2813b3:	89 e5                	mov    %esp,%ebp
  2813b5:	57                   	push   %edi
  2813b6:	8b 7d 10             	mov    0x10(%ebp),%edi
  2813b9:	56                   	push   %esi
  2813ba:	8b 75 14             	mov    0x14(%ebp),%esi
  2813bd:	53                   	push   %ebx

    }
    else
    {
	pt=(unsigned short *)((*font)*24+ASCII_Table);
	putfont16(vram ,xsize,x,y,color,pt);
  2813be:	0f be 5d 18          	movsbl 0x18(%ebp),%ebx
}
//print string: big string
void puts16(char *vram ,int xsize,int x,int y,char color,char *font)
{
  unsigned short  *pt;
  while(*font)
  2813c2:	8b 45 1c             	mov    0x1c(%ebp),%eax
  2813c5:	0f be 00             	movsbl (%eax),%eax
  2813c8:	84 c0                	test   %al,%al
  2813ca:	74 2d                	je     2813f9 <puts16+0x47>
  {
    if(*font=='\n')
  2813cc:	3c 0a                	cmp    $0xa,%al
  2813ce:	75 07                	jne    2813d7 <puts16+0x25>
    {
      x=0;
      y=y+24;
  2813d0:	83 c6 18             	add    $0x18,%esi
  unsigned short  *pt;
  while(*font)
  {
    if(*font=='\n')
    {
      x=0;
  2813d3:	31 ff                	xor    %edi,%edi
  2813d5:	eb 1d                	jmp    2813f4 <puts16+0x42>
      y=y+24;

    }
    else
    {
	pt=(unsigned short *)((*font)*24+ASCII_Table);
  2813d7:	6b c0 30             	imul   $0x30,%eax,%eax
  2813da:	05 60 6c 28 00       	add    $0x286c60,%eax
	putfont16(vram ,xsize,x,y,color,pt);
  2813df:	50                   	push   %eax
  2813e0:	53                   	push   %ebx
  2813e1:	56                   	push   %esi
  2813e2:	57                   	push   %edi
	x=x+16;
  2813e3:	83 c7 10             	add    $0x10,%edi

    }
    else
    {
	pt=(unsigned short *)((*font)*24+ASCII_Table);
	putfont16(vram ,xsize,x,y,color,pt);
  2813e6:	ff 75 0c             	pushl  0xc(%ebp)
  2813e9:	ff 75 08             	pushl  0x8(%ebp)
  2813ec:	e8 71 ff ff ff       	call   281362 <putfont16>
	x=x+16;
  2813f1:	83 c4 18             	add    $0x18,%esp


    }

     font++;
  2813f4:	ff 45 1c             	incl   0x1c(%ebp)
  2813f7:	eb c9                	jmp    2813c2 <puts16+0x10>

  }

}
  2813f9:	8d 65 f4             	lea    -0xc(%ebp),%esp
  2813fc:	5b                   	pop    %ebx
  2813fd:	5e                   	pop    %esi
  2813fe:	5f                   	pop    %edi
  2813ff:	5d                   	pop    %ebp
  281400:	c3                   	ret    

00281401 <setgdt>:
#include<header.h>



void setgdt(struct GDT *sd ,unsigned int limit,int base,int access)//sd: selector describe
{
  281401:	55                   	push   %ebp
  281402:	89 e5                	mov    %esp,%ebp
  281404:	8b 55 0c             	mov    0xc(%ebp),%edx
  281407:	57                   	push   %edi
  281408:	8b 45 08             	mov    0x8(%ebp),%eax
  28140b:	56                   	push   %esi
  28140c:	8b 7d 14             	mov    0x14(%ebp),%edi
  28140f:	53                   	push   %ebx
  281410:	8b 5d 10             	mov    0x10(%ebp),%ebx
  if(limit>0xffff)
  281413:	81 fa ff ff 00 00    	cmp    $0xffff,%edx
  281419:	76 09                	jbe    281424 <setgdt+0x23>
  {
    access|=0x8000;
  28141b:	81 cf 00 80 00 00    	or     $0x8000,%edi
    limit /=0x1000;
  281421:	c1 ea 0c             	shr    $0xc,%edx
  }
  sd->limit_low=limit&0xffff;
  sd->base_low=base &0xffff;
  sd->base_mid=(base>>16)&0xff;
  281424:	89 de                	mov    %ebx,%esi
  281426:	c1 fe 10             	sar    $0x10,%esi
  281429:	89 f1                	mov    %esi,%ecx
  28142b:	88 48 04             	mov    %cl,0x4(%eax)
  sd->access_right=access&0xff;
  28142e:	89 f9                	mov    %edi,%ecx
  sd->limit_high=((limit>>16)&0x0f)|((access>>8)&0xf0);//低４位是limt的高位，高４位是访问的权限设置。
  281430:	c1 ff 08             	sar    $0x8,%edi
    limit /=0x1000;
  }
  sd->limit_low=limit&0xffff;
  sd->base_low=base &0xffff;
  sd->base_mid=(base>>16)&0xff;
  sd->access_right=access&0xff;
  281433:	88 48 05             	mov    %cl,0x5(%eax)
  sd->limit_high=((limit>>16)&0x0f)|((access>>8)&0xf0);//低４位是limt的高位，高４位是访问的权限设置。
  281436:	89 f9                	mov    %edi,%ecx
  if(limit>0xffff)
  {
    access|=0x8000;
    limit /=0x1000;
  }
  sd->limit_low=limit&0xffff;
  281438:	66 89 10             	mov    %dx,(%eax)
  sd->base_low=base &0xffff;
  sd->base_mid=(base>>16)&0xff;
  sd->access_right=access&0xff;
  sd->limit_high=((limit>>16)&0x0f)|((access>>8)&0xf0);//低４位是limt的高位，高４位是访问的权限设置。
  28143b:	83 e1 f0             	and    $0xfffffff0,%ecx
  28143e:	c1 ea 10             	shr    $0x10,%edx
  {
    access|=0x8000;
    limit /=0x1000;
  }
  sd->limit_low=limit&0xffff;
  sd->base_low=base &0xffff;
  281441:	66 89 58 02          	mov    %bx,0x2(%eax)
  sd->base_mid=(base>>16)&0xff;
  sd->access_right=access&0xff;
  sd->limit_high=((limit>>16)&0x0f)|((access>>8)&0xf0);//低４位是limt的高位，高４位是访问的权限设置。
  281445:	09 d1                	or     %edx,%ecx
  sd->base_high=(base>>24)&0xff;
  281447:	c1 eb 18             	shr    $0x18,%ebx
  }
  sd->limit_low=limit&0xffff;
  sd->base_low=base &0xffff;
  sd->base_mid=(base>>16)&0xff;
  sd->access_right=access&0xff;
  sd->limit_high=((limit>>16)&0x0f)|((access>>8)&0xf0);//低４位是limt的高位，高４位是访问的权限设置。
  28144a:	88 48 06             	mov    %cl,0x6(%eax)
  sd->base_high=(base>>24)&0xff;
  28144d:	88 58 07             	mov    %bl,0x7(%eax)

}
  281450:	5b                   	pop    %ebx
  281451:	5e                   	pop    %esi
  281452:	5f                   	pop    %edi
  281453:	5d                   	pop    %ebp
  281454:	c3                   	ret    

00281455 <setidt>:

void setidt(struct IDT *gd,int offset,int selector,int access)//gd: gate describe
{
  281455:	55                   	push   %ebp
  281456:	89 e5                	mov    %esp,%ebp
  281458:	8b 45 08             	mov    0x8(%ebp),%eax
  28145b:	8b 4d 0c             	mov    0xc(%ebp),%ecx
  28145e:	8b 55 14             	mov    0x14(%ebp),%edx
  //idt中有32位的offset address
  gd->offset_low=offset & 0xffff;
  281461:	66 89 08             	mov    %cx,(%eax)
  gd->offset_high=(offset>>16)&0xffff;
  281464:	c1 e9 10             	shr    $0x10,%ecx
  281467:	66 89 48 06          	mov    %cx,0x6(%eax)

  //16位的selector决定了base address
  gd->selector=selector;
  28146b:	8b 4d 10             	mov    0x10(%ebp),%ecx

  gd->dw_count=(access>>8)&0xff;
  gd->access_right=(char)(access&0xff);//晕倒啊，是不是啊，天啊，访问权限是一个非常重要的量，错一点都不行的
  28146e:	88 50 05             	mov    %dl,0x5(%eax)
  //idt中有32位的offset address
  gd->offset_low=offset & 0xffff;
  gd->offset_high=(offset>>16)&0xffff;

  //16位的selector决定了base address
  gd->selector=selector;
  281471:	66 89 48 02          	mov    %cx,0x2(%eax)

  gd->dw_count=(access>>8)&0xff;
  281475:	89 d1                	mov    %edx,%ecx
  281477:	c1 f9 08             	sar    $0x8,%ecx
  28147a:	88 48 04             	mov    %cl,0x4(%eax)
  gd->access_right=(char)(access&0xff);//晕倒啊，是不是啊，天啊，访问权限是一个非常重要的量，错一点都不行的


}
  28147d:	5d                   	pop    %ebp
  28147e:	c3                   	ret    

0028147f <init_gdtidt>:



void  init_gdtidt()
{
  28147f:	55                   	push   %ebp
  281480:	89 e5                	mov    %esp,%ebp
  281482:	53                   	push   %ebx
  281483:	53                   	push   %ebx
  281484:	bb 00 00 27 00       	mov    $0x270000,%ebx
  struct GDT *gdt=(struct GDT *)(0x00270000);
  struct IDT *idt=(struct IDT *)(0x0026f800);
  int i;
  for(i=0;i<8192;i++)
  {
    setgdt(gdt+i,0,0,0);
  281489:	6a 00                	push   $0x0
  28148b:	6a 00                	push   $0x0
  28148d:	6a 00                	push   $0x0
  28148f:	53                   	push   %ebx
  281490:	83 c3 08             	add    $0x8,%ebx
  281493:	e8 69 ff ff ff       	call   281401 <setgdt>
void  init_gdtidt()
{
  struct GDT *gdt=(struct GDT *)(0x00270000);
  struct IDT *idt=(struct IDT *)(0x0026f800);
  int i;
  for(i=0;i<8192;i++)
  281498:	83 c4 10             	add    $0x10,%esp
  28149b:	81 fb 00 00 28 00    	cmp    $0x280000,%ebx
  2814a1:	75 e6                	jne    281489 <init_gdtidt+0xa>
  {
    setgdt(gdt+i,0,0,0);
  }
  setgdt(gdt+1,0xffffffff   ,0x00000000,0x4092);//entry.s main.c data 4GB空间的数据都能访问
  2814a3:	68 92 40 00 00       	push   $0x4092
  2814a8:	6a 00                	push   $0x0
  2814aa:	6a ff                	push   $0xffffffff
  2814ac:	68 08 00 27 00       	push   $0x270008
  2814b1:	e8 4b ff ff ff       	call   281401 <setgdt>
  setgdt(gdt+2,0x000fffff   ,0x00000000,0x409a);//entry.S code
  2814b6:	68 9a 40 00 00       	push   $0x409a
  2814bb:	6a 00                	push   $0x0
  2814bd:	68 ff ff 0f 00       	push   $0xfffff
  2814c2:	68 10 00 27 00       	push   $0x270010
  2814c7:	e8 35 ff ff ff       	call   281401 <setgdt>
  setgdt(gdt+3,0x000fffff   ,0x00280000,0x409a);  //main.c code　 0x7ffff=512kB
  2814cc:	83 c4 20             	add    $0x20,%esp
  2814cf:	68 9a 40 00 00       	push   $0x409a
  2814d4:	68 00 00 28 00       	push   $0x280000
  2814d9:	68 ff ff 0f 00       	push   $0xfffff
  2814de:	68 18 00 27 00       	push   $0x270018
  2814e3:	e8 19 ff ff ff       	call   281401 <setgdt>

   load_gdtr(0xfff,0X00270000);//this is right
  2814e8:	5a                   	pop    %edx
  2814e9:	59                   	pop    %ecx
  2814ea:	68 00 00 27 00       	push   $0x270000
  2814ef:	68 ff 0f 00 00       	push   $0xfff
  2814f4:	e8 17 02 00 00       	call   281710 <load_gdtr>
  2814f9:	83 c4 10             	add    $0x10,%esp
  2814fc:	31 c0                	xor    %eax,%eax
}

void setidt(struct IDT *gd,int offset,int selector,int access)//gd: gate describe
{
  //idt中有32位的offset address
  gd->offset_low=offset & 0xffff;
  2814fe:	66 c7 80 00 f8 26 00 	movw   $0x0,0x26f800(%eax)
  281505:	00 00 
  281507:	83 c0 08             	add    $0x8,%eax
  gd->offset_high=(offset>>16)&0xffff;
  28150a:	66 c7 80 fe f7 26 00 	movw   $0x0,0x26f7fe(%eax)
  281511:	00 00 

  //16位的selector决定了base address
  gd->selector=selector;
  281513:	66 c7 80 fa f7 26 00 	movw   $0x0,0x26f7fa(%eax)
  28151a:	00 00 

  gd->dw_count=(access>>8)&0xff;
  28151c:	c6 80 fc f7 26 00 00 	movb   $0x0,0x26f7fc(%eax)
  gd->access_right=(char)(access&0xff);//晕倒啊，是不是啊，天啊，访问权限是一个非常重要的量，错一点都不行的
  281523:	c6 80 fd f7 26 00 00 	movb   $0x0,0x26f7fd(%eax)
  setgdt(gdt+2,0x000fffff   ,0x00000000,0x409a);//entry.S code
  setgdt(gdt+3,0x000fffff   ,0x00280000,0x409a);  //main.c code　 0x7ffff=512kB

   load_gdtr(0xfff,0X00270000);//this is right

  for(i=0;i<256;i++)
  28152a:	3d 00 08 00 00       	cmp    $0x800,%eax
  28152f:	75 cd                	jne    2814fe <init_gdtidt+0x7f>

void setidt(struct IDT *gd,int offset,int selector,int access)//gd: gate describe
{
  //idt中有32位的offset address
  gd->offset_low=offset & 0xffff;
  gd->offset_high=(offset>>16)&0xffff;
  281531:	ba da 16 28 00       	mov    $0x2816da,%edx
  281536:	66 31 c0             	xor    %ax,%ax
  281539:	c1 ea 10             	shr    $0x10,%edx
}

void setidt(struct IDT *gd,int offset,int selector,int access)//gd: gate describe
{
  //idt中有32位的offset address
  gd->offset_low=offset & 0xffff;
  28153c:	b9 da 16 28 00       	mov    $0x2816da,%ecx
  281541:	66 89 88 00 f8 26 00 	mov    %cx,0x26f800(%eax)
  281548:	83 c0 08             	add    $0x8,%eax
  gd->offset_high=(offset>>16)&0xffff;
  28154b:	66 89 90 fe f7 26 00 	mov    %dx,0x26f7fe(%eax)

  //16位的selector决定了base address
  gd->selector=selector;
  281552:	66 c7 80 fa f7 26 00 	movw   $0x18,0x26f7fa(%eax)
  281559:	18 00 

  gd->dw_count=(access>>8)&0xff;
  28155b:	c6 80 fc f7 26 00 00 	movb   $0x0,0x26f7fc(%eax)
  gd->access_right=(char)(access&0xff);//晕倒啊，是不是啊，天啊，访问权限是一个非常重要的量，错一点都不行的
  281562:	c6 80 fd f7 26 00 8e 	movb   $0x8e,0x26f7fd(%eax)
  for(i=0;i<256;i++)
  {
    setidt(idt+i,0,0,0);
  }

  for(i=0;i<256;i++)
  281569:	3d 00 08 00 00       	cmp    $0x800,%eax
  28156e:	75 d1                	jne    281541 <init_gdtidt+0xc2>
  {
      setidt(idt+i,(int)asm_inthandler21,3*8,0x008e);//用printdebug显示之后，证明这一部分是写进去了

  }
  setidt(idt+0x20,(int)asm_inthandler20-0x280000,3*8,0x008e);//挂载timer interrrupt service 汇编程序
  281570:	b8 bf 16 00 00       	mov    $0x16bf,%eax
}

void setidt(struct IDT *gd,int offset,int selector,int access)//gd: gate describe
{
  //idt中有32位的offset address
  gd->offset_low=offset & 0xffff;
  281575:	66 a3 00 f9 26 00    	mov    %ax,0x26f900
  gd->offset_high=(offset>>16)&0xffff;
  28157b:	c1 e8 10             	shr    $0x10,%eax
  28157e:	66 a3 06 f9 26 00    	mov    %ax,0x26f906
  {
      setidt(idt+i,(int)asm_inthandler21,3*8,0x008e);//用printdebug显示之后，证明这一部分是写进去了

  }
  setidt(idt+0x20,(int)asm_inthandler20-0x280000,3*8,0x008e);//挂载timer interrrupt service 汇编程序
  setidt(idt+0x21,(int)asm_inthandler21-0x280000,3*8,0x008e);//挂载keyboard interrupt service汇编程序
  281584:	b8 da 16 00 00       	mov    $0x16da,%eax
}

void setidt(struct IDT *gd,int offset,int selector,int access)//gd: gate describe
{
  //idt中有32位的offset address
  gd->offset_low=offset & 0xffff;
  281589:	66 a3 08 f9 26 00    	mov    %ax,0x26f908
  gd->offset_high=(offset>>16)&0xffff;
  28158f:	c1 e8 10             	shr    $0x10,%eax
  281592:	66 a3 0e f9 26 00    	mov    %ax,0x26f90e
      setidt(idt+i,(int)asm_inthandler21,3*8,0x008e);//用printdebug显示之后，证明这一部分是写进去了

  }
  setidt(idt+0x20,(int)asm_inthandler20-0x280000,3*8,0x008e);//挂载timer interrrupt service 汇编程序
  setidt(idt+0x21,(int)asm_inthandler21-0x280000,3*8,0x008e);//挂载keyboard interrupt service汇编程序
  setidt(idt+0x2c,(int)asm_inthandler2c-0x280000,3*8,0x008e);//挂载mouse 　　interrupt service汇编程序
  281598:	b8 f5 16 00 00       	mov    $0x16f5,%eax
}

void setidt(struct IDT *gd,int offset,int selector,int access)//gd: gate describe
{
  //idt中有32位的offset address
  gd->offset_low=offset & 0xffff;
  28159d:	66 a3 60 f9 26 00    	mov    %ax,0x26f960
  gd->offset_high=(offset>>16)&0xffff;
  2815a3:	c1 e8 10             	shr    $0x10,%eax
  2815a6:	66 a3 66 f9 26 00    	mov    %ax,0x26f966

  //16位的selector决定了base address
  gd->selector=selector;
  2815ac:	66 c7 05 02 f9 26 00 	movw   $0x18,0x26f902
  2815b3:	18 00 

  gd->dw_count=(access>>8)&0xff;
  2815b5:	c6 05 04 f9 26 00 00 	movb   $0x0,0x26f904
  gd->access_right=(char)(access&0xff);//晕倒啊，是不是啊，天啊，访问权限是一个非常重要的量，错一点都不行的
  2815bc:	c6 05 05 f9 26 00 8e 	movb   $0x8e,0x26f905
  //idt中有32位的offset address
  gd->offset_low=offset & 0xffff;
  gd->offset_high=(offset>>16)&0xffff;

  //16位的selector决定了base address
  gd->selector=selector;
  2815c3:	66 c7 05 0a f9 26 00 	movw   $0x18,0x26f90a
  2815ca:	18 00 

  gd->dw_count=(access>>8)&0xff;
  2815cc:	c6 05 0c f9 26 00 00 	movb   $0x0,0x26f90c
  gd->access_right=(char)(access&0xff);//晕倒啊，是不是啊，天啊，访问权限是一个非常重要的量，错一点都不行的
  2815d3:	c6 05 0d f9 26 00 8e 	movb   $0x8e,0x26f90d
  //idt中有32位的offset address
  gd->offset_low=offset & 0xffff;
  gd->offset_high=(offset>>16)&0xffff;

  //16位的selector决定了base address
  gd->selector=selector;
  2815da:	66 c7 05 62 f9 26 00 	movw   $0x18,0x26f962
  2815e1:	18 00 

  gd->dw_count=(access>>8)&0xff;
  2815e3:	c6 05 64 f9 26 00 00 	movb   $0x0,0x26f964
  gd->access_right=(char)(access&0xff);//晕倒啊，是不是啊，天啊，访问权限是一个非常重要的量，错一点都不行的
  2815ea:	c6 05 65 f9 26 00 8e 	movb   $0x8e,0x26f965

 // setidt(idt+0x21,(int)asm_inthandler21,2*8,0x008e);//挂载keyboard interrupt service
 // setidt(idt+0x2c,(int)asm_inthandler2c,2*8,0x008e);//挂载mouse 　　interrupt serv
  //printdebug(asm_inthandler2c,0);

  load_idtr(0x7ff,0x0026f800);//this is right
  2815f1:	50                   	push   %eax
  2815f2:	50                   	push   %eax
  2815f3:	68 00 f8 26 00       	push   $0x26f800
  2815f8:	68 ff 07 00 00       	push   $0x7ff
  2815fd:	e8 1e 01 00 00       	call   281720 <load_idtr>
  281602:	83 c4 10             	add    $0x10,%esp



  return;

}
  281605:	8b 5d fc             	mov    -0x4(%ebp),%ebx
  281608:	c9                   	leave  
  281609:	c3                   	ret    

0028160a <init_pic>:
#define PIC1_ICW4		0x00a1
*/

//remap irq0-irq15到int 0x20到int 0x2f
void init_pic()
{
  28160a:	55                   	push   %ebp
  28160b:	ba 21 00 00 00       	mov    $0x21,%edx
  281610:	89 e5                	mov    %esp,%ebp
  281612:	b0 ff                	mov    $0xff,%al
  281614:	ee                   	out    %al,(%dx)
  281615:	b2 a1                	mov    $0xa1,%dl
  281617:	ee                   	out    %al,(%dx)
  281618:	b0 11                	mov    $0x11,%al
  28161a:	b2 20                	mov    $0x20,%dl
  28161c:	ee                   	out    %al,(%dx)
  28161d:	b0 20                	mov    $0x20,%al
  28161f:	b2 21                	mov    $0x21,%dl
  281621:	ee                   	out    %al,(%dx)
  281622:	b0 04                	mov    $0x4,%al
  281624:	ee                   	out    %al,(%dx)
  281625:	b0 01                	mov    $0x1,%al
  281627:	ee                   	out    %al,(%dx)
  281628:	b0 11                	mov    $0x11,%al
  28162a:	b2 a0                	mov    $0xa0,%dl
  28162c:	ee                   	out    %al,(%dx)
  28162d:	b0 28                	mov    $0x28,%al
  28162f:	b2 a1                	mov    $0xa1,%dl
  281631:	ee                   	out    %al,(%dx)
  281632:	b0 02                	mov    $0x2,%al
  281634:	ee                   	out    %al,(%dx)
  281635:	b0 01                	mov    $0x1,%al
  281637:	ee                   	out    %al,(%dx)
  281638:	b0 fb                	mov    $0xfb,%al
  28163a:	b2 21                	mov    $0x21,%dl
  28163c:	ee                   	out    %al,(%dx)
  28163d:	b0 ff                	mov    $0xff,%al
  28163f:	b2 a1                	mov    $0xa1,%dl
  281641:	ee                   	out    %al,(%dx)

所以cpu发现是产生了int 0到int0x1f时，就知道是非常重要的中断产生了，是不可mask的，一定要执行的。

   */

}
  281642:	5d                   	pop    %ebp
  281643:	c3                   	ret    

00281644 <inthandler21>:
struct FIFO8 keyfifo;//a global data
//上面是一个全局变量

//interrupt service procedure for keyboard  中断服务程序，读取按键的键值。
void inthandler21(int *esp)
{
  281644:	55                   	push   %ebp
  281645:	ba 20 00 00 00       	mov    $0x20,%edx
  28164a:	89 e5                	mov    %esp,%ebp
  28164c:	b0 61                	mov    $0x61,%al
  28164e:	83 ec 10             	sub    $0x10,%esp
  281651:	ee                   	out    %al,(%dx)
static __inline uint8_t
inb(int port)
{
  //read a byte from port
	uint8_t data;
	__asm __volatile("inb %w1,%0" : "=a" (data) : "d" (port));
  281652:	b2 60                	mov    $0x60,%dl
  281654:	ec                   	in     (%dx),%al
  //struct  boot_info *binfo=(struct boot_info *)ADDR_BOOT;
  unsigned char data;
  outb(PIC0_OCW2,0X61);//0X61-->PIC0_OCW2 　告之pic0这个芯片，irq1中断(就是keyboard产生的中断)cpu已经处理，这样pic0才会响应　下一次的irq1中断
  //如果不告之pic0已经处理了这次中断，pico对已后的irq1中断就会响应了。这种cpu处理完了中断，对pic0的反馈机制是非常好的，不会漏掉任何数据。
  data=inb(PORT_KEYDAT);
  fifo8_write(&keyfifo,data);
  281655:	0f b6 c0             	movzbl %al,%eax
  281658:	50                   	push   %eax
  281659:	68 7c a6 28 00       	push   $0x28a67c
  28165e:	e8 f8 00 00 00       	call   28175b <fifo8_write>
  281663:	83 c4 10             	add    $0x10,%esp
  //puts8((char *)binfo->vram ,binfo->xsize,0,0,7,s);

  //while(1)
  //io_halt();
  
}
  281666:	c9                   	leave  
  281667:	c3                   	ret    

00281668 <inthandler2c>:
//中断处理程序不应该有大量的处理部分，应该得到数据后，马上回去，在主函数中处理信息才是对的，与５１中是一个道理。isr尽量短小。

//interrupt service for mouse 
struct FIFO8 mousefifo;
void inthandler2c(int *esp)//可以看到一运行enable_后就，就产生了中断，进入了这个中断服务函数。
{
  281668:	55                   	push   %ebp
// out:write a data to a port
static __inline void
outb(int port, uint8_t data)
{
  //data是变量0%0 , port是变量word１%w1
	__asm __volatile("outb %0,%w1" : : "a" (data), "d" (port));
  281669:	ba a0 00 00 00       	mov    $0xa0,%edx
  28166e:	89 e5                	mov    %esp,%ebp
  281670:	b0 64                	mov    $0x64,%al
  281672:	83 ec 10             	sub    $0x10,%esp
  281675:	ee                   	out    %al,(%dx)
  281676:	b0 62                	mov    $0x62,%al
  281678:	b2 20                	mov    $0x20,%dl
  28167a:	ee                   	out    %al,(%dx)
static __inline uint8_t
inb(int port)
{
  //read a byte from port
	uint8_t data;
	__asm __volatile("inb %w1,%0" : "=a" (data) : "d" (port));
  28167b:	b2 60                	mov    $0x60,%dl
  28167d:	ec                   	in     (%dx),%al
  
  unsigned char data;
  outb(PIC1_OCW2,0X64);//cpu tell pic1　that I got IRQ12 
  outb(PIC0_OCW2,0X62);//cpu tell pic0  that I got IRQ2
  data = inb(PORT_KEYDAT);
  fifo8_write(&mousefifo,data);
  28167e:	0f b6 c0             	movzbl %al,%eax
  281681:	50                   	push   %eax
  281682:	68 94 a6 28 00       	push   $0x28a694
  281687:	e8 cf 00 00 00       	call   28175b <fifo8_write>
  28168c:	83 c4 10             	add    $0x10,%esp
  puts8((char *)binfo->vram ,binfo->xsize,0,0,7,"int2c(IRQ-12):PS2/mouse");

 // while(1)
 // hlt();
 */
}
  28168f:	c9                   	leave  
  281690:	c3                   	ret    

00281691 <wait_KBC_sendready>:
//for mouse and keyboard control circuit,鼠标，键盘控制电路的初始化。
//#define PORT_KEYDAT 		0X0060


void wait_KBC_sendready(void)				//send ready and wait keyboard control ready
{
  281691:	55                   	push   %ebp
  281692:	ba 64 00 00 00       	mov    $0x64,%edx
  281697:	89 e5                	mov    %esp,%ebp
  281699:	ec                   	in     (%dx),%al
  while(1)
  {
    /*等待按键控制电路准备完毕*/
    if( (inb(PORT_KEYSTA) & KEYSTA_SEND_NOTREADY) == 0)	//读port 0x0064 看bit1是否是为０/if 0 ready ,if 1 not ready　
  28169a:	a8 02                	test   $0x2,%al
  28169c:	75 fb                	jne    281699 <wait_KBC_sendready+0x8>
    {							//bit 1是０说明键盘控制电路是准备好的，可以接受cpu的指令了。
      break;
    }
  }
  
}
  28169e:	5d                   	pop    %ebp
  28169f:	c3                   	ret    

002816a0 <init_keyboard>:

void init_keyboard(void)
{
  2816a0:	55                   	push   %ebp
  2816a1:	89 e5                	mov    %esp,%ebp
  /*这里才是真正的初始化按键电路*/
  wait_KBC_sendready();				//wait ready
  2816a3:	e8 e9 ff ff ff       	call   281691 <wait_KBC_sendready>
// out:write a data to a port
static __inline void
outb(int port, uint8_t data)
{
  //data是变量0%0 , port是变量word１%w1
	__asm __volatile("outb %0,%w1" : : "a" (data), "d" (port));
  2816a8:	ba 64 00 00 00       	mov    $0x64,%edx
  2816ad:	b0 60                	mov    $0x60,%al
  2816af:	ee                   	out    %al,(%dx)
  outb(PORT_KEYCMD,KEYCMD_WRITE_MODE);		//向port 0x0064写　0x60
  wait_KBC_sendready();				//保证能写入有效的数据到　port 0x0064
  2816b0:	e8 dc ff ff ff       	call   281691 <wait_KBC_sendready>
  2816b5:	ba 60 00 00 00       	mov    $0x60,%edx
  2816ba:	b0 47                	mov    $0x47,%al
  2816bc:	ee                   	out    %al,(%dx)
  outb(PORT_KEYDAT,KBC_MODE);			//向port 0x0060 写数据0x47
  return;
  
}
  2816bd:	5d                   	pop    %ebp
  2816be:	c3                   	ret    

002816bf <asm_inthandler20>:
.global load_idtr

.code32
#interrupt service about timer irq0
asm_inthandler20:
  pushw %es
  2816bf:	66 06                	pushw  %es
  pushw %ds
  2816c1:	66 1e                	pushw  %ds
  pushal
  2816c3:	60                   	pusha  
  movl %esp,%eax
  2816c4:	89 e0                	mov    %esp,%eax
  pushl %eax
  2816c6:	50                   	push   %eax
  movw %ss,%ax
  2816c7:	66 8c d0             	mov    %ss,%ax
  movw %ax,%ds
  2816ca:	8e d8                	mov    %eax,%ds
  movw %ax,%es
  2816cc:	8e c0                	mov    %eax,%es
  call inthandler20
  2816ce:	e8 45 f9 ff ff       	call   281018 <inthandler20>

  popl %eax
  2816d3:	58                   	pop    %eax
  popal
  2816d4:	61                   	popa   
  popw %ds
  2816d5:	66 1f                	popw   %ds
  popW %es
  2816d7:	66 07                	popw   %es
  iretl
  2816d9:	cf                   	iret   

002816da <asm_inthandler21>:


#interrupt service about keyboad irq1
asm_inthandler21:
  pushw %es
  2816da:	66 06                	pushw  %es
  pushw %ds
  2816dc:	66 1e                	pushw  %ds
  pushal
  2816de:	60                   	pusha  
  movl %esp,%eax
  2816df:	89 e0                	mov    %esp,%eax
  pushl %eax
  2816e1:	50                   	push   %eax
  movw %ss,%ax
  2816e2:	66 8c d0             	mov    %ss,%ax
  movw %ax,%ds
  2816e5:	8e d8                	mov    %eax,%ds
  movw %ax,%es
  2816e7:	8e c0                	mov    %eax,%es
  call inthandler21
  2816e9:	e8 56 ff ff ff       	call   281644 <inthandler21>

  popl %eax
  2816ee:	58                   	pop    %eax
  popal
  2816ef:	61                   	popa   
  popw %ds
  2816f0:	66 1f                	popw   %ds
  popW %es
  2816f2:	66 07                	popw   %es
  iretl
  2816f4:	cf                   	iret   

002816f5 <asm_inthandler2c>:

#interrupt service about mouse irq 0xc
asm_inthandler2c:
  pushw %es
  2816f5:	66 06                	pushw  %es
  pushw %ds
  2816f7:	66 1e                	pushw  %ds
  pushal
  2816f9:	60                   	pusha  
  movl %esp,%eax
  2816fa:	89 e0                	mov    %esp,%eax
  pushl %eax
  2816fc:	50                   	push   %eax
  movw %ss,%ax
  2816fd:	66 8c d0             	mov    %ss,%ax
  movw %ax,%ds
  281700:	8e d8                	mov    %eax,%ds
  movw %ax,%es
  281702:	8e c0                	mov    %eax,%es
  call inthandler2c
  281704:	e8 5f ff ff ff       	call   281668 <inthandler2c>

  popl %eax
  281709:	58                   	pop    %eax
  popal
  28170a:	61                   	popa   
  popw %ds
  28170b:	66 1f                	popw   %ds
  popW %es
  28170d:	66 07                	popw   %es
  iretl
  28170f:	cf                   	iret   

00281710 <load_gdtr>:
  #iret 与iretl有什么区别？？？
load_gdtr:		#; void load_gdtr(int limit, int addr);
  mov 4(%esp) ,%ax
  281710:	66 8b 44 24 04       	mov    0x4(%esp),%ax
  mov %ax,6(%esp)
  281715:	66 89 44 24 06       	mov    %ax,0x6(%esp)
  lgdt 6(%esp)
  28171a:	0f 01 54 24 06       	lgdtl  0x6(%esp)
  ret
  28171f:	c3                   	ret    

00281720 <load_idtr>:


load_idtr:		#; void load_idtr(int limit, int addr);
  mov 4(%esp) ,%ax
  281720:	66 8b 44 24 04       	mov    0x4(%esp),%ax
  mov %ax,6(%esp)
  281725:	66 89 44 24 06       	mov    %ax,0x6(%esp)
  lidt 6(%esp)
  28172a:	0f 01 5c 24 06       	lidtl  0x6(%esp)
  ret
  28172f:	c3                   	ret    

00281730 <fifo8_init>:
#include<header.h>

//初始化fifo8,是对一个结构体类型的变量进行初始化，这个结构体类型的变量就是一个fifo对象。
void fifo8_init(struct FIFO8 *fifo,int size ,unsigned char *buf)
{
  281730:	55                   	push   %ebp
  281731:	89 e5                	mov    %esp,%ebp
  281733:	8b 45 08             	mov    0x8(%ebp),%eax
  281736:	8b 55 0c             	mov    0xc(%ebp),%edx
  fifo->buf=buf;
  281739:	8b 4d 10             	mov    0x10(%ebp),%ecx
  fifo->size=size;
  fifo->free=size;
  fifo->nr=0;
  28173c:	c7 40 08 00 00 00 00 	movl   $0x0,0x8(%eax)

//初始化fifo8,是对一个结构体类型的变量进行初始化，这个结构体类型的变量就是一个fifo对象。
void fifo8_init(struct FIFO8 *fifo,int size ,unsigned char *buf)
{
  fifo->buf=buf;
  fifo->size=size;
  281743:	89 50 0c             	mov    %edx,0xc(%eax)
#include<header.h>

//初始化fifo8,是对一个结构体类型的变量进行初始化，这个结构体类型的变量就是一个fifo对象。
void fifo8_init(struct FIFO8 *fifo,int size ,unsigned char *buf)
{
  fifo->buf=buf;
  281746:	89 08                	mov    %ecx,(%eax)
  fifo->size=size;
  fifo->free=size;
  281748:	89 50 10             	mov    %edx,0x10(%eax)
  fifo->nr=0;
  fifo->nw=0;
  28174b:	c7 40 04 00 00 00 00 	movl   $0x0,0x4(%eax)
  fifo->flags=0;
  281752:	c7 40 14 00 00 00 00 	movl   $0x0,0x14(%eax)
}
  281759:	5d                   	pop    %ebp
  28175a:	c3                   	ret    

0028175b <fifo8_write>:


#define FLAGS_OVERRUN 0X0001
//下面的函数是对fifo类型的变量，写入数据。
int fifo8_write(struct FIFO8 *fifo,unsigned char data)
{
  28175b:	55                   	push   %ebp
  28175c:	89 e5                	mov    %esp,%ebp
  28175e:	8b 45 08             	mov    0x8(%ebp),%eax
  281761:	53                   	push   %ebx
  281762:	8b 5d 0c             	mov    0xc(%ebp),%ebx
  if(fifo->free==0)//fifo is full ,no room for any data
  281765:	83 78 10 00          	cmpl   $0x0,0x10(%eax)
  281769:	75 09                	jne    281774 <fifo8_write+0x19>
  {
    fifo->flags|=FLAGS_OVERRUN;//if fifo->flags is TRUE, fifo已经满了，不能再写了。
  28176b:	83 48 14 01          	orl    $0x1,0x14(%eax)
    return -1; //write error
  28176f:	83 c8 ff             	or     $0xffffffff,%eax
  281772:	eb 22                	jmp    281796 <fifo8_write+0x3b>
  }
  
  
 fifo->buf[fifo->nw]=data;
  281774:	8b 50 04             	mov    0x4(%eax),%edx
  281777:	8b 08                	mov    (%eax),%ecx
  281779:	88 1c 11             	mov    %bl,(%ecx,%edx,1)
 fifo->nw++;
  28177c:	8b 48 04             	mov    0x4(%eax),%ecx
  28177f:	8d 51 01             	lea    0x1(%ecx),%edx
 if(fifo->nw==fifo->size)
  281782:	3b 50 0c             	cmp    0xc(%eax),%edx
    return -1; //write error
  }
  
  
 fifo->buf[fifo->nw]=data;
 fifo->nw++;
  281785:	89 50 04             	mov    %edx,0x4(%eax)
 if(fifo->nw==fifo->size)
  281788:	75 07                	jne    281791 <fifo8_write+0x36>
 {
  fifo->nw=0;  
  28178a:	c7 40 04 00 00 00 00 	movl   $0x0,0x4(%eax)
 }
 fifo->free--;
  281791:	ff 48 10             	decl   0x10(%eax)
 return 0;//write sucessful
  281794:	31 c0                	xor    %eax,%eax
 
}
  281796:	5b                   	pop    %ebx
  281797:	5d                   	pop    %ebp
  281798:	c3                   	ret    

00281799 <fifo8_read>:
//只有写fifo 会有fifo full的情况，
//读fifo时，会有empty的情况。
int fifo8_read(struct FIFO8 *fifo)
{
  281799:	55                   	push   %ebp
  28179a:	89 e5                	mov    %esp,%ebp
  28179c:	8b 55 08             	mov    0x8(%ebp),%edx
  28179f:	57                   	push   %edi
  2817a0:	56                   	push   %esi
  2817a1:	53                   	push   %ebx
  int data;
  if(fifo->free==fifo->size)//fifo is empty ,no data is useful
  2817a2:	8b 5a 10             	mov    0x10(%edx),%ebx
  2817a5:	8b 7a 0c             	mov    0xc(%edx),%edi
  2817a8:	39 fb                	cmp    %edi,%ebx
  2817aa:	74 1a                	je     2817c6 <fifo8_read+0x2d>
  {
    return -1;
  }
  
  data=fifo->buf[fifo->nr];
  2817ac:	8b 72 08             	mov    0x8(%edx),%esi
  fifo->nr++;
  2817af:	31 c9                	xor    %ecx,%ecx
  if(fifo->free==fifo->size)//fifo is empty ,no data is useful
  {
    return -1;
  }
  
  data=fifo->buf[fifo->nr];
  2817b1:	8b 02                	mov    (%edx),%eax
  2817b3:	0f b6 04 30          	movzbl (%eax,%esi,1),%eax
  fifo->nr++;
  2817b7:	46                   	inc    %esi
  2817b8:	39 fe                	cmp    %edi,%esi
  2817ba:	0f 45 ce             	cmovne %esi,%ecx
  if(fifo->nr==fifo->size)
  {
    fifo->nr=0;
  }
  fifo->free++;
  2817bd:	43                   	inc    %ebx
  {
    return -1;
  }
  
  data=fifo->buf[fifo->nr];
  fifo->nr++;
  2817be:	89 4a 08             	mov    %ecx,0x8(%edx)
  if(fifo->nr==fifo->size)
  {
    fifo->nr=0;
  }
  fifo->free++;
  2817c1:	89 5a 10             	mov    %ebx,0x10(%edx)
  
  return data;
  2817c4:	eb 03                	jmp    2817c9 <fifo8_read+0x30>
int fifo8_read(struct FIFO8 *fifo)
{
  int data;
  if(fifo->free==fifo->size)//fifo is empty ,no data is useful
  {
    return -1;
  2817c6:	83 c8 ff             	or     $0xffffffff,%eax
  fifo->free++;
  
  return data;
  
  
}
  2817c9:	5b                   	pop    %ebx
  2817ca:	5e                   	pop    %esi
  2817cb:	5f                   	pop    %edi
  2817cc:	5d                   	pop    %ebp
  2817cd:	c3                   	ret    

002817ce <fifo8_status>:

int fifo8_status(struct FIFO8 *fifo)
{
  2817ce:	55                   	push   %ebp
  2817cf:	89 e5                	mov    %esp,%ebp
  2817d1:	8b 55 08             	mov    0x8(%ebp),%edx
  return fifo->size-fifo->free;//总数－空的＝有多个data在fifo中。
  2817d4:	5d                   	pop    %ebp
  
}

int fifo8_status(struct FIFO8 *fifo)
{
  return fifo->size-fifo->free;//总数－空的＝有多个data在fifo中。
  2817d5:	8b 42 0c             	mov    0xc(%edx),%eax
  2817d8:	2b 42 10             	sub    0x10(%edx),%eax
  2817db:	c3                   	ret    

002817dc <enable_mouse>:
#include<header.h>
//激活鼠标的指令　还是向键盘控制器发送指令
#define KEYCMD_SENDTO_MOUSE 	0XD4
#define MOUSECMD_ENABLE     	0XF4
void enable_mouse(struct MOUSE_DEC *mdec)
{
  2817dc:	55                   	push   %ebp
  2817dd:	89 e5                	mov    %esp,%ebp
  2817df:	83 ec 08             	sub    $0x8,%esp
  wait_KBC_sendready();			//等待port 0x0060,0x0064可用
  2817e2:	e8 aa fe ff ff       	call   281691 <wait_KBC_sendready>
  2817e7:	ba 64 00 00 00       	mov    $0x64,%edx
  2817ec:	b0 d4                	mov    $0xd4,%al
  2817ee:	ee                   	out    %al,(%dx)
  outb(PORT_KEYCMD,KEYCMD_SENDTO_MOUSE);//向port 0x0064　写　0XD4命令  下面的命令发给mouse
  wait_KBC_sendready();			//等待port 0x0060,0x0064可用
  2817ef:	e8 9d fe ff ff       	call   281691 <wait_KBC_sendready>
  2817f4:	ba 60 00 00 00       	mov    $0x60,%edx
  2817f9:	b0 f4                	mov    $0xf4,%al
  2817fb:	ee                   	out    %al,(%dx)
  outb(PORT_KEYDAT,MOUSECMD_ENABLE); 	//向port 0x0060　写　0Xf4命令  给mouse发送enable命令
  
  mdec->phase=0;
  2817fc:	8b 45 08             	mov    0x8(%ebp),%eax
  2817ff:	c6 40 03 00          	movb   $0x0,0x3(%eax)
  return ; 				//if sucessful ,will create an interrupt ,and return ０xfa(ACK),产生的这个0xfa是给cpu的答复信号
					//就算鼠标不动，也会产生这个中断，所以我们一调用enable_mouse，就会产生鼠标中断，必须有这个服务函数。  
}
  281803:	c9                   	leave  
  281804:	c3                   	ret    

00281805 <mouse_decode>:


int mouse_decode(struct MOUSE_DEC *mdec,unsigned char data)
{
  281805:	55                   	push   %ebp
  281806:	89 e5                	mov    %esp,%ebp
  281808:	8b 55 08             	mov    0x8(%ebp),%edx
  28180b:	53                   	push   %ebx
  28180c:	8b 4d 0c             	mov    0xc(%ebp),%ecx
  if(mdec->phase==0)
  28180f:	8a 42 03             	mov    0x3(%edx),%al
  281812:	84 c0                	test   %al,%al
  281814:	75 0d                	jne    281823 <mouse_decode+0x1e>
    if(data==0xfa)
    {
      mdec->phase = 1;
      
    }   
    return 0;
  281816:	31 c0                	xor    %eax,%eax

int mouse_decode(struct MOUSE_DEC *mdec,unsigned char data)
{
  if(mdec->phase==0)
  {
    if(data==0xfa)
  281818:	80 f9 fa             	cmp    $0xfa,%cl
  28181b:	75 73                	jne    281890 <mouse_decode+0x8b>
    {
      mdec->phase = 1;
  28181d:	c6 42 03 01          	movb   $0x1,0x3(%edx)
  281821:	eb 6d                	jmp    281890 <mouse_decode+0x8b>
      
    }   
    return 0;
  }
  else if(mdec->phase==1) 
  281823:	3c 01                	cmp    $0x1,%al
  281825:	75 11                	jne    281838 <mouse_decode+0x33>
  {
    //鼠标的第一字节的数据
    if( (data & 0xc8) == 0x08 )//如果第一个字节的数据正确  ,只要第一个字节的数据是正确的，后面两个phase的数据就是关于左移 和右移的数据
  281827:	88 c8                	mov    %cl,%al
  281829:	83 e0 c8             	and    $0xffffffc8,%eax
  28182c:	3c 08                	cmp    $0x8,%al
  28182e:	75 5d                	jne    28188d <mouse_decode+0x88>
    {
    mdec->buf[0] = data;
  281830:	88 0a                	mov    %cl,(%edx)
    mdec->phase  = 2;
  281832:	c6 42 03 02          	movb   $0x2,0x3(%edx)
  281836:	eb 0b                	jmp    281843 <mouse_decode+0x3e>
    return 0;
    }
  }
  else if(mdec->phase==2) 
  281838:	3c 02                	cmp    $0x2,%al
  28183a:	75 0b                	jne    281847 <mouse_decode+0x42>
  {
    mdec->buf[1] = data;
  28183c:	88 4a 01             	mov    %cl,0x1(%edx)
    mdec->phase  = 3;
  28183f:	c6 42 03 03          	movb   $0x3,0x3(%edx)
    return 0;
  281843:	31 c0                	xor    %eax,%eax
  281845:	eb 49                	jmp    281890 <mouse_decode+0x8b>
  }
  else if(mdec->phase==3) 
  281847:	3c 03                	cmp    $0x3,%al
  281849:	75 42                	jne    28188d <mouse_decode+0x88>
  {
    mdec->buf[2] = data;
    mdec->phase  = 1;
    
    
    mdec->button =mdec->buf[0] & 0x07;//0x07=0000 0111  没有按键时为8（1000）左按键是9(1001)，右按键是10(1010) 从buf0解读出lrbutton是否按下，left=1,right=2;
  28184b:	8a 02                	mov    (%edx),%al
    mdec->phase  = 3;
    return 0;
  }
  else if(mdec->phase==3) 
  {
    mdec->buf[2] = data;
  28184d:	88 4a 02             	mov    %cl,0x2(%edx)
    mdec->phase  = 1;
    
    
    mdec->button =mdec->buf[0] & 0x07;//0x07=0000 0111  没有按键时为8（1000）左按键是9(1001)，右按键是10(1010) 从buf0解读出lrbutton是否按下，left=1,right=2;
    mdec->x =mdec->buf[1];
    mdec->y =mdec->buf[2];
  281850:	0f b6 c9             	movzbl %cl,%ecx
    return 0;
  }
  else if(mdec->phase==3) 
  {
    mdec->buf[2] = data;
    mdec->phase  = 1;
  281853:	c6 42 03 01          	movb   $0x1,0x3(%edx)
    
    
    mdec->button =mdec->buf[0] & 0x07;//0x07=0000 0111  没有按键时为8（1000）左按键是9(1001)，右按键是10(1010) 从buf0解读出lrbutton是否按下，left=1,right=2;
    mdec->x =mdec->buf[1];
    mdec->y =mdec->buf[2];
  281857:	89 4a 08             	mov    %ecx,0x8(%edx)
  {
    mdec->buf[2] = data;
    mdec->phase  = 1;
    
    
    mdec->button =mdec->buf[0] & 0x07;//0x07=0000 0111  没有按键时为8（1000）左按键是9(1001)，右按键是10(1010) 从buf0解读出lrbutton是否按下，left=1,right=2;
  28185a:	89 c3                	mov    %eax,%ebx
  28185c:	83 e3 07             	and    $0x7,%ebx
    mdec->x =mdec->buf[1];
    mdec->y =mdec->buf[2];
    
    //why do this 
    if( (mdec->buf[0] & 0x10) != 0)//bit4为1时 1
  28185f:	a8 10                	test   $0x10,%al
  {
    mdec->buf[2] = data;
    mdec->phase  = 1;
    
    
    mdec->button =mdec->buf[0] & 0x07;//0x07=0000 0111  没有按键时为8（1000）左按键是9(1001)，右按键是10(1010) 从buf0解读出lrbutton是否按下，left=1,right=2;
  281861:	89 5a 0c             	mov    %ebx,0xc(%edx)
    mdec->x =mdec->buf[1];
  281864:	0f b6 5a 01          	movzbl 0x1(%edx),%ebx
  281868:	89 5a 04             	mov    %ebx,0x4(%edx)
    mdec->y =mdec->buf[2];
    
    //why do this 
    if( (mdec->buf[0] & 0x10) != 0)//bit4为1时 1
  28186b:	74 09                	je     281876 <mouse_decode+0x71>
    {
      mdec->x |=0xffffff00;//-x 根据buf[0]的bit4为1时，确定鼠标的移动方向是负方向。
  28186d:	81 cb 00 ff ff ff    	or     $0xffffff00,%ebx
  281873:	89 5a 04             	mov    %ebx,0x4(%edx)
    }
    if( (mdec->buf[0] & 0x20) != 0)//bit5为1时 2
  281876:	a8 20                	test   $0x20,%al
  281878:	74 09                	je     281883 <mouse_decode+0x7e>
    {
      mdec->y |=0xffffff00;//-y
  28187a:	81 c9 00 ff ff ff    	or     $0xffffff00,%ecx
  281880:	89 4a 08             	mov    %ecx,0x8(%edx)
    }
    
    mdec->y= - mdec->y;//鼠标的移动方向与屏幕的方向是相反的。
  281883:	f7 5a 08             	negl   0x8(%edx)


    return 1;
  281886:	b8 01 00 00 00       	mov    $0x1,%eax
  28188b:	eb 03                	jmp    281890 <mouse_decode+0x8b>
  }
  //buf0中的数据非常的重要，低四位与左右按键有关，高四位与方向有关。
  //高四位0－1－2－3，低四位8 9(left) a(right) b(both) c(middle)
   return -1;
  28188d:	83 c8 ff             	or     $0xffffffff,%eax
}
  281890:	5b                   	pop    %ebx
  281891:	5d                   	pop    %ebp
  281892:	c3                   	ret    

00281893 <getmemorysize>:
#include<mm.h>

 //下面的程序只能检测小于4GB的内存，而且 4GB的内存也只能检测为2488MB
unsigned int getmemorysize(unsigned int start,unsigned int end)
{
  281893:	55                   	push   %ebp
  281894:	89 e5                	mov    %esp,%ebp
  281896:	8b 45 08             	mov    0x8(%ebp),%eax
  281899:	53                   	push   %ebx
 unsigned int old;


 unsigned int pat0=0xaa55aa55;
 volatile unsigned int *p;//注意这里的volatile关键字,
 for(i=start;i<=end;i+=0x1000)
  28189a:	3b 45 0c             	cmp    0xc(%ebp),%eax
  28189d:	77 2b                	ja     2818ca <getmemorysize+0x37>
 {
  p=(unsigned int *)i+0x200;
  old=*p;
  28189f:	8b 90 00 08 00 00    	mov    0x800(%eax),%edx
  *p=pat0;
  2818a5:	c7 80 00 08 00 00 55 	movl   $0xaa55aa55,0x800(%eax)
  2818ac:	aa 55 aa 
  if(*p!=pat0)
  2818af:	8b 98 00 08 00 00    	mov    0x800(%eax),%ebx
  {
   *p=old;
  2818b5:	89 90 00 08 00 00    	mov    %edx,0x800(%eax)
 for(i=start;i<=end;i+=0x1000)
 {
  p=(unsigned int *)i+0x200;
  old=*p;
  *p=pat0;
  if(*p!=pat0)
  2818bb:	81 fb 55 aa 55 aa    	cmp    $0xaa55aa55,%ebx
  2818c1:	75 07                	jne    2818ca <getmemorysize+0x37>
 unsigned int old;


 unsigned int pat0=0xaa55aa55;
 volatile unsigned int *p;//注意这里的volatile关键字,
 for(i=start;i<=end;i+=0x1000)
  2818c3:	05 00 10 00 00       	add    $0x1000,%eax
  2818c8:	eb d0                	jmp    28189a <getmemorysize+0x7>
 }
 return i;//i就是得到的memory size



}
  2818ca:	5b                   	pop    %ebx
  2818cb:	5d                   	pop    %ebp
  2818cc:	c3                   	ret    

002818cd <memtest>:

unsigned int memtest(unsigned int start,unsigned int end)
{
  2818cd:	55                   	push   %ebp
  2818ce:	89 e5                	mov    %esp,%ebp
  2818d0:	53                   	push   %ebx
//read eflags and write_eflags
static __inline uint32_t
read_eflags(void)
{
        uint32_t eflags;
        __asm __volatile("pushfl; popl %0" : "=r" (eflags));
  2818d1:	9c                   	pushf  
  2818d2:	58                   	pop    %eax
 char flg486=0;
 unsigned int eflg,cr0,i;
 eflg=read_eflags();
 eflg|=EFLAGS_AC_BIT;
  2818d3:	0d 00 00 04 00       	or     $0x40000,%eax
}

static __inline void
write_eflags(uint32_t eflags)
{
        __asm __volatile("pushl %0; popfl" : : "r" (eflags));
  2818d8:	50                   	push   %eax
  2818d9:	9d                   	popf   
//read eflags and write_eflags
static __inline uint32_t
read_eflags(void)
{
        uint32_t eflags;
        __asm __volatile("pushfl; popl %0" : "=r" (eflags));
  2818da:	9c                   	pushf  
  2818db:	58                   	pop    %eax

}

unsigned int memtest(unsigned int start,unsigned int end)
{
 char flg486=0;
  2818dc:	31 db                	xor    %ebx,%ebx
 eflg=read_eflags();
 eflg|=EFLAGS_AC_BIT;
 write_eflags(eflg);

 eflg=read_eflags();
 if((eflg&EFLAGS_AC_BIT)!=0)
  2818de:	a9 00 00 04 00       	test   $0x40000,%eax
  2818e3:	74 14                	je     2818f9 <memtest+0x2c>
 {
  flg486=1;
  eflg&=~EFLAGS_AC_BIT;
  2818e5:	25 ff ff fb ff       	and    $0xfffbffff,%eax
}

static __inline void
write_eflags(uint32_t eflags)
{
        __asm __volatile("pushl %0; popfl" : : "r" (eflags));
  2818ea:	50                   	push   %eax
  2818eb:	9d                   	popf   

static __inline uint32_t
rcr0(void)
{
	uint32_t val;
	__asm __volatile("movl %%cr0,%0" : "=r" (val));
  2818ec:	0f 20 c0             	mov    %cr0,%eax
  write_eflags(eflg);
 }
 if(flg486)
 {
  cr0=rcr0();
  cr0|=CR0_CACHE_DISABLE;
  2818ef:	0d 00 00 00 60       	or     $0x60000000,%eax
}

static __inline void
lcr0(uint32_t val)
{
	__asm __volatile("movl %0,%%cr0" : : "r" (val));
  2818f4:	0f 22 c0             	mov    %eax,%cr0
 write_eflags(eflg);

 eflg=read_eflags();
 if((eflg&EFLAGS_AC_BIT)!=0)
 {
  flg486=1;
  2818f7:	b3 01                	mov    $0x1,%bl
  cr0|=CR0_CACHE_DISABLE;
  lcr0(cr0);
 }


i=getmemorysize(start,end);
  2818f9:	ff 75 0c             	pushl  0xc(%ebp)
  2818fc:	ff 75 08             	pushl  0x8(%ebp)
  2818ff:	e8 8f ff ff ff       	call   281893 <getmemorysize>
//i=0x100000;

  if(flg486)
  281904:	84 db                	test   %bl,%bl
  281906:	5a                   	pop    %edx
  281907:	59                   	pop    %ecx
  281908:	74 0c                	je     281916 <memtest+0x49>

static __inline uint32_t
rcr0(void)
{
	uint32_t val;
	__asm __volatile("movl %%cr0,%0" : "=r" (val));
  28190a:	0f 20 c2             	mov    %cr0,%edx
  {
  cr0=rcr0();
  cr0&=~CR0_CACHE_DISABLE;
  28190d:	81 e2 ff ff ff 9f    	and    $0x9fffffff,%edx
}

static __inline void
lcr0(uint32_t val)
{
	__asm __volatile("movl %0,%%cr0" : : "r" (val));
  281913:	0f 22 c2             	mov    %edx,%cr0
  lcr0(cr0);

  }

  return i;
}
  281916:	8b 5d fc             	mov    -0x4(%ebp),%ebx
  281919:	c9                   	leave  
  28191a:	c3                   	ret    

0028191b <memman_init>:


void memman_init(Memman * man)
{
  28191b:	55                   	push   %ebp
  28191c:	89 e5                	mov    %esp,%ebp
  28191e:	8b 45 08             	mov    0x8(%ebp),%eax
 man->cellnum=0;
  281921:	c7 00 00 00 00 00    	movl   $0x0,(%eax)
 man->maxcell=0;
  281927:	c7 40 04 00 00 00 00 	movl   $0x0,0x4(%eax)
 man->lostsize=0;
  28192e:	c7 40 08 00 00 00 00 	movl   $0x0,0x8(%eax)
 man->losts=0;
  281935:	c7 40 0c 00 00 00 00 	movl   $0x0,0xc(%eax)
}
  28193c:	5d                   	pop    %ebp
  28193d:	c3                   	ret    

0028193e <memman_avail>:
//get available memory
unsigned int memman_avail(Memman *man)
{
  28193e:	55                   	push   %ebp
 unsigned int i;
 unsigned int freemem=0;
  28193f:	31 c0                	xor    %eax,%eax
 man->lostsize=0;
 man->losts=0;
}
//get available memory
unsigned int memman_avail(Memman *man)
{
  281941:	89 e5                	mov    %esp,%ebp
 unsigned int i;
 unsigned int freemem=0;
 for (i=0;i<man->cellnum;i++)
  281943:	31 d2                	xor    %edx,%edx
 man->lostsize=0;
 man->losts=0;
}
//get available memory
unsigned int memman_avail(Memman *man)
{
  281945:	8b 4d 08             	mov    0x8(%ebp),%ecx
  281948:	53                   	push   %ebx
 unsigned int i;
 unsigned int freemem=0;
 for (i=0;i<man->cellnum;i++)
  281949:	8b 19                	mov    (%ecx),%ebx
  28194b:	39 da                	cmp    %ebx,%edx
  28194d:	74 07                	je     281956 <memman_avail+0x18>
 {
   freemem+=man->cell[i].size;
  28194f:	03 44 d1 14          	add    0x14(%ecx,%edx,8),%eax
//get available memory
unsigned int memman_avail(Memman *man)
{
 unsigned int i;
 unsigned int freemem=0;
 for (i=0;i<man->cellnum;i++)
  281953:	42                   	inc    %edx
  281954:	eb f5                	jmp    28194b <memman_avail+0xd>
 {
   freemem+=man->cell[i].size;
 }
 return freemem;
}
  281956:	5b                   	pop    %ebx
  281957:	5d                   	pop    %ebp
  281958:	c3                   	ret    

00281959 <memman_alloc>:
  size=(size+0xfff)&0xfffff000;
  return memman_alloc(man,size);
}
//allocate some memory for you
 int memman_alloc(Memman *man,unsigned int size)
{
  281959:	55                   	push   %ebp
    unsigned int i,a;
    for (i=0;i<man->cellnum;i++)
  28195a:	31 d2                	xor    %edx,%edx
  size=(size+0xfff)&0xfffff000;
  return memman_alloc(man,size);
}
//allocate some memory for you
 int memman_alloc(Memman *man,unsigned int size)
{
  28195c:	89 e5                	mov    %esp,%ebp
  28195e:	8b 4d 08             	mov    0x8(%ebp),%ecx
  281961:	57                   	push   %edi
  281962:	56                   	push   %esi
  281963:	53                   	push   %ebx
    unsigned int i,a;
    for (i=0;i<man->cellnum;i++)
  281964:	8b 39                	mov    (%ecx),%edi
  281966:	39 fa                	cmp    %edi,%edx
  281968:	74 43                	je     2819ad <memman_alloc+0x54>
    {
        if(man->cell[i].size>size)
  28196a:	8b 45 0c             	mov    0xc(%ebp),%eax
  28196d:	39 44 d1 14          	cmp    %eax,0x14(%ecx,%edx,8)
  281971:	76 37                	jbe    2819aa <memman_alloc+0x51>
  281973:	8d 34 d1             	lea    (%ecx,%edx,8),%esi
        {
            a=man->cell[i].address;
            man->cell[i].address+=size;
  281976:	8b 5d 0c             	mov    0xc(%ebp),%ebx
    unsigned int i,a;
    for (i=0;i<man->cellnum;i++)
    {
        if(man->cell[i].size>size)
        {
            a=man->cell[i].address;
  281979:	8b 46 10             	mov    0x10(%esi),%eax
            man->cell[i].address+=size;
  28197c:	01 c3                	add    %eax,%ebx
  28197e:	89 5e 10             	mov    %ebx,0x10(%esi)
            man->cell[i].size-=size;
  281981:	8b 5e 14             	mov    0x14(%esi),%ebx
  281984:	2b 5d 0c             	sub    0xc(%ebp),%ebx
            if(man->cell[i].size==0)
  281987:	85 db                	test   %ebx,%ebx
    {
        if(man->cell[i].size>size)
        {
            a=man->cell[i].address;
            man->cell[i].address+=size;
            man->cell[i].size-=size;
  281989:	89 5e 14             	mov    %ebx,0x14(%esi)
            if(man->cell[i].size==0)
  28198c:	75 21                	jne    2819af <memman_alloc+0x56>
            {
                man->cellnum--;
  28198e:	8d 5f ff             	lea    -0x1(%edi),%ebx
  281991:	89 19                	mov    %ebx,(%ecx)
                for(;i<man->cellnum;i++)
  281993:	39 da                	cmp    %ebx,%edx
  281995:	73 18                	jae    2819af <memman_alloc+0x56>
                {
                    man->cell[i]=man->cell[i+1];
  281997:	42                   	inc    %edx
  281998:	8b 74 d1 10          	mov    0x10(%ecx,%edx,8),%esi
  28199c:	8b 7c d1 14          	mov    0x14(%ecx,%edx,8),%edi
  2819a0:	89 74 d1 08          	mov    %esi,0x8(%ecx,%edx,8)
  2819a4:	89 7c d1 0c          	mov    %edi,0xc(%ecx,%edx,8)
  2819a8:	eb e9                	jmp    281993 <memman_alloc+0x3a>
}
//allocate some memory for you
 int memman_alloc(Memman *man,unsigned int size)
{
    unsigned int i,a;
    for (i=0;i<man->cellnum;i++)
  2819aa:	42                   	inc    %edx
  2819ab:	eb b9                	jmp    281966 <memman_alloc+0xd>
            }

            return a;
        }
    }
    return 0; //no memory can be used
  2819ad:	31 c0                	xor    %eax,%eax
}
  2819af:	5b                   	pop    %ebx
  2819b0:	5e                   	pop    %esi
  2819b1:	5f                   	pop    %edi
  2819b2:	5d                   	pop    %ebp
  2819b3:	c3                   	ret    

002819b4 <memman_alloc_4K>:
 }
 return freemem;
}
//return an integer but is ad  address
int memman_alloc_4K(Memman *man,unsigned int size)
{
  2819b4:	55                   	push   %ebp
  2819b5:	89 e5                	mov    %esp,%ebp
  size=(size+0xfff)&0xfffff000;
  2819b7:	8b 45 0c             	mov    0xc(%ebp),%eax
  2819ba:	05 ff 0f 00 00       	add    $0xfff,%eax
  2819bf:	25 00 f0 ff ff       	and    $0xfffff000,%eax
  return memman_alloc(man,size);
  2819c4:	89 45 0c             	mov    %eax,0xc(%ebp)
}
  2819c7:	5d                   	pop    %ebp
}
//return an integer but is ad  address
int memman_alloc_4K(Memman *man,unsigned int size)
{
  size=(size+0xfff)&0xfffff000;
  return memman_alloc(man,size);
  2819c8:	e9 8c ff ff ff       	jmp    281959 <memman_alloc>

002819cd <memman_free>:
  size=(size+0xfff)& 0xfffff000;
  return memman_free(man,addr,size);
}
//return -1 means free memory failure
int memman_free(Memman *man,unsigned int addr,unsigned int size)
{
  2819cd:	55                   	push   %ebp
  int i,j;
  for (i=0;i<man->cellnum;i++)
  2819ce:	31 d2                	xor    %edx,%edx
  size=(size+0xfff)& 0xfffff000;
  return memman_free(man,addr,size);
}
//return -1 means free memory failure
int memman_free(Memman *man,unsigned int addr,unsigned int size)
{
  2819d0:	89 e5                	mov    %esp,%ebp
  2819d2:	57                   	push   %edi
  2819d3:	56                   	push   %esi
  2819d4:	53                   	push   %ebx
  2819d5:	83 ec 08             	sub    $0x8,%esp
  2819d8:	8b 45 08             	mov    0x8(%ebp),%eax
  2819db:	8b 7d 10             	mov    0x10(%ebp),%edi
  int i,j;
  for (i=0;i<man->cellnum;i++)
  2819de:	8b 18                	mov    (%eax),%ebx
  2819e0:	89 5d f0             	mov    %ebx,-0x10(%ebp)
  2819e3:	89 5d ec             	mov    %ebx,-0x14(%ebp)
  2819e6:	3b 55 f0             	cmp    -0x10(%ebp),%edx
  2819e9:	74 09                	je     2819f4 <memman_free+0x27>
  {
    if(man->cell[i].address>addr)//这一步可以找到一个合适的i的地址范围
  2819eb:	8b 5d 0c             	mov    0xc(%ebp),%ebx
  2819ee:	39 5c d0 10          	cmp    %ebx,0x10(%eax,%edx,8)
  2819f2:	76 06                	jbe    2819fa <memman_free+0x2d>
    }
  }

  //man->cell[i-1].address<addr<man->cell[i].address
  //与前面空间合并
  if(i>0)  //
  2819f4:	85 d2                	test   %edx,%edx
  2819f6:	75 05                	jne    2819fd <memman_free+0x30>
  2819f8:	eb 4c                	jmp    281a46 <memman_free+0x79>
}
//return -1 means free memory failure
int memman_free(Memman *man,unsigned int addr,unsigned int size)
{
  int i,j;
  for (i=0;i<man->cellnum;i++)
  2819fa:	42                   	inc    %edx
  2819fb:	eb e9                	jmp    2819e6 <memman_free+0x19>
  2819fd:	8d 5c d0 f8          	lea    -0x8(%eax,%edx,8),%ebx

  //man->cell[i-1].address<addr<man->cell[i].address
  //与前面空间合并
  if(i>0)  //
  {
    if(man->cell[i-1].address+man->cell[i-1].size==addr)
  281a01:	8b 73 14             	mov    0x14(%ebx),%esi
  281a04:	8b 4b 10             	mov    0x10(%ebx),%ecx
  281a07:	01 f1                	add    %esi,%ecx
  281a09:	3b 4d 0c             	cmp    0xc(%ebp),%ecx
  281a0c:	75 38                	jne    281a46 <memman_free+0x79>
    {
        man->cell[i-1].size+=size;
  281a0e:	01 fe                	add    %edi,%esi
        if(i<man->cellnum)
  281a10:	3b 55 f0             	cmp    -0x10(%ebp),%edx
  //与前面空间合并
  if(i>0)  //
  {
    if(man->cell[i-1].address+man->cell[i-1].size==addr)
    {
        man->cell[i-1].size+=size;
  281a13:	89 73 14             	mov    %esi,0x14(%ebx)
        if(i<man->cellnum)
  281a16:	73 49                	jae    281a61 <memman_free+0x94>
  281a18:	8d 0c d0             	lea    (%eax,%edx,8),%ecx
        {
            if(addr+size==man->cell[i].address)
  281a1b:	03 7d 0c             	add    0xc(%ebp),%edi
  281a1e:	3b 79 10             	cmp    0x10(%ecx),%edi
  281a21:	75 3e                	jne    281a61 <memman_free+0x94>
            {
                man->cell[i-1].size+=man->cell[i].size;
  281a23:	03 71 14             	add    0x14(%ecx),%esi
  281a26:	89 73 14             	mov    %esi,0x14(%ebx)
                man->cellnum--;
  281a29:	8b 75 f0             	mov    -0x10(%ebp),%esi
  281a2c:	4e                   	dec    %esi
  281a2d:	89 30                	mov    %esi,(%eax)

                for(;i<man->cellnum;i++)
  281a2f:	39 f2                	cmp    %esi,%edx
  281a31:	73 2e                	jae    281a61 <memman_free+0x94>
                {
                man->cell[i]=man->cell[i+1];
  281a33:	42                   	inc    %edx
  281a34:	8b 4c d0 10          	mov    0x10(%eax,%edx,8),%ecx
  281a38:	8b 5c d0 14          	mov    0x14(%eax,%edx,8),%ebx
  281a3c:	89 4c d0 08          	mov    %ecx,0x8(%eax,%edx,8)
  281a40:	89 5c d0 0c          	mov    %ebx,0xc(%eax,%edx,8)
  281a44:	eb e9                	jmp    281a2f <memman_free+0x62>
     //printdebug(200,100);

  }

  //与后面的空间合并
  if(i<man->cellnum)
  281a46:	3b 55 f0             	cmp    -0x10(%ebp),%edx
  281a49:	73 1a                	jae    281a65 <memman_free+0x98>
  {
     if(addr+size==man->cell[i].address)
  281a4b:	8b 75 0c             	mov    0xc(%ebp),%esi
  281a4e:	8d 1c d0             	lea    (%eax,%edx,8),%ebx
  281a51:	01 fe                	add    %edi,%esi
  281a53:	3b 73 10             	cmp    0x10(%ebx),%esi
  281a56:	75 0d                	jne    281a65 <memman_free+0x98>
     {
        man->cell[i].address=addr;
  281a58:	8b 45 0c             	mov    0xc(%ebp),%eax
        man->cell[i].size+=size;
  281a5b:	01 7b 14             	add    %edi,0x14(%ebx)
  //与后面的空间合并
  if(i<man->cellnum)
  {
     if(addr+size==man->cell[i].address)
     {
        man->cell[i].address=addr;
  281a5e:	89 43 10             	mov    %eax,0x10(%ebx)
        man->cell[i].size+=size;

        return 0;
  281a61:	31 c0                	xor    %eax,%eax
  281a63:	eb 4b                	jmp    281ab0 <memman_free+0xe3>
     }
  }

  if(man->cellnum<4090)
  281a65:	81 7d f0 f9 0f 00 00 	cmpl   $0xff9,-0x10(%ebp)
  281a6c:	77 39                	ja     281aa7 <memman_free+0xda>
  {
        for(j=man->cellnum;j>i;j--)
  281a6e:	39 55 ec             	cmp    %edx,-0x14(%ebp)
  281a71:	7e 18                	jle    281a8b <memman_free+0xbe>
        {
            man->cell[j]=man->cell[j-1];
  281a73:	ff 4d ec             	decl   -0x14(%ebp)
  281a76:	8b 4d ec             	mov    -0x14(%ebp),%ecx
  281a79:	8b 5c c8 10          	mov    0x10(%eax,%ecx,8),%ebx
  281a7d:	8b 74 c8 14          	mov    0x14(%eax,%ecx,8),%esi
  281a81:	89 5c c8 18          	mov    %ebx,0x18(%eax,%ecx,8)
  281a85:	89 74 c8 1c          	mov    %esi,0x1c(%eax,%ecx,8)
  281a89:	eb e3                	jmp    281a6e <memman_free+0xa1>
        }

        man->cellnum++;
  281a8b:	8b 4d f0             	mov    -0x10(%ebp),%ecx
  281a8e:	41                   	inc    %ecx
        if(man->maxcell<man->cellnum)
  281a8f:	39 48 04             	cmp    %ecx,0x4(%eax)
        for(j=man->cellnum;j>i;j--)
        {
            man->cell[j]=man->cell[j-1];
        }

        man->cellnum++;
  281a92:	89 08                	mov    %ecx,(%eax)
        if(man->maxcell<man->cellnum)
  281a94:	73 03                	jae    281a99 <memman_free+0xcc>
        {
            man->maxcell=man->cellnum;
  281a96:	89 48 04             	mov    %ecx,0x4(%eax)
  281a99:	8d 04 d0             	lea    (%eax,%edx,8),%eax
        }
        man->cell[i].address=addr;
  281a9c:	8b 55 0c             	mov    0xc(%ebp),%edx
        man->cell[i].size=size;
  281a9f:	89 78 14             	mov    %edi,0x14(%eax)
        man->cellnum++;
        if(man->maxcell<man->cellnum)
        {
            man->maxcell=man->cellnum;
        }
        man->cell[i].address=addr;
  281aa2:	89 50 10             	mov    %edx,0x10(%eax)
  281aa5:	eb ba                	jmp    281a61 <memman_free+0x94>
       // printdebug(man->cellnum,100);
        return 0;
  }


  man->losts++;
  281aa7:	ff 40 0c             	incl   0xc(%eax)
  man->lostsize+=size;
  281aaa:	01 78 08             	add    %edi,0x8(%eax)

  return  -1;
  281aad:	83 c8 ff             	or     $0xffffffff,%eax
}
  281ab0:	5a                   	pop    %edx
  281ab1:	59                   	pop    %ecx
  281ab2:	5b                   	pop    %ebx
  281ab3:	5e                   	pop    %esi
  281ab4:	5f                   	pop    %edi
  281ab5:	5d                   	pop    %ebp
  281ab6:	c3                   	ret    

00281ab7 <memman_free_4k>:
    return 0; //no memory can be used
}

//return -1 means free memory failure
int memman_free_4k(Memman *man,unsigned int addr,unsigned int size)
{
  281ab7:	55                   	push   %ebp
  281ab8:	89 e5                	mov    %esp,%ebp
  size=(size+0xfff)& 0xfffff000;
  281aba:	8b 45 10             	mov    0x10(%ebp),%eax
  281abd:	05 ff 0f 00 00       	add    $0xfff,%eax
  281ac2:	25 00 f0 ff ff       	and    $0xfffff000,%eax
  return memman_free(man,addr,size);
  281ac7:	89 45 10             	mov    %eax,0x10(%ebp)
}
  281aca:	5d                   	pop    %ebp

//return -1 means free memory failure
int memman_free_4k(Memman *man,unsigned int addr,unsigned int size)
{
  size=(size+0xfff)& 0xfffff000;
  return memman_free(man,addr,size);
  281acb:	e9 fd fe ff ff       	jmp    2819cd <memman_free>

00281ad0 <shtctl_init>:

  return  -1;
}

SHTCTL * shtctl_init(Memman * memman,unsigned char *vram,int xsize,int ysize)
{
  281ad0:	55                   	push   %ebp
  281ad1:	89 e5                	mov    %esp,%ebp
  281ad3:	57                   	push   %edi
  281ad4:	8b 7d 10             	mov    0x10(%ebp),%edi
  281ad7:	56                   	push   %esi
  281ad8:	53                   	push   %ebx
  281ad9:	8b 5d 08             	mov    0x8(%ebp),%ebx
}
//return an integer but is ad  address
int memman_alloc_4K(Memman *man,unsigned int size)
{
  size=(size+0xfff)&0xfffff000;
  return memman_alloc(man,size);
  281adc:	68 00 30 00 00       	push   $0x3000
  281ae1:	53                   	push   %ebx
  281ae2:	e8 72 fe ff ff       	call   281959 <memman_alloc>
  281ae7:	89 c6                	mov    %eax,%esi
SHTCTL * shtctl_init(Memman * memman,unsigned char *vram,int xsize,int ysize)
{
  SHTCTL *ctl;
  int i;
  ctl=(SHTCTL *)memman_alloc_4K(memman,sizeof(SHTCTL));
  if(ctl==0)
  281ae9:	85 f6                	test   %esi,%esi
  281aeb:	58                   	pop    %eax
  281aec:	5a                   	pop    %edx
  281aed:	74 57                	je     281b46 <shtctl_init+0x76>
  return ctl;
  ctl->map=(unsigned char *)memman_alloc_4K(memman,xsize*ysize);
  281aef:	8b 45 14             	mov    0x14(%ebp),%eax
  281af2:	0f af c7             	imul   %edi,%eax
  281af5:	50                   	push   %eax
  281af6:	53                   	push   %ebx
  281af7:	e8 b8 fe ff ff       	call   2819b4 <memman_alloc_4K>

  if(ctl->map==0)
  281afc:	85 c0                	test   %eax,%eax
  SHTCTL *ctl;
  int i;
  ctl=(SHTCTL *)memman_alloc_4K(memman,sizeof(SHTCTL));
  if(ctl==0)
  return ctl;
  ctl->map=(unsigned char *)memman_alloc_4K(memman,xsize*ysize);
  281afe:	89 46 04             	mov    %eax,0x4(%esi)

  if(ctl->map==0)
  281b01:	5a                   	pop    %edx
  281b02:	59                   	pop    %ecx
  281b03:	75 11                	jne    281b16 <shtctl_init+0x46>
    {
     memman_free_4k(memman,(int)ctl,sizeof(SHTCTL));
  281b05:	68 14 28 00 00       	push   $0x2814
  281b0a:	56                   	push   %esi
  281b0b:	53                   	push   %ebx
  281b0c:	e8 a6 ff ff ff       	call   281ab7 <memman_free_4k>
     return 0;
  281b11:	83 c4 0c             	add    $0xc,%esp
  281b14:	eb 30                	jmp    281b46 <shtctl_init+0x76>
    }
  ctl->vram=vram;
  281b16:	8b 45 0c             	mov    0xc(%ebp),%eax
  281b19:	8d 8e 00 24 00 00    	lea    0x2400(%esi),%ecx
  ctl->xsize=xsize;
  281b1f:	89 7e 08             	mov    %edi,0x8(%esi)
  ctl->ysize=ysize;
  ctl->top=-1;  //no sheet
  281b22:	c7 46 10 ff ff ff ff 	movl   $0xffffffff,0x10(%esi)
  if(ctl->map==0)
    {
     memman_free_4k(memman,(int)ctl,sizeof(SHTCTL));
     return 0;
    }
  ctl->vram=vram;
  281b29:	89 06                	mov    %eax,(%esi)
  ctl->xsize=xsize;
  ctl->ysize=ysize;
  281b2b:	8b 45 14             	mov    0x14(%ebp),%eax
  281b2e:	89 46 0c             	mov    %eax,0xc(%esi)
  281b31:	89 f0                	mov    %esi,%eax
  ctl->top=-1;  //no sheet
  for(i=0;i<MAX_SHEETS;i++)
  {
    ctl->sheet[i].flags=0;
  281b33:	c7 40 30 00 00 00 00 	movl   $0x0,0x30(%eax)
  281b3a:	83 c0 24             	add    $0x24,%eax
    ctl->sheet[i].ctl=ctl;
  281b3d:	89 70 10             	mov    %esi,0x10(%eax)
    }
  ctl->vram=vram;
  ctl->xsize=xsize;
  ctl->ysize=ysize;
  ctl->top=-1;  //no sheet
  for(i=0;i<MAX_SHEETS;i++)
  281b40:	39 c8                	cmp    %ecx,%eax
  281b42:	75 ef                	jne    281b33 <shtctl_init+0x63>
  281b44:	eb 04                	jmp    281b4a <shtctl_init+0x7a>
  281b46:	31 c0                	xor    %eax,%eax
  281b48:	eb 02                	jmp    281b4c <shtctl_init+0x7c>
  281b4a:	89 f0                	mov    %esi,%eax
  {
    ctl->sheet[i].flags=0;
    ctl->sheet[i].ctl=ctl;
  }
  return ctl;
}
  281b4c:	8d 65 f4             	lea    -0xc(%ebp),%esp
  281b4f:	5b                   	pop    %ebx
  281b50:	5e                   	pop    %esi
  281b51:	5f                   	pop    %edi
  281b52:	5d                   	pop    %ebp
  281b53:	c3                   	ret    

00281b54 <sheet_alloc>:

SHEET * sheet_alloc(SHTCTL * ctl)
{
  281b54:	55                   	push   %ebp
  SHEET *  sht;
  int i;
  for (i=0;i<MAX_SHEETS;i++)
  281b55:	31 c0                	xor    %eax,%eax
  }
  return ctl;
}

SHEET * sheet_alloc(SHTCTL * ctl)
{
  281b57:	89 e5                	mov    %esp,%ebp
  281b59:	8b 55 08             	mov    0x8(%ebp),%edx
  281b5c:	6b c8 24             	imul   $0x24,%eax,%ecx
  SHEET *  sht;
  int i;
  for (i=0;i<MAX_SHEETS;i++)
  {
    if (ctl->sheet[i].flags==0)
  281b5f:	83 7c 0a 30 00       	cmpl   $0x0,0x30(%edx,%ecx,1)
  281b64:	75 14                	jne    281b7a <sheet_alloc+0x26>
    {
        sht=&ctl->sheet[i];
  281b66:	8d 44 0a 14          	lea    0x14(%edx,%ecx,1),%eax
        sht->flags=1;
  281b6a:	c7 40 1c 01 00 00 00 	movl   $0x1,0x1c(%eax)
        sht->height=-1;
  281b71:	c7 40 18 ff ff ff ff 	movl   $0xffffffff,0x18(%eax)
        return sht;
  281b78:	eb 0b                	jmp    281b85 <sheet_alloc+0x31>

SHEET * sheet_alloc(SHTCTL * ctl)
{
  SHEET *  sht;
  int i;
  for (i=0;i<MAX_SHEETS;i++)
  281b7a:	40                   	inc    %eax
  281b7b:	3d 00 01 00 00       	cmp    $0x100,%eax
  281b80:	75 da                	jne    281b5c <sheet_alloc+0x8>
        sht->flags=1;
        sht->height=-1;
        return sht;
    }
  }
  return 0;
  281b82:	66 31 c0             	xor    %ax,%ax
}
  281b85:	5d                   	pop    %ebp
  281b86:	c3                   	ret    

00281b87 <sheet_setbuf>:



void sheet_setbuf(SHEET * sht,unsigned char *buf,int xsize,int ysize,int col_inv)
{
  281b87:	55                   	push   %ebp
  281b88:	89 e5                	mov    %esp,%ebp
  281b8a:	8b 45 08             	mov    0x8(%ebp),%eax
  sht->buf=buf;
  281b8d:	8b 55 0c             	mov    0xc(%ebp),%edx
  281b90:	89 10                	mov    %edx,(%eax)
  sht->bxsize=xsize;
  281b92:	8b 55 10             	mov    0x10(%ebp),%edx
  281b95:	89 50 04             	mov    %edx,0x4(%eax)
  sht->bysize=ysize;
  281b98:	8b 55 14             	mov    0x14(%ebp),%edx
  281b9b:	89 50 08             	mov    %edx,0x8(%eax)
  sht->col_inv=col_inv;
  281b9e:	8b 55 18             	mov    0x18(%ebp),%edx
  281ba1:	89 50 14             	mov    %edx,0x14(%eax)
  return ;
}
  281ba4:	5d                   	pop    %ebp
  281ba5:	c3                   	ret    

00281ba6 <sheet_refreshsub>:
 return;
}


void sheet_refreshsub(SHTCTL *ctl,int vx0,int vy0,int vx1,int vy1,int layer,int layerend)
{
  281ba6:	55                   	push   %ebp
  281ba7:	89 e5                	mov    %esp,%ebp
  281ba9:	57                   	push   %edi
  281baa:	56                   	push   %esi
  281bab:	53                   	push   %ebx
  281bac:	83 ec 34             	sub    $0x34,%esp
  281baf:	8b 55 08             	mov    0x8(%ebp),%edx
  281bb2:	8b 4d 14             	mov    0x14(%ebp),%ecx
  281bb5:	8b 5d 18             	mov    0x18(%ebp),%ebx
int h,bx,by,vx,vy,bx0,bx1,by0,by1;
unsigned char *buf,*vram=ctl->vram;
  281bb8:	8b 02                	mov    (%edx),%eax
  281bba:	89 45 ec             	mov    %eax,-0x14(%ebp)
unsigned char sid;
unsigned char c;
unsigned char *map=ctl->map;
  281bbd:	8b 42 04             	mov    0x4(%edx),%eax
  281bc0:	89 45 e8             	mov    %eax,-0x18(%ebp)


SHEET *sht;
if(vx0<0)vx=0;
if(vy0<0)vy=0;
if(vx1>ctl->xsize)vx1=ctl->xsize;
  281bc3:	8b 42 08             	mov    0x8(%edx),%eax
  281bc6:	39 c1                	cmp    %eax,%ecx
  281bc8:	0f 4e c1             	cmovle %ecx,%eax
  281bcb:	89 45 c8             	mov    %eax,-0x38(%ebp)
if(vy1>ctl->ysize)vy1=ctl->ysize;
  281bce:	8b 42 0c             	mov    0xc(%edx),%eax
  281bd1:	39 c3                	cmp    %eax,%ebx
  281bd3:	0f 4e c3             	cmovle %ebx,%eax
  281bd6:	89 45 c4             	mov    %eax,-0x3c(%ebp)
for (h=layer;h<=layerend;h++)
{
  sht=ctl->sheets[h];
  sid=sht-ctl->sheet;
  281bd9:	8d 42 14             	lea    0x14(%edx),%eax
  281bdc:	89 45 c0             	mov    %eax,-0x40(%ebp)
SHEET *sht;
if(vx0<0)vx=0;
if(vy0<0)vy=0;
if(vx1>ctl->xsize)vx1=ctl->xsize;
if(vy1>ctl->ysize)vy1=ctl->ysize;
for (h=layer;h<=layerend;h++)
  281bdf:	8b 45 20             	mov    0x20(%ebp),%eax
  281be2:	39 45 1c             	cmp    %eax,0x1c(%ebp)
  281be5:	0f 8f c6 00 00 00    	jg     281cb1 <sheet_refreshsub+0x10b>
{
  sht=ctl->sheets[h];
  281beb:	8b 45 1c             	mov    0x1c(%ebp),%eax
  buf=sht->buf;

  bx0=vx0-sht->vx0;
  by0=vy0-sht->vy0;

  bx1=vx1-sht->vx0;
  281bee:	8b 5d c8             	mov    -0x38(%ebp),%ebx
if(vy0<0)vy=0;
if(vx1>ctl->xsize)vx1=ctl->xsize;
if(vy1>ctl->ysize)vy1=ctl->ysize;
for (h=layer;h<=layerend;h++)
{
  sht=ctl->sheets[h];
  281bf1:	8b 84 82 14 24 00 00 	mov    0x2414(%edx,%eax,4),%eax
  sid=sht-ctl->sheet;
  281bf8:	89 c1                	mov    %eax,%ecx
  buf=sht->buf;
  281bfa:	8b 38                	mov    (%eax),%edi
if(vx1>ctl->xsize)vx1=ctl->xsize;
if(vy1>ctl->ysize)vy1=ctl->ysize;
for (h=layer;h<=layerend;h++)
{
  sht=ctl->sheets[h];
  sid=sht-ctl->sheet;
  281bfc:	2b 4d c0             	sub    -0x40(%ebp),%ecx
  buf=sht->buf;

  bx0=vx0-sht->vx0;
  281bff:	8b 70 0c             	mov    0xc(%eax),%esi
if(vx1>ctl->xsize)vx1=ctl->xsize;
if(vy1>ctl->ysize)vy1=ctl->ysize;
for (h=layer;h<=layerend;h++)
{
  sht=ctl->sheets[h];
  sid=sht-ctl->sheet;
  281c02:	c1 f9 02             	sar    $0x2,%ecx
  281c05:	69 c9 39 8e e3 38    	imul   $0x38e38e39,%ecx,%ecx
  buf=sht->buf;
  281c0b:	89 7d e0             	mov    %edi,-0x20(%ebp)

  bx0=vx0-sht->vx0;
  by0=vy0-sht->vy0;
  281c0e:	8b 78 10             	mov    0x10(%eax),%edi

  bx1=vx1-sht->vx0;
  281c11:	29 f3                	sub    %esi,%ebx
if(vx1>ctl->xsize)vx1=ctl->xsize;
if(vy1>ctl->ysize)vy1=ctl->ysize;
for (h=layer;h<=layerend;h++)
{
  sht=ctl->sheets[h];
  sid=sht-ctl->sheet;
  281c13:	88 4d e7             	mov    %cl,-0x19(%ebp)

  bx0=vx0-sht->vx0;
  by0=vy0-sht->vy0;

  bx1=vx1-sht->vx0;
  by1=vy1-sht->vy0;
  281c16:	8b 4d c4             	mov    -0x3c(%ebp),%ecx
  281c19:	89 7d f0             	mov    %edi,-0x10(%ebp)
  281c1c:	29 f9                	sub    %edi,%ecx
  281c1e:	8b 7d 0c             	mov    0xc(%ebp),%edi
  281c21:	29 f7                	sub    %esi,%edi
  281c23:	89 fe                	mov    %edi,%esi
  281c25:	bf 00 00 00 00       	mov    $0x0,%edi
  281c2a:	0f 48 f7             	cmovs  %edi,%esi
  281c2d:	89 75 cc             	mov    %esi,-0x34(%ebp)
  281c30:	8b 75 10             	mov    0x10(%ebp),%esi
  281c33:	2b 75 f0             	sub    -0x10(%ebp),%esi
  281c36:	0f 49 fe             	cmovns %esi,%edi

  if(bx0<0)bx0=0;
  if(by0<0)by0=0;
  if(bx1>sht->bxsize)bx1=sht->bxsize;
  281c39:	8b 70 04             	mov    0x4(%eax),%esi
  281c3c:	39 f3                	cmp    %esi,%ebx
  281c3e:	0f 4e f3             	cmovle %ebx,%esi
  if(by1>sht->bysize)by1=sht->bysize;
  281c41:	8b 58 08             	mov    0x8(%eax),%ebx
  281c44:	89 75 d0             	mov    %esi,-0x30(%ebp)
  281c47:	39 d9                	cmp    %ebx,%ecx
  281c49:	0f 4e d9             	cmovle %ecx,%ebx
  281c4c:	89 5d d4             	mov    %ebx,-0x2c(%ebp)
  for(by=by0;by<by1;by++)
  281c4f:	3b 7d d4             	cmp    -0x2c(%ebp),%edi
  281c52:	7d 55                	jge    281ca9 <sheet_refreshsub+0x103>
  {
    vy=sht->vy0+by;
  281c54:	8b 48 10             	mov    0x10(%eax),%ecx
  281c57:	01 f9                	add    %edi,%ecx
  281c59:	89 4d dc             	mov    %ecx,-0x24(%ebp)
    for(bx=bx0;bx<bx1;bx++)
  281c5c:	8b 4d cc             	mov    -0x34(%ebp),%ecx
  281c5f:	89 4d f0             	mov    %ecx,-0x10(%ebp)
  281c62:	8b 4d d0             	mov    -0x30(%ebp),%ecx
  281c65:	39 4d f0             	cmp    %ecx,-0x10(%ebp)
  281c68:	7d 3c                	jge    281ca6 <sheet_refreshsub+0x100>
    {
        vx=sht->vx0+bx;

            c=map[vy*ctl->xsize+vx];
  281c6a:	8b 75 dc             	mov    -0x24(%ebp),%esi
  281c6d:	0f af 72 08          	imul   0x8(%edx),%esi
  for(by=by0;by<by1;by++)
  {
    vy=sht->vy0+by;
    for(bx=bx0;bx<bx1;bx++)
    {
        vx=sht->vx0+bx;
  281c71:	8b 5d f0             	mov    -0x10(%ebp),%ebx
  281c74:	03 58 0c             	add    0xc(%eax),%ebx

            c=map[vy*ctl->xsize+vx];
            if(c==sid)
  281c77:	8b 4d e8             	mov    -0x18(%ebp),%ecx
    vy=sht->vy0+by;
    for(bx=bx0;bx<bx1;bx++)
    {
        vx=sht->vx0+bx;

            c=map[vy*ctl->xsize+vx];
  281c7a:	01 de                	add    %ebx,%esi
            if(c==sid)
  281c7c:	8a 5d e7             	mov    -0x19(%ebp),%bl
    vy=sht->vy0+by;
    for(bx=bx0;bx<bx1;bx++)
    {
        vx=sht->vx0+bx;

            c=map[vy*ctl->xsize+vx];
  281c7f:	89 75 d8             	mov    %esi,-0x28(%ebp)
            if(c==sid)
  281c82:	38 1c 31             	cmp    %bl,(%ecx,%esi,1)
  281c85:	75 1a                	jne    281ca1 <sheet_refreshsub+0xfb>
            {
                vram[vy*ctl->xsize+vx]=buf[by*sht->bxsize+bx];;
  281c87:	8b 70 04             	mov    0x4(%eax),%esi
  281c8a:	8b 4d e0             	mov    -0x20(%ebp),%ecx
  281c8d:	8b 5d f0             	mov    -0x10(%ebp),%ebx
  281c90:	0f af f7             	imul   %edi,%esi
  281c93:	01 cb                	add    %ecx,%ebx
  281c95:	8b 4d ec             	mov    -0x14(%ebp),%ecx
  281c98:	8a 1c 33             	mov    (%ebx,%esi,1),%bl
  281c9b:	8b 75 d8             	mov    -0x28(%ebp),%esi
  281c9e:	88 1c 31             	mov    %bl,(%ecx,%esi,1)
  if(bx1>sht->bxsize)bx1=sht->bxsize;
  if(by1>sht->bysize)by1=sht->bysize;
  for(by=by0;by<by1;by++)
  {
    vy=sht->vy0+by;
    for(bx=bx0;bx<bx1;bx++)
  281ca1:	ff 45 f0             	incl   -0x10(%ebp)
  281ca4:	eb bc                	jmp    281c62 <sheet_refreshsub+0xbc>

  if(bx0<0)bx0=0;
  if(by0<0)by0=0;
  if(bx1>sht->bxsize)bx1=sht->bxsize;
  if(by1>sht->bysize)by1=sht->bysize;
  for(by=by0;by<by1;by++)
  281ca6:	47                   	inc    %edi
  281ca7:	eb a6                	jmp    281c4f <sheet_refreshsub+0xa9>
SHEET *sht;
if(vx0<0)vx=0;
if(vy0<0)vy=0;
if(vx1>ctl->xsize)vx1=ctl->xsize;
if(vy1>ctl->ysize)vy1=ctl->ysize;
for (h=layer;h<=layerend;h++)
  281ca9:	ff 45 1c             	incl   0x1c(%ebp)
  281cac:	e9 2e ff ff ff       	jmp    281bdf <sheet_refreshsub+0x39>
 // if(h==1)  while(1);

}
return;

}
  281cb1:	83 c4 34             	add    $0x34,%esp
  281cb4:	5b                   	pop    %ebx
  281cb5:	5e                   	pop    %esi
  281cb6:	5f                   	pop    %edi
  281cb7:	5d                   	pop    %ebp
  281cb8:	c3                   	ret    

00281cb9 <sheet_refresh>:
 }

}

void sheet_refresh(SHEET * sht,int bx0,int by0,int bx1,int by1)
{
  281cb9:	55                   	push   %ebp
  281cba:	89 e5                	mov    %esp,%ebp
  281cbc:	8b 45 08             	mov    0x8(%ebp),%eax
  281cbf:	53                   	push   %ebx
SHTCTL *ctl=sht->ctl;
if (sht->height>=0)
  281cc0:	8b 50 18             	mov    0x18(%eax),%edx

}

void sheet_refresh(SHEET * sht,int bx0,int by0,int bx1,int by1)
{
SHTCTL *ctl=sht->ctl;
  281cc3:	8b 58 20             	mov    0x20(%eax),%ebx
if (sht->height>=0)
  281cc6:	85 d2                	test   %edx,%edx
  281cc8:	78 25                	js     281cef <sheet_refresh+0x36>
{
    sheet_refreshsub(ctl,sht->vx0+bx0,sht->vy0+by0,
    sht->vx0+bx1,sht->vy0+by1,sht->height,sht->height);
  281cca:	8b 48 10             	mov    0x10(%eax),%ecx
  281ccd:	8b 40 0c             	mov    0xc(%eax),%eax
void sheet_refresh(SHEET * sht,int bx0,int by0,int bx1,int by1)
{
SHTCTL *ctl=sht->ctl;
if (sht->height>=0)
{
    sheet_refreshsub(ctl,sht->vx0+bx0,sht->vy0+by0,
  281cd0:	52                   	push   %edx
  281cd1:	52                   	push   %edx
  281cd2:	8b 55 18             	mov    0x18(%ebp),%edx
  281cd5:	01 ca                	add    %ecx,%edx
  281cd7:	52                   	push   %edx
  281cd8:	8b 55 14             	mov    0x14(%ebp),%edx
  281cdb:	03 4d 10             	add    0x10(%ebp),%ecx
  281cde:	01 c2                	add    %eax,%edx
  281ce0:	03 45 0c             	add    0xc(%ebp),%eax
  281ce3:	52                   	push   %edx
  281ce4:	51                   	push   %ecx
  281ce5:	50                   	push   %eax
  281ce6:	53                   	push   %ebx
  281ce7:	e8 ba fe ff ff       	call   281ba6 <sheet_refreshsub>
  281cec:	83 c4 1c             	add    $0x1c,%esp
    sht->vx0+bx1,sht->vy0+by1,sht->height,sht->height);

    }
}
  281cef:	8b 5d fc             	mov    -0x4(%ebp),%ebx
  281cf2:	c9                   	leave  
  281cf3:	c3                   	ret    

00281cf4 <sheet_refreshmap>:
}



void sheet_refreshmap(SHTCTL *ctl,int vx0,int vy0,int vx1,int vy1,int layer)
{
  281cf4:	55                   	push   %ebp
  281cf5:	89 e5                	mov    %esp,%ebp
  281cf7:	57                   	push   %edi
  281cf8:	56                   	push   %esi
  281cf9:	53                   	push   %ebx
  281cfa:	83 ec 28             	sub    $0x28,%esp
int h,bx,by,vx,vy, bx0,by0,bx1,by1;
unsigned char *buf,*vram=ctl->vram;
unsigned char *map=ctl->map;
  281cfd:	8b 45 08             	mov    0x8(%ebp),%eax
}



void sheet_refreshmap(SHTCTL *ctl,int vx0,int vy0,int vx1,int vy1,int layer)
{
  281d00:	8b 5d 14             	mov    0x14(%ebp),%ebx
  281d03:	8b 4d 18             	mov    0x18(%ebp),%ecx
int h,bx,by,vx,vy, bx0,by0,bx1,by1;
unsigned char *buf,*vram=ctl->vram;
unsigned char *map=ctl->map;
  281d06:	8b 40 04             	mov    0x4(%eax),%eax
  281d09:	89 45 f0             	mov    %eax,-0x10(%ebp)


SHEET *sht;
if(vx0<0)vx=0;
if(vy0<0)vy=0;
if(vx1>ctl->xsize)vx1=ctl->xsize;
  281d0c:	8b 45 08             	mov    0x8(%ebp),%eax
  281d0f:	8b 40 08             	mov    0x8(%eax),%eax
  281d12:	39 c3                	cmp    %eax,%ebx
  281d14:	0f 4e c3             	cmovle %ebx,%eax
  281d17:	89 45 d4             	mov    %eax,-0x2c(%ebp)
if(vy1>ctl->ysize)vy1=ctl->ysize;
  281d1a:	8b 45 08             	mov    0x8(%ebp),%eax
  281d1d:	8b 40 0c             	mov    0xc(%eax),%eax
  281d20:	39 c1                	cmp    %eax,%ecx
  281d22:	0f 4e c1             	cmovle %ecx,%eax
  281d25:	89 45 d0             	mov    %eax,-0x30(%ebp)
for (h=layer;h<=ctl->top;h++)
{
  sht=ctl->sheets[h];
  sid=sht-ctl->sheet;
  281d28:	8b 45 08             	mov    0x8(%ebp),%eax
  281d2b:	83 c0 14             	add    $0x14,%eax
  281d2e:	89 45 cc             	mov    %eax,-0x34(%ebp)
SHEET *sht;
if(vx0<0)vx=0;
if(vy0<0)vy=0;
if(vx1>ctl->xsize)vx1=ctl->xsize;
if(vy1>ctl->ysize)vy1=ctl->ysize;
for (h=layer;h<=ctl->top;h++)
  281d31:	8b 45 08             	mov    0x8(%ebp),%eax
  281d34:	8b 40 10             	mov    0x10(%eax),%eax
  281d37:	39 45 1c             	cmp    %eax,0x1c(%ebp)
  281d3a:	0f 8f b4 00 00 00    	jg     281df4 <sheet_refreshmap+0x100>
{
  sht=ctl->sheets[h];
  281d40:	8b 55 08             	mov    0x8(%ebp),%edx
  281d43:	8b 45 1c             	mov    0x1c(%ebp),%eax
  buf=sht->buf;

  bx0=vx0-sht->vx0;
  by0=vy0-sht->vy0;

  bx1=vx1-sht->vx0;
  281d46:	8b 5d d4             	mov    -0x2c(%ebp),%ebx
if(vy0<0)vy=0;
if(vx1>ctl->xsize)vx1=ctl->xsize;
if(vy1>ctl->ysize)vy1=ctl->ysize;
for (h=layer;h<=ctl->top;h++)
{
  sht=ctl->sheets[h];
  281d49:	8b 84 82 14 24 00 00 	mov    0x2414(%edx,%eax,4),%eax
  sid=sht-ctl->sheet;
  281d50:	89 c1                	mov    %eax,%ecx
  //printdebug((unsigned)sid,0);
  buf=sht->buf;
  281d52:	8b 10                	mov    (%eax),%edx
if(vx1>ctl->xsize)vx1=ctl->xsize;
if(vy1>ctl->ysize)vy1=ctl->ysize;
for (h=layer;h<=ctl->top;h++)
{
  sht=ctl->sheets[h];
  sid=sht-ctl->sheet;
  281d54:	2b 4d cc             	sub    -0x34(%ebp),%ecx
  //printdebug((unsigned)sid,0);
  buf=sht->buf;

  bx0=vx0-sht->vx0;
  281d57:	8b 70 0c             	mov    0xc(%eax),%esi
  by0=vy0-sht->vy0;
  281d5a:	8b 78 10             	mov    0x10(%eax),%edi
if(vx1>ctl->xsize)vx1=ctl->xsize;
if(vy1>ctl->ysize)vy1=ctl->ysize;
for (h=layer;h<=ctl->top;h++)
{
  sht=ctl->sheets[h];
  sid=sht-ctl->sheet;
  281d5d:	c1 f9 02             	sar    $0x2,%ecx
  281d60:	69 c9 39 8e e3 38    	imul   $0x38e38e39,%ecx,%ecx
  //printdebug((unsigned)sid,0);
  buf=sht->buf;
  281d66:	89 55 e8             	mov    %edx,-0x18(%ebp)
  281d69:	8b 55 0c             	mov    0xc(%ebp),%edx

  bx0=vx0-sht->vx0;
  by0=vy0-sht->vy0;

  bx1=vx1-sht->vx0;
  281d6c:	29 f3                	sub    %esi,%ebx
if(vx1>ctl->xsize)vx1=ctl->xsize;
if(vy1>ctl->ysize)vy1=ctl->ysize;
for (h=layer;h<=ctl->top;h++)
{
  sht=ctl->sheets[h];
  sid=sht-ctl->sheet;
  281d6e:	88 4d ef             	mov    %cl,-0x11(%ebp)

  bx0=vx0-sht->vx0;
  by0=vy0-sht->vy0;

  bx1=vx1-sht->vx0;
  by1=vy1-sht->vy0;
  281d71:	8b 4d d0             	mov    -0x30(%ebp),%ecx
  281d74:	29 f9                	sub    %edi,%ecx
  281d76:	29 f2                	sub    %esi,%edx
  281d78:	89 d6                	mov    %edx,%esi
  281d7a:	ba 00 00 00 00       	mov    $0x0,%edx
  281d7f:	0f 48 f2             	cmovs  %edx,%esi
  281d82:	89 75 d8             	mov    %esi,-0x28(%ebp)
  281d85:	8b 75 10             	mov    0x10(%ebp),%esi
  281d88:	29 fe                	sub    %edi,%esi
  if(bx0<0)bx0=0;
  if(by0<0)by0=0;
  if(bx1>sht->bxsize)bx1=sht->bxsize;
  281d8a:	8b 78 04             	mov    0x4(%eax),%edi
  281d8d:	0f 48 f2             	cmovs  %edx,%esi
  281d90:	39 fb                	cmp    %edi,%ebx
  281d92:	0f 4e fb             	cmovle %ebx,%edi
  if(by1>sht->bysize)by1=sht->bysize;
  281d95:	8b 58 08             	mov    0x8(%eax),%ebx
  281d98:	89 7d dc             	mov    %edi,-0x24(%ebp)
  281d9b:	39 d9                	cmp    %ebx,%ecx
  281d9d:	0f 4e d9             	cmovle %ecx,%ebx
  281da0:	89 5d e0             	mov    %ebx,-0x20(%ebp)
  for(by=by0;by<by1;by++)
  281da3:	3b 75 e0             	cmp    -0x20(%ebp),%esi
  281da6:	7d 44                	jge    281dec <sheet_refreshmap+0xf8>
  {
    vy=sht->vy0+by;
  281da8:	8b 50 10             	mov    0x10(%eax),%edx
    for(bx=bx0;bx<bx1;bx++)
  281dab:	8b 4d d8             	mov    -0x28(%ebp),%ecx
  if(by0<0)by0=0;
  if(bx1>sht->bxsize)bx1=sht->bxsize;
  if(by1>sht->bysize)by1=sht->bysize;
  for(by=by0;by<by1;by++)
  {
    vy=sht->vy0+by;
  281dae:	01 f2                	add    %esi,%edx
  281db0:	89 55 e4             	mov    %edx,-0x1c(%ebp)
    for(bx=bx0;bx<bx1;bx++)
  281db3:	3b 4d dc             	cmp    -0x24(%ebp),%ecx
  281db6:	7d 31                	jge    281de9 <sheet_refreshmap+0xf5>
    {
        vx=sht->vx0+bx;
            c=buf[by*sht->bxsize+bx];
  281db8:	8b 58 04             	mov    0x4(%eax),%ebx
  281dbb:	8b 7d e8             	mov    -0x18(%ebp),%edi
  for(by=by0;by<by1;by++)
  {
    vy=sht->vy0+by;
    for(bx=bx0;bx<bx1;bx++)
    {
        vx=sht->vx0+bx;
  281dbe:	8b 50 0c             	mov    0xc(%eax),%edx
            c=buf[by*sht->bxsize+bx];
  281dc1:	0f af de             	imul   %esi,%ebx
  281dc4:	01 cf                	add    %ecx,%edi
            if(c!=sht->col_inv)
  281dc6:	0f b6 1c 1f          	movzbl (%edi,%ebx,1),%ebx
  281dca:	3b 58 14             	cmp    0x14(%eax),%ebx
  281dcd:	74 17                	je     281de6 <sheet_refreshmap+0xf2>
            {
                map[vy*ctl->xsize+vx]=sid;
  281dcf:	8b 7d 08             	mov    0x8(%ebp),%edi
  281dd2:	8b 5d e4             	mov    -0x1c(%ebp),%ebx
  281dd5:	0f af 5f 08          	imul   0x8(%edi),%ebx
  281dd9:	8b 7d f0             	mov    -0x10(%ebp),%edi
  281ddc:	01 cf                	add    %ecx,%edi
  281dde:	01 d7                	add    %edx,%edi
  281de0:	8a 55 ef             	mov    -0x11(%ebp),%dl
  281de3:	88 14 1f             	mov    %dl,(%edi,%ebx,1)
  if(bx1>sht->bxsize)bx1=sht->bxsize;
  if(by1>sht->bysize)by1=sht->bysize;
  for(by=by0;by<by1;by++)
  {
    vy=sht->vy0+by;
    for(bx=bx0;bx<bx1;bx++)
  281de6:	41                   	inc    %ecx
  281de7:	eb ca                	jmp    281db3 <sheet_refreshmap+0xbf>
  by1=vy1-sht->vy0;
  if(bx0<0)bx0=0;
  if(by0<0)by0=0;
  if(bx1>sht->bxsize)bx1=sht->bxsize;
  if(by1>sht->bysize)by1=sht->bysize;
  for(by=by0;by<by1;by++)
  281de9:	46                   	inc    %esi
  281dea:	eb b7                	jmp    281da3 <sheet_refreshmap+0xaf>
SHEET *sht;
if(vx0<0)vx=0;
if(vy0<0)vy=0;
if(vx1>ctl->xsize)vx1=ctl->xsize;
if(vy1>ctl->ysize)vy1=ctl->ysize;
for (h=layer;h<=ctl->top;h++)
  281dec:	ff 45 1c             	incl   0x1c(%ebp)
  281def:	e9 3d ff ff ff       	jmp    281d31 <sheet_refreshmap+0x3d>
  }

}
return;

}
  281df4:	83 c4 28             	add    $0x28,%esp
  281df7:	5b                   	pop    %ebx
  281df8:	5e                   	pop    %esi
  281df9:	5f                   	pop    %edi
  281dfa:	5d                   	pop    %ebp
  281dfb:	c3                   	ret    

00281dfc <sheet_updown>:
  return ;
}


void sheet_updown(SHEET * sht,int height)
{
  281dfc:	55                   	push   %ebp
  281dfd:	89 e5                	mov    %esp,%ebp
  281dff:	57                   	push   %edi
  281e00:	56                   	push   %esi
  281e01:	53                   	push   %ebx
  281e02:	83 ec 08             	sub    $0x8,%esp
  281e05:	8b 5d 08             	mov    0x8(%ebp),%ebx
  281e08:	8b 55 0c             	mov    0xc(%ebp),%edx
 int h ,old=sht->height;
  281e0b:	8b 43 18             	mov    0x18(%ebx),%eax
 SHTCTL *ctl=sht->ctl;
  281e0e:	8b 73 20             	mov    0x20(%ebx),%esi
}


void sheet_updown(SHEET * sht,int height)
{
 int h ,old=sht->height;
  281e11:	89 c1                	mov    %eax,%ecx
  281e13:	89 45 f0             	mov    %eax,-0x10(%ebp)
 SHTCTL *ctl=sht->ctl;
 if(height>ctl->top+1)
  281e16:	8b 46 10             	mov    0x10(%esi),%eax
  281e19:	8d 78 01             	lea    0x1(%eax),%edi
  281e1c:	39 fa                	cmp    %edi,%edx
  281e1e:	0f 4f d7             	cmovg  %edi,%edx
  281e21:	89 7d ec             	mov    %edi,-0x14(%ebp)
  281e24:	83 cf ff             	or     $0xffffffff,%edi
  281e27:	85 d2                	test   %edx,%edx
  281e29:	0f 49 fa             	cmovns %edx,%edi
 {
  height=-1;
 }
 sht->height=height;

 if(old>height)
  281e2c:	39 f9                	cmp    %edi,%ecx

 if(height<-1)
 {
  height=-1;
 }
 sht->height=height;
  281e2e:	89 7b 18             	mov    %edi,0x18(%ebx)

 if(old>height)
  281e31:	0f 8e b6 00 00 00    	jle    281eed <sheet_updown+0xf1>
 {
   if(height>=0)
  281e37:	85 ff                	test   %edi,%edi
  281e39:	78 5b                	js     281e96 <sheet_updown+0x9a>
  281e3b:	89 c8                	mov    %ecx,%eax
   {
        for(h=old;h>height;h--)
        {
            ctl->sheets[h]=ctl->sheets[h-1];
  281e3d:	8d 50 ff             	lea    -0x1(%eax),%edx
  281e40:	8b 8c 96 14 24 00 00 	mov    0x2414(%esi,%edx,4),%ecx

 if(old>height)
 {
   if(height>=0)
   {
        for(h=old;h>height;h--)
  281e47:	39 fa                	cmp    %edi,%edx
        {
            ctl->sheets[h]=ctl->sheets[h-1];
  281e49:	89 8c 96 18 24 00 00 	mov    %ecx,0x2418(%esi,%edx,4)
            ctl->sheets[h]->height=h;
  281e50:	89 41 18             	mov    %eax,0x18(%ecx)

 if(old>height)
 {
   if(height>=0)
   {
        for(h=old;h>height;h--)
  281e53:	74 04                	je     281e59 <sheet_updown+0x5d>
  281e55:	89 d0                	mov    %edx,%eax
  281e57:	eb e4                	jmp    281e3d <sheet_updown+0x41>
        {
            ctl->sheets[h]=ctl->sheets[h-1];
            ctl->sheets[h]->height=h;
        }
        ctl->sheets[height]=sht;
        sheet_refreshmap(ctl,sht->vx0,sht->vy0,sht->vx0+sht->bxsize,sht->vy0+sht->bysize,sht->height+1);
  281e59:	8b 7b 18             	mov    0x18(%ebx),%edi
  281e5c:	8b 53 10             	mov    0x10(%ebx),%edx
        for(h=old;h>height;h--)
        {
            ctl->sheets[h]=ctl->sheets[h-1];
            ctl->sheets[h]->height=h;
        }
        ctl->sheets[height]=sht;
  281e5f:	89 9c 86 10 24 00 00 	mov    %ebx,0x2410(%esi,%eax,4)
        sheet_refreshmap(ctl,sht->vx0,sht->vy0,sht->vx0+sht->bxsize,sht->vy0+sht->bysize,sht->height+1);
  281e66:	8b 43 0c             	mov    0xc(%ebx),%eax
  281e69:	8d 4f 01             	lea    0x1(%edi),%ecx
  281e6c:	51                   	push   %ecx
  281e6d:	8b 4b 08             	mov    0x8(%ebx),%ecx
  281e70:	01 d1                	add    %edx,%ecx
  281e72:	51                   	push   %ecx
  281e73:	8b 4b 04             	mov    0x4(%ebx),%ecx
  281e76:	01 c1                	add    %eax,%ecx
  281e78:	51                   	push   %ecx
  281e79:	52                   	push   %edx
  281e7a:	50                   	push   %eax
  281e7b:	56                   	push   %esi
  281e7c:	e8 73 fe ff ff       	call   281cf4 <sheet_refreshmap>

        sheet_refreshsub(ctl,sht->vx0,sht->vy0,sht->vx0+sht->bxsize,sht->vy0+sht->bysize,sht->height+1,old);
  281e81:	8b 53 10             	mov    0x10(%ebx),%edx
  281e84:	8b 43 0c             	mov    0xc(%ebx),%eax
  281e87:	ff 75 f0             	pushl  -0x10(%ebp)
  281e8a:	8b 7b 18             	mov    0x18(%ebx),%edi
  281e8d:	8d 4f 01             	lea    0x1(%edi),%ecx
  281e90:	51                   	push   %ecx
  281e91:	e9 e1 00 00 00       	jmp    281f77 <sheet_updown+0x17b>

   }
   else
   {
        if(ctl->top>old)
  281e96:	8b 7d f0             	mov    -0x10(%ebp),%edi
  281e99:	39 f8                	cmp    %edi,%eax
  281e9b:	89 f9                	mov    %edi,%ecx
  281e9d:	7f 32                	jg     281ed1 <sheet_updown+0xd5>
                ctl->sheets[h]=ctl->sheets[h+1];
                ctl->sheets[h]->height=h;
            }

        }
        ctl->top--;
  281e9f:	48                   	dec    %eax
        sheet_refreshmap(ctl,sht->vx0,sht->vy0,sht->vx0+sht->bxsize,sht->vy0+sht->bysize,0);
  281ea0:	8b 53 10             	mov    0x10(%ebx),%edx
                ctl->sheets[h]=ctl->sheets[h+1];
                ctl->sheets[h]->height=h;
            }

        }
        ctl->top--;
  281ea3:	89 46 10             	mov    %eax,0x10(%esi)
        sheet_refreshmap(ctl,sht->vx0,sht->vy0,sht->vx0+sht->bxsize,sht->vy0+sht->bysize,0);
  281ea6:	8b 43 0c             	mov    0xc(%ebx),%eax
  281ea9:	6a 00                	push   $0x0
  281eab:	8b 4b 08             	mov    0x8(%ebx),%ecx
  281eae:	01 d1                	add    %edx,%ecx
  281eb0:	51                   	push   %ecx
  281eb1:	8b 4b 04             	mov    0x4(%ebx),%ecx
  281eb4:	01 c1                	add    %eax,%ecx
  281eb6:	51                   	push   %ecx
  281eb7:	52                   	push   %edx
  281eb8:	50                   	push   %eax
  281eb9:	56                   	push   %esi
  281eba:	e8 35 fe ff ff       	call   281cf4 <sheet_refreshmap>
        sheet_refreshsub(ctl,sht->vx0,sht->vy0,sht->vx0+sht->bxsize,sht->vy0+sht->bysize,0,old-1);
  281ebf:	8b 4d f0             	mov    -0x10(%ebp),%ecx
  281ec2:	8b 53 10             	mov    0x10(%ebx),%edx
  281ec5:	8b 43 0c             	mov    0xc(%ebx),%eax
  281ec8:	49                   	dec    %ecx
  281ec9:	51                   	push   %ecx
  281eca:	6a 00                	push   $0x0
  281ecc:	e9 a6 00 00 00       	jmp    281f77 <sheet_updown+0x17b>
   {
        if(ctl->top>old)
        {
            for(h=old;h<ctl->top;h++)
            {
                ctl->sheets[h]=ctl->sheets[h+1];
  281ed1:	8d 51 01             	lea    0x1(%ecx),%edx
  281ed4:	8b bc 96 14 24 00 00 	mov    0x2414(%esi,%edx,4),%edi
   }
   else
   {
        if(ctl->top>old)
        {
            for(h=old;h<ctl->top;h++)
  281edb:	39 c2                	cmp    %eax,%edx
            {
                ctl->sheets[h]=ctl->sheets[h+1];
  281edd:	89 bc 96 10 24 00 00 	mov    %edi,0x2410(%esi,%edx,4)
                ctl->sheets[h]->height=h;
  281ee4:	89 4f 18             	mov    %ecx,0x18(%edi)
   }
   else
   {
        if(ctl->top>old)
        {
            for(h=old;h<ctl->top;h++)
  281ee7:	74 b6                	je     281e9f <sheet_updown+0xa3>
  281ee9:	89 d1                	mov    %edx,%ecx
  281eeb:	eb e4                	jmp    281ed1 <sheet_updown+0xd5>
        sheet_refreshmap(ctl,sht->vx0,sht->vy0,sht->vx0+sht->bxsize,sht->vy0+sht->bysize,0);
        sheet_refreshsub(ctl,sht->vx0,sht->vy0,sht->vx0+sht->bxsize,sht->vy0+sht->bysize,0,old-1);

   }
 }
 else if(old<height)
  281eed:	0f 8d 9b 00 00 00    	jge    281f8e <sheet_updown+0x192>
 {

    if(old>0)
  281ef3:	83 7d f0 00          	cmpl   $0x0,-0x10(%ebp)
  281ef7:	7e 2c                	jle    281f25 <sheet_updown+0x129>
    {

        for(h=old;h<height;h++)
        {
         ctl->sheets[h]=ctl->sheets[h+1];
  281ef9:	8b 4d f0             	mov    -0x10(%ebp),%ecx
  281efc:	89 c8                	mov    %ecx,%eax
  281efe:	40                   	inc    %eax
  281eff:	8b 94 86 14 24 00 00 	mov    0x2414(%esi,%eax,4),%edx
 {

    if(old>0)
    {

        for(h=old;h<height;h++)
  281f06:	39 f8                	cmp    %edi,%eax
        {
         ctl->sheets[h]=ctl->sheets[h+1];
  281f08:	89 94 86 10 24 00 00 	mov    %edx,0x2410(%esi,%eax,4)
         ctl->sheets[h]->height=h;
  281f0f:	89 4a 18             	mov    %ecx,0x18(%edx)
 {

    if(old>0)
    {

        for(h=old;h<height;h++)
  281f12:	74 05                	je     281f19 <sheet_updown+0x11d>
  281f14:	89 45 f0             	mov    %eax,-0x10(%ebp)
  281f17:	eb e0                	jmp    281ef9 <sheet_updown+0xfd>
        {
         ctl->sheets[h]=ctl->sheets[h+1];
         ctl->sheets[h]->height=h;
        }
        ctl->sheets[height]=sht;
  281f19:	8b 45 f0             	mov    -0x10(%ebp),%eax
  281f1c:	89 9c 86 18 24 00 00 	mov    %ebx,0x2418(%esi,%eax,4)
  281f23:	eb 2f                	jmp    281f54 <sheet_updown+0x158>
    }
    else
    {

        for(h=ctl->top;h>=height;h--)
  281f25:	39 f8                	cmp    %edi,%eax
  281f27:	7c 1e                	jl     281f47 <sheet_updown+0x14b>
        {
            ctl->sheets[h+1]=ctl->sheets[h];
  281f29:	8b 94 86 14 24 00 00 	mov    0x2414(%esi,%eax,4),%edx
  281f30:	8b 8c 86 14 24 00 00 	mov    0x2414(%esi,%eax,4),%ecx
  281f37:	89 94 86 18 24 00 00 	mov    %edx,0x2418(%esi,%eax,4)
  281f3e:	8d 50 01             	lea    0x1(%eax),%edx
        ctl->sheets[height]=sht;
    }
    else
    {

        for(h=ctl->top;h>=height;h--)
  281f41:	48                   	dec    %eax
  281f42:	89 51 18             	mov    %edx,0x18(%ecx)
  281f45:	eb de                	jmp    281f25 <sheet_updown+0x129>
        {
            ctl->sheets[h+1]=ctl->sheets[h];
            ctl->sheets[h+1]->height=h+1;
        }
        ctl->sheets[height]=sht;
        ctl->top++;
  281f47:	8b 45 ec             	mov    -0x14(%ebp),%eax
        for(h=ctl->top;h>=height;h--)
        {
            ctl->sheets[h+1]=ctl->sheets[h];
            ctl->sheets[h+1]->height=h+1;
        }
        ctl->sheets[height]=sht;
  281f4a:	89 9c be 14 24 00 00 	mov    %ebx,0x2414(%esi,%edi,4)
        ctl->top++;
  281f51:	89 46 10             	mov    %eax,0x10(%esi)

    }
      sheet_refreshmap(ctl,sht->vx0,sht->vy0,sht->vx0+sht->bxsize,sht->vy0+sht->bysize,height);
  281f54:	8b 53 10             	mov    0x10(%ebx),%edx
  281f57:	8b 43 0c             	mov    0xc(%ebx),%eax
  281f5a:	57                   	push   %edi
  281f5b:	8b 4b 08             	mov    0x8(%ebx),%ecx
  281f5e:	01 d1                	add    %edx,%ecx
  281f60:	51                   	push   %ecx
  281f61:	8b 4b 04             	mov    0x4(%ebx),%ecx
  281f64:	01 c1                	add    %eax,%ecx
  281f66:	51                   	push   %ecx
  281f67:	52                   	push   %edx
  281f68:	50                   	push   %eax
  281f69:	56                   	push   %esi
  281f6a:	e8 85 fd ff ff       	call   281cf4 <sheet_refreshmap>
      sheet_refreshsub(ctl,sht->vx0,sht->vy0,sht->vx0+sht->bxsize,sht->vy0+sht->bysize,height,height);
  281f6f:	8b 53 10             	mov    0x10(%ebx),%edx
  281f72:	8b 43 0c             	mov    0xc(%ebx),%eax
  281f75:	57                   	push   %edi
  281f76:	57                   	push   %edi
  281f77:	8b 4b 08             	mov    0x8(%ebx),%ecx
  281f7a:	01 d1                	add    %edx,%ecx
  281f7c:	51                   	push   %ecx
  281f7d:	8b 4b 04             	mov    0x4(%ebx),%ecx
  281f80:	01 c1                	add    %eax,%ecx
  281f82:	51                   	push   %ecx
  281f83:	52                   	push   %edx
  281f84:	50                   	push   %eax
  281f85:	56                   	push   %esi
  281f86:	e8 1b fc ff ff       	call   281ba6 <sheet_refreshsub>
  281f8b:	83 c4 34             	add    $0x34,%esp
 }

}
  281f8e:	8d 65 f4             	lea    -0xc(%ebp),%esp
  281f91:	5b                   	pop    %ebx
  281f92:	5e                   	pop    %esi
  281f93:	5f                   	pop    %edi
  281f94:	5d                   	pop    %ebp
  281f95:	c3                   	ret    

00281f96 <sheet_free>:
return;

}

void sheet_free(SHEET *sht)
{
  281f96:	55                   	push   %ebp
  281f97:	89 e5                	mov    %esp,%ebp
  281f99:	53                   	push   %ebx
  281f9a:	8b 5d 08             	mov    0x8(%ebp),%ebx
 if(sht->height>=0)
  281f9d:	83 7b 18 00          	cmpl   $0x0,0x18(%ebx)
  281fa1:	78 0a                	js     281fad <sheet_free+0x17>
 sheet_updown(sht,-1);
  281fa3:	6a ff                	push   $0xffffffff
  281fa5:	53                   	push   %ebx
  281fa6:	e8 51 fe ff ff       	call   281dfc <sheet_updown>
  281fab:	58                   	pop    %eax
  281fac:	5a                   	pop    %edx

sht->flags=0;
  281fad:	c7 43 1c 00 00 00 00 	movl   $0x0,0x1c(%ebx)
return;
}
  281fb4:	8b 5d fc             	mov    -0x4(%ebp),%ebx
  281fb7:	c9                   	leave  
  281fb8:	c3                   	ret    

00281fb9 <sheet_move>:

    }
}

void sheet_move(SHEET * sht,int vx0,int vy0)
{
  281fb9:	55                   	push   %ebp
  281fba:	89 e5                	mov    %esp,%ebp
  281fbc:	57                   	push   %edi
  281fbd:	56                   	push   %esi
  281fbe:	53                   	push   %ebx
  281fbf:	83 ec 08             	sub    $0x8,%esp
  281fc2:	8b 5d 08             	mov    0x8(%ebp),%ebx
  281fc5:	8b 75 10             	mov    0x10(%ebp),%esi
SHTCTL * ctl=sht->ctl;
 int old_vx0=sht->vx0;
 int old_vy0=sht->vy0;

 sht->vx0=vx0;
  281fc8:	8b 45 0c             	mov    0xc(%ebp),%eax
 sht->vy0=vy0;
 if(sht->height>=0)
  281fcb:	83 7b 18 00          	cmpl   $0x0,0x18(%ebx)
}

void sheet_move(SHEET * sht,int vx0,int vy0)
{
SHTCTL * ctl=sht->ctl;
 int old_vx0=sht->vx0;
  281fcf:	8b 53 0c             	mov    0xc(%ebx),%edx
 int old_vy0=sht->vy0;
  281fd2:	8b 4b 10             	mov    0x10(%ebx),%ecx
    }
}

void sheet_move(SHEET * sht,int vx0,int vy0)
{
SHTCTL * ctl=sht->ctl;
  281fd5:	8b 7b 20             	mov    0x20(%ebx),%edi
 int old_vx0=sht->vx0;
 int old_vy0=sht->vy0;

 sht->vx0=vx0;
  281fd8:	89 43 0c             	mov    %eax,0xc(%ebx)
 sht->vy0=vy0;
  281fdb:	89 73 10             	mov    %esi,0x10(%ebx)
 if(sht->height>=0)
  281fde:	78 79                	js     282059 <sheet_move+0xa0>
 {
    //移动之后map要重新生成
    sheet_refreshmap(ctl,old_vx0,old_vy0,old_vx0+sht->bxsize,old_vy0+sht->bysize,0);
  281fe0:	6a 00                	push   $0x0
  281fe2:	8b 43 08             	mov    0x8(%ebx),%eax
  281fe5:	89 4d ec             	mov    %ecx,-0x14(%ebp)
  281fe8:	89 55 f0             	mov    %edx,-0x10(%ebp)
  281feb:	01 c8                	add    %ecx,%eax
  281fed:	50                   	push   %eax
  281fee:	8b 43 04             	mov    0x4(%ebx),%eax
  281ff1:	01 d0                	add    %edx,%eax
  281ff3:	50                   	push   %eax
  281ff4:	51                   	push   %ecx
  281ff5:	52                   	push   %edx
  281ff6:	57                   	push   %edi
  281ff7:	e8 f8 fc ff ff       	call   281cf4 <sheet_refreshmap>
    sheet_refreshmap(ctl,vx0,vy0,vx0+sht->bxsize,vy0+sht->bysize,sht->height);
  281ffc:	ff 73 18             	pushl  0x18(%ebx)
  281fff:	8b 43 08             	mov    0x8(%ebx),%eax
  282002:	01 f0                	add    %esi,%eax
  282004:	50                   	push   %eax
  282005:	8b 45 0c             	mov    0xc(%ebp),%eax
  282008:	03 43 04             	add    0x4(%ebx),%eax
  28200b:	50                   	push   %eax
  28200c:	56                   	push   %esi
  28200d:	ff 75 0c             	pushl  0xc(%ebp)
  282010:	57                   	push   %edi
  282011:	e8 de fc ff ff       	call   281cf4 <sheet_refreshmap>
    //sheet_refresh(ctl);
    sheet_refreshsub(ctl,old_vx0,old_vy0,old_vx0+sht->bxsize,old_vy0+sht->bysize,0,sht->height-1);
  282016:	8b 43 18             	mov    0x18(%ebx),%eax
  282019:	83 c4 30             	add    $0x30,%esp
  28201c:	8b 4d ec             	mov    -0x14(%ebp),%ecx
  28201f:	8b 55 f0             	mov    -0x10(%ebp),%edx
  282022:	48                   	dec    %eax
  282023:	50                   	push   %eax
  282024:	6a 00                	push   $0x0
  282026:	8b 43 08             	mov    0x8(%ebx),%eax
  282029:	01 c8                	add    %ecx,%eax
  28202b:	50                   	push   %eax
  28202c:	8b 43 04             	mov    0x4(%ebx),%eax
  28202f:	01 d0                	add    %edx,%eax
  282031:	50                   	push   %eax
  282032:	51                   	push   %ecx
  282033:	52                   	push   %edx
  282034:	57                   	push   %edi
  282035:	e8 6c fb ff ff       	call   281ba6 <sheet_refreshsub>
    sheet_refreshsub(ctl,vx0,vy0,vx0+sht->bxsize,vy0+sht->bysize,sht->height,sht->height);
  28203a:	8b 43 18             	mov    0x18(%ebx),%eax
  28203d:	50                   	push   %eax
  28203e:	50                   	push   %eax
  28203f:	8b 43 08             	mov    0x8(%ebx),%eax
  282042:	01 f0                	add    %esi,%eax
  282044:	50                   	push   %eax
  282045:	8b 45 0c             	mov    0xc(%ebp),%eax
  282048:	03 43 04             	add    0x4(%ebx),%eax
  28204b:	50                   	push   %eax
  28204c:	56                   	push   %esi
  28204d:	ff 75 0c             	pushl  0xc(%ebp)
  282050:	57                   	push   %edi
  282051:	e8 50 fb ff ff       	call   281ba6 <sheet_refreshsub>
  282056:	83 c4 38             	add    $0x38,%esp
 }
 return;
}
  282059:	8d 65 f4             	lea    -0xc(%ebp),%esp
  28205c:	5b                   	pop    %ebx
  28205d:	5e                   	pop    %esi
  28205e:	5f                   	pop    %edi
  28205f:	5d                   	pop    %ebp
  282060:	c3                   	ret    

00282061 <_SwapInt>:
  282061:	55                   	push   %ebp
  282062:	89 e5                	mov    %esp,%ebp
  282064:	83 ec 10             	sub    $0x10,%esp
  282067:	8b 45 08             	mov    0x8(%ebp),%eax
  28206a:	8b 00                	mov    (%eax),%eax
  28206c:	89 45 fc             	mov    %eax,-0x4(%ebp)
  28206f:	8b 45 0c             	mov    0xc(%ebp),%eax
  282072:	8b 10                	mov    (%eax),%edx
  282074:	8b 45 08             	mov    0x8(%ebp),%eax
  282077:	89 10                	mov    %edx,(%eax)
  282079:	8b 45 0c             	mov    0xc(%ebp),%eax
  28207c:	8b 55 fc             	mov    -0x4(%ebp),%edx
  28207f:	89 10                	mov    %edx,(%eax)
  282081:	c9                   	leave  
  282082:	c3                   	ret    

00282083 <Abs>:
  282083:	55                   	push   %ebp
  282084:	89 e5                	mov    %esp,%ebp
  282086:	8b 45 08             	mov    0x8(%ebp),%eax
  282089:	99                   	cltd   
  28208a:	89 d0                	mov    %edx,%eax
  28208c:	33 45 08             	xor    0x8(%ebp),%eax
  28208f:	29 d0                	sub    %edx,%eax
  282091:	5d                   	pop    %ebp
  282092:	c3                   	ret    

00282093 <GUI_sin>:
  282093:	55                   	push   %ebp
  282094:	89 e5                	mov    %esp,%ebp
  282096:	83 ec 10             	sub    $0x10,%esp
  282099:	c6 45 ff 00          	movb   $0x0,-0x1(%ebp)
  28209d:	81 65 08 ff 0f 00 00 	andl   $0xfff,0x8(%ebp)
  2820a4:	81 7d 08 00 08 00 00 	cmpl   $0x800,0x8(%ebp)
  2820ab:	7e 0b                	jle    2820b8 <GUI_sin+0x25>
  2820ad:	81 6d 08 00 08 00 00 	subl   $0x800,0x8(%ebp)
  2820b4:	c6 45 ff 01          	movb   $0x1,-0x1(%ebp)
  2820b8:	81 7d 08 00 04 00 00 	cmpl   $0x400,0x8(%ebp)
  2820bf:	7e 0b                	jle    2820cc <GUI_sin+0x39>
  2820c1:	b8 00 08 00 00       	mov    $0x800,%eax
  2820c6:	2b 45 08             	sub    0x8(%ebp),%eax
  2820c9:	89 45 08             	mov    %eax,0x8(%ebp)
  2820cc:	8b 45 08             	mov    0x8(%ebp),%eax
  2820cf:	c1 f8 06             	sar    $0x6,%eax
  2820d2:	89 45 f4             	mov    %eax,-0xc(%ebp)
  2820d5:	8b 45 08             	mov    0x8(%ebp),%eax
  2820d8:	83 e0 3f             	and    $0x3f,%eax
  2820db:	89 c2                	mov    %eax,%edx
  2820dd:	b8 40 00 00 00       	mov    $0x40,%eax
  2820e2:	29 d0                	sub    %edx,%eax
  2820e4:	66 89 45 f2          	mov    %ax,-0xe(%ebp)
  2820e8:	8b 45 f4             	mov    -0xc(%ebp),%eax
  2820eb:	0f b7 84 00 40 80 28 	movzwl 0x288040(%eax,%eax,1),%eax
  2820f2:	00 
  2820f3:	0f b7 d0             	movzwl %ax,%edx
  2820f6:	0f b7 45 f2          	movzwl -0xe(%ebp),%eax
  2820fa:	0f af c2             	imul   %edx,%eax
  2820fd:	89 45 f8             	mov    %eax,-0x8(%ebp)
  282100:	66 83 7d f2 40       	cmpw   $0x40,-0xe(%ebp)
  282105:	74 24                	je     28212b <GUI_sin+0x98>
  282107:	8b 45 f4             	mov    -0xc(%ebp),%eax
  28210a:	83 c0 01             	add    $0x1,%eax
  28210d:	0f b7 84 00 40 80 28 	movzwl 0x288040(%eax,%eax,1),%eax
  282114:	00 
  282115:	0f b7 c0             	movzwl %ax,%eax
  282118:	0f b7 55 f2          	movzwl -0xe(%ebp),%edx
  28211c:	b9 40 00 00 00       	mov    $0x40,%ecx
  282121:	29 d1                	sub    %edx,%ecx
  282123:	89 ca                	mov    %ecx,%edx
  282125:	0f af c2             	imul   %edx,%eax
  282128:	01 45 f8             	add    %eax,-0x8(%ebp)
  28212b:	8b 45 f8             	mov    -0x8(%ebp),%eax
  28212e:	83 c0 20             	add    $0x20,%eax
  282131:	c1 e8 06             	shr    $0x6,%eax
  282134:	89 45 f8             	mov    %eax,-0x8(%ebp)
  282137:	80 7d ff 00          	cmpb   $0x0,-0x1(%ebp)
  28213b:	74 07                	je     282144 <GUI_sin+0xb1>
  28213d:	8b 45 f8             	mov    -0x8(%ebp),%eax
  282140:	f7 d8                	neg    %eax
  282142:	eb 03                	jmp    282147 <GUI_sin+0xb4>
  282144:	8b 45 f8             	mov    -0x8(%ebp),%eax
  282147:	c9                   	leave  
  282148:	c3                   	ret    

00282149 <GUI_cos>:
  282149:	55                   	push   %ebp
  28214a:	89 e5                	mov    %esp,%ebp
  28214c:	83 ec 04             	sub    $0x4,%esp
  28214f:	8b 45 08             	mov    0x8(%ebp),%eax
  282152:	05 00 04 00 00       	add    $0x400,%eax
  282157:	89 04 24             	mov    %eax,(%esp)
  28215a:	e8 34 ff ff ff       	call   282093 <GUI_sin>
  28215f:	c9                   	leave  
  282160:	c3                   	ret    

00282161 <_atan0_45>:
  282161:	55                   	push   %ebp
  282162:	89 e5                	mov    %esp,%ebp
  282164:	83 ec 10             	sub    $0x10,%esp
  282167:	c1 7d 08 02          	sarl   $0x2,0x8(%ebp)
  28216b:	8b 45 08             	mov    0x8(%ebp),%eax
  28216e:	c1 f8 04             	sar    $0x4,%eax
  282171:	89 45 f8             	mov    %eax,-0x8(%ebp)
  282174:	8b 45 08             	mov    0x8(%ebp),%eax
  282177:	83 e0 0f             	and    $0xf,%eax
  28217a:	89 c2                	mov    %eax,%edx
  28217c:	b8 10 00 00 00       	mov    $0x10,%eax
  282181:	29 d0                	sub    %edx,%eax
  282183:	89 45 f4             	mov    %eax,-0xc(%ebp)
  282186:	8b 45 f8             	mov    -0x8(%ebp),%eax
  282189:	0f b7 84 00 80 80 28 	movzwl 0x288080(%eax,%eax,1),%eax
  282190:	00 
  282191:	98                   	cwtl   
  282192:	0f af 45 f4          	imul   -0xc(%ebp),%eax
  282196:	89 45 fc             	mov    %eax,-0x4(%ebp)
  282199:	83 7d f4 10          	cmpl   $0x10,-0xc(%ebp)
  28219d:	74 1f                	je     2821be <_atan0_45+0x5d>
  28219f:	8b 45 f8             	mov    -0x8(%ebp),%eax
  2821a2:	83 c0 01             	add    $0x1,%eax
  2821a5:	0f b7 84 00 80 80 28 	movzwl 0x288080(%eax,%eax,1),%eax
  2821ac:	00 
  2821ad:	0f bf d0             	movswl %ax,%edx
  2821b0:	b8 10 00 00 00       	mov    $0x10,%eax
  2821b5:	2b 45 f4             	sub    -0xc(%ebp),%eax
  2821b8:	0f af c2             	imul   %edx,%eax
  2821bb:	01 45 fc             	add    %eax,-0x4(%ebp)
  2821be:	8b 45 fc             	mov    -0x4(%ebp),%eax
  2821c1:	83 c0 08             	add    $0x8,%eax
  2821c4:	8d 50 0f             	lea    0xf(%eax),%edx
  2821c7:	85 c0                	test   %eax,%eax
  2821c9:	0f 48 c2             	cmovs  %edx,%eax
  2821cc:	c1 f8 04             	sar    $0x4,%eax
  2821cf:	89 45 fc             	mov    %eax,-0x4(%ebp)
  2821d2:	8b 45 fc             	mov    -0x4(%ebp),%eax
  2821d5:	c9                   	leave  
  2821d6:	c3                   	ret    

002821d7 <_atan2>:
  2821d7:	55                   	push   %ebp
  2821d8:	89 e5                	mov    %esp,%ebp
  2821da:	83 ec 14             	sub    $0x14,%esp
  2821dd:	c6 45 ff 00          	movb   $0x0,-0x1(%ebp)
  2821e1:	83 7d 08 00          	cmpl   $0x0,0x8(%ebp)
  2821e5:	79 07                	jns    2821ee <_atan2+0x17>
  2821e7:	c6 45 ff 01          	movb   $0x1,-0x1(%ebp)
  2821eb:	f7 5d 08             	negl   0x8(%ebp)
  2821ee:	83 7d 0c 00          	cmpl   $0x0,0xc(%ebp)
  2821f2:	79 07                	jns    2821fb <_atan2+0x24>
  2821f4:	80 4d ff 02          	orb    $0x2,-0x1(%ebp)
  2821f8:	f7 5d 0c             	negl   0xc(%ebp)
  2821fb:	8b 45 0c             	mov    0xc(%ebp),%eax
  2821fe:	3b 45 08             	cmp    0x8(%ebp),%eax
  282201:	7e 16                	jle    282219 <_atan2+0x42>
  282203:	8b 45 0c             	mov    0xc(%ebp),%eax
  282206:	89 45 f4             	mov    %eax,-0xc(%ebp)
  282209:	8b 45 08             	mov    0x8(%ebp),%eax
  28220c:	89 45 0c             	mov    %eax,0xc(%ebp)
  28220f:	8b 45 f4             	mov    -0xc(%ebp),%eax
  282212:	89 45 08             	mov    %eax,0x8(%ebp)
  282215:	80 4d ff 04          	orb    $0x4,-0x1(%ebp)
  282219:	c1 65 0c 0a          	shll   $0xa,0xc(%ebp)
  28221d:	8b 45 08             	mov    0x8(%ebp),%eax
  282220:	89 c2                	mov    %eax,%edx
  282222:	c1 ea 1f             	shr    $0x1f,%edx
  282225:	01 d0                	add    %edx,%eax
  282227:	d1 f8                	sar    %eax
  282229:	01 45 0c             	add    %eax,0xc(%ebp)
  28222c:	8b 45 0c             	mov    0xc(%ebp),%eax
  28222f:	99                   	cltd   
  282230:	f7 7d 08             	idivl  0x8(%ebp)
  282233:	89 45 0c             	mov    %eax,0xc(%ebp)
  282236:	8b 45 0c             	mov    0xc(%ebp),%eax
  282239:	89 04 24             	mov    %eax,(%esp)
  28223c:	e8 20 ff ff ff       	call   282161 <_atan0_45>
  282241:	89 45 f8             	mov    %eax,-0x8(%ebp)
  282244:	0f b6 45 ff          	movzbl -0x1(%ebp),%eax
  282248:	83 e0 04             	and    $0x4,%eax
  28224b:	85 c0                	test   %eax,%eax
  28224d:	74 0b                	je     28225a <_atan2+0x83>
  28224f:	b8 00 04 00 00       	mov    $0x400,%eax
  282254:	2b 45 f8             	sub    -0x8(%ebp),%eax
  282257:	89 45 f8             	mov    %eax,-0x8(%ebp)
  28225a:	0f b6 45 ff          	movzbl -0x1(%ebp),%eax
  28225e:	83 e0 01             	and    $0x1,%eax
  282261:	85 c0                	test   %eax,%eax
  282263:	74 0b                	je     282270 <_atan2+0x99>
  282265:	b8 00 08 00 00       	mov    $0x800,%eax
  28226a:	2b 45 f8             	sub    -0x8(%ebp),%eax
  28226d:	89 45 f8             	mov    %eax,-0x8(%ebp)
  282270:	0f b6 45 ff          	movzbl -0x1(%ebp),%eax
  282274:	83 e0 02             	and    $0x2,%eax
  282277:	85 c0                	test   %eax,%eax
  282279:	74 0b                	je     282286 <_atan2+0xaf>
  28227b:	b8 00 10 00 00       	mov    $0x1000,%eax
  282280:	2b 45 f8             	sub    -0x8(%ebp),%eax
  282283:	89 45 f8             	mov    %eax,-0x8(%ebp)
  282286:	8b 45 f8             	mov    -0x8(%ebp),%eax
  282289:	c9                   	leave  
  28228a:	c3                   	ret    

0028228b <_SetLineColor>:
  28228b:	55                   	push   %ebp
  28228c:	89 e5                	mov    %esp,%ebp
  28228e:	0f b6 05 f6 a6 28 00 	movzbl 0x28a6f6,%eax
  282295:	0f b6 c0             	movzbl %al,%eax
  282298:	83 f8 02             	cmp    $0x2,%eax
  28229b:	74 4b                	je     2822e8 <_SetLineColor+0x5d>
  28229d:	83 f8 02             	cmp    $0x2,%eax
  2822a0:	7f 0a                	jg     2822ac <_SetLineColor+0x21>
  2822a2:	83 f8 01             	cmp    $0x1,%eax
  2822a5:	74 18                	je     2822bf <_SetLineColor+0x34>
  2822a7:	e9 0a 01 00 00       	jmp    2823b6 <_SetLineColor+0x12b>
  2822ac:	83 f8 03             	cmp    $0x3,%eax
  2822af:	74 57                	je     282308 <_SetLineColor+0x7d>
  2822b1:	83 f8 04             	cmp    $0x4,%eax
  2822b4:	0f 84 9c 00 00 00    	je     282356 <_SetLineColor+0xcb>
  2822ba:	e9 f7 00 00 00       	jmp    2823b6 <_SetLineColor+0x12b>
  2822bf:	8b 45 08             	mov    0x8(%ebp),%eax
  2822c2:	8d 50 06             	lea    0x6(%eax),%edx
  2822c5:	89 d0                	mov    %edx,%eax
  2822c7:	c1 f8 1f             	sar    $0x1f,%eax
  2822ca:	c1 e8 1c             	shr    $0x1c,%eax
  2822cd:	01 c2                	add    %eax,%edx
  2822cf:	83 e2 0f             	and    $0xf,%edx
  2822d2:	29 c2                	sub    %eax,%edx
  2822d4:	89 d0                	mov    %edx,%eax
  2822d6:	89 45 08             	mov    %eax,0x8(%ebp)
  2822d9:	83 7d 08 0b          	cmpl   $0xb,0x8(%ebp)
  2822dd:	0f 9e c0             	setle  %al
  2822e0:	0f b6 c0             	movzbl %al,%eax
  2822e3:	e9 d3 00 00 00       	jmp    2823bb <_SetLineColor+0x130>
  2822e8:	8b 45 08             	mov    0x8(%ebp),%eax
  2822eb:	99                   	cltd   
  2822ec:	c1 ea 1e             	shr    $0x1e,%edx
  2822ef:	01 d0                	add    %edx,%eax
  2822f1:	83 e0 03             	and    $0x3,%eax
  2822f4:	29 d0                	sub    %edx,%eax
  2822f6:	89 45 08             	mov    %eax,0x8(%ebp)
  2822f9:	83 7d 08 01          	cmpl   $0x1,0x8(%ebp)
  2822fd:	0f 9e c0             	setle  %al
  282300:	0f b6 c0             	movzbl %al,%eax
  282303:	e9 b3 00 00 00       	jmp    2823bb <_SetLineColor+0x130>
  282308:	8b 4d 08             	mov    0x8(%ebp),%ecx
  28230b:	ba 67 66 66 66       	mov    $0x66666667,%edx
  282310:	89 c8                	mov    %ecx,%eax
  282312:	f7 ea                	imul   %edx
  282314:	c1 fa 03             	sar    $0x3,%edx
  282317:	89 c8                	mov    %ecx,%eax
  282319:	c1 f8 1f             	sar    $0x1f,%eax
  28231c:	29 c2                	sub    %eax,%edx
  28231e:	89 d0                	mov    %edx,%eax
  282320:	c1 e0 02             	shl    $0x2,%eax
  282323:	01 d0                	add    %edx,%eax
  282325:	c1 e0 02             	shl    $0x2,%eax
  282328:	29 c1                	sub    %eax,%ecx
  28232a:	89 c8                	mov    %ecx,%eax
  28232c:	89 45 08             	mov    %eax,0x8(%ebp)
  28232f:	83 7d 08 0b          	cmpl   $0xb,0x8(%ebp)
  282333:	7f 07                	jg     28233c <_SetLineColor+0xb1>
  282335:	b8 01 00 00 00       	mov    $0x1,%eax
  28233a:	eb 7f                	jmp    2823bb <_SetLineColor+0x130>
  28233c:	83 7d 08 0f          	cmpl   $0xf,0x8(%ebp)
  282340:	7e 0d                	jle    28234f <_SetLineColor+0xc4>
  282342:	83 7d 08 11          	cmpl   $0x11,0x8(%ebp)
  282346:	7f 07                	jg     28234f <_SetLineColor+0xc4>
  282348:	b8 01 00 00 00       	mov    $0x1,%eax
  28234d:	eb 6c                	jmp    2823bb <_SetLineColor+0x130>
  28234f:	b8 00 00 00 00       	mov    $0x0,%eax
  282354:	eb 65                	jmp    2823bb <_SetLineColor+0x130>
  282356:	8b 4d 08             	mov    0x8(%ebp),%ecx
  282359:	ba ab aa aa 2a       	mov    $0x2aaaaaab,%edx
  28235e:	89 c8                	mov    %ecx,%eax
  282360:	f7 ea                	imul   %edx
  282362:	c1 fa 02             	sar    $0x2,%edx
  282365:	89 c8                	mov    %ecx,%eax
  282367:	c1 f8 1f             	sar    $0x1f,%eax
  28236a:	29 c2                	sub    %eax,%edx
  28236c:	89 d0                	mov    %edx,%eax
  28236e:	01 c0                	add    %eax,%eax
  282370:	01 d0                	add    %edx,%eax
  282372:	c1 e0 03             	shl    $0x3,%eax
  282375:	29 c1                	sub    %eax,%ecx
  282377:	89 c8                	mov    %ecx,%eax
  282379:	89 45 08             	mov    %eax,0x8(%ebp)
  28237c:	83 7d 08 0b          	cmpl   $0xb,0x8(%ebp)
  282380:	7f 07                	jg     282389 <_SetLineColor+0xfe>
  282382:	b8 01 00 00 00       	mov    $0x1,%eax
  282387:	eb 32                	jmp    2823bb <_SetLineColor+0x130>
  282389:	83 7d 08 0f          	cmpl   $0xf,0x8(%ebp)
  28238d:	7e 0d                	jle    28239c <_SetLineColor+0x111>
  28238f:	83 7d 08 11          	cmpl   $0x11,0x8(%ebp)
  282393:	7f 07                	jg     28239c <_SetLineColor+0x111>
  282395:	b8 01 00 00 00       	mov    $0x1,%eax
  28239a:	eb 1f                	jmp    2823bb <_SetLineColor+0x130>
  28239c:	83 7d 08 13          	cmpl   $0x13,0x8(%ebp)
  2823a0:	7e 0d                	jle    2823af <_SetLineColor+0x124>
  2823a2:	83 7d 08 15          	cmpl   $0x15,0x8(%ebp)
  2823a6:	7f 07                	jg     2823af <_SetLineColor+0x124>
  2823a8:	b8 01 00 00 00       	mov    $0x1,%eax
  2823ad:	eb 0c                	jmp    2823bb <_SetLineColor+0x130>
  2823af:	b8 00 00 00 00       	mov    $0x0,%eax
  2823b4:	eb 05                	jmp    2823bb <_SetLineColor+0x130>
  2823b6:	b8 00 00 00 00       	mov    $0x0,%eax
  2823bb:	5d                   	pop    %ebp
  2823bc:	c3                   	ret    

002823bd <_CalcOrto>:
  2823bd:	55                   	push   %ebp
  2823be:	89 e5                	mov    %esp,%ebp
  2823c0:	83 ec 18             	sub    $0x18,%esp
  2823c3:	8b 45 0c             	mov    0xc(%ebp),%eax
  2823c6:	89 44 24 04          	mov    %eax,0x4(%esp)
  2823ca:	8b 45 08             	mov    0x8(%ebp),%eax
  2823cd:	89 04 24             	mov    %eax,(%esp)
  2823d0:	e8 02 fe ff ff       	call   2821d7 <_atan2>
  2823d5:	89 45 fc             	mov    %eax,-0x4(%ebp)
  2823d8:	81 45 fc 00 04 00 00 	addl   $0x400,-0x4(%ebp)
  2823df:	8b 45 fc             	mov    -0x4(%ebp),%eax
  2823e2:	89 04 24             	mov    %eax,(%esp)
  2823e5:	e8 5f fd ff ff       	call   282149 <GUI_cos>
  2823ea:	0f af 45 10          	imul   0x10(%ebp),%eax
  2823ee:	89 45 f8             	mov    %eax,-0x8(%ebp)
  2823f1:	8b 45 fc             	mov    -0x4(%ebp),%eax
  2823f4:	89 04 24             	mov    %eax,(%esp)
  2823f7:	e8 97 fc ff ff       	call   282093 <GUI_sin>
  2823fc:	0f af 45 10          	imul   0x10(%ebp),%eax
  282400:	89 45 f4             	mov    %eax,-0xc(%ebp)
  282403:	83 7d f8 00          	cmpl   $0x0,-0x8(%ebp)
  282407:	79 0f                	jns    282418 <_CalcOrto+0x5b>
  282409:	b8 00 02 00 00       	mov    $0x200,%eax
  28240e:	2b 45 f8             	sub    -0x8(%ebp),%eax
  282411:	c1 f8 0a             	sar    $0xa,%eax
  282414:	f7 d8                	neg    %eax
  282416:	eb 0b                	jmp    282423 <_CalcOrto+0x66>
  282418:	8b 45 f8             	mov    -0x8(%ebp),%eax
  28241b:	05 00 02 00 00       	add    $0x200,%eax
  282420:	c1 f8 0a             	sar    $0xa,%eax
  282423:	89 45 f8             	mov    %eax,-0x8(%ebp)
  282426:	83 7d f4 00          	cmpl   $0x0,-0xc(%ebp)
  28242a:	79 0f                	jns    28243b <_CalcOrto+0x7e>
  28242c:	b8 00 02 00 00       	mov    $0x200,%eax
  282431:	2b 45 f4             	sub    -0xc(%ebp),%eax
  282434:	c1 f8 0a             	sar    $0xa,%eax
  282437:	f7 d8                	neg    %eax
  282439:	eb 0b                	jmp    282446 <_CalcOrto+0x89>
  28243b:	8b 45 f4             	mov    -0xc(%ebp),%eax
  28243e:	05 00 02 00 00       	add    $0x200,%eax
  282443:	c1 f8 0a             	sar    $0xa,%eax
  282446:	89 45 f4             	mov    %eax,-0xc(%ebp)
  282449:	8b 45 14             	mov    0x14(%ebp),%eax
  28244c:	8b 55 f8             	mov    -0x8(%ebp),%edx
  28244f:	89 10                	mov    %edx,(%eax)
  282451:	8b 45 18             	mov    0x18(%ebp),%eax
  282454:	8b 55 f4             	mov    -0xc(%ebp),%edx
  282457:	89 10                	mov    %edx,(%eax)
  282459:	c9                   	leave  
  28245a:	c3                   	ret    

0028245b <_DrawLineEnd>:
  28245b:	55                   	push   %ebp
  28245c:	89 e5                	mov    %esp,%ebp
  28245e:	83 ec 18             	sub    $0x18,%esp
  282461:	0f b6 05 f5 a6 28 00 	movzbl 0x28a6f5,%eax
  282468:	0f b6 c0             	movzbl %al,%eax
  28246b:	85 c0                	test   %eax,%eax
  28246d:	74 05                	je     282474 <_DrawLineEnd+0x19>
  28246f:	83 f8 01             	cmp    $0x1,%eax
  282472:	eb 13                	jmp    282487 <_DrawLineEnd+0x2c>
  282474:	8b 45 0c             	mov    0xc(%ebp),%eax
  282477:	89 44 24 04          	mov    %eax,0x4(%esp)
  28247b:	8b 45 08             	mov    0x8(%ebp),%eax
  28247e:	89 04 24             	mov    %eax,(%esp)
  282481:	e8 2b 07 00 00       	call   282bb1 <GL_DrawPoint>
  282486:	90                   	nop
  282487:	c9                   	leave  
  282488:	c3                   	ret    

00282489 <GL_DrawLine>:
  282489:	55                   	push   %ebp
  28248a:	89 e5                	mov    %esp,%ebp
  28248c:	53                   	push   %ebx
  28248d:	83 ec 54             	sub    $0x54,%esp
  282490:	0f b6 05 f4 a6 28 00 	movzbl 0x28a6f4,%eax
  282497:	3c 01                	cmp    $0x1,%al
  282499:	75 25                	jne    2824c0 <GL_DrawLine+0x37>
  28249b:	8b 45 14             	mov    0x14(%ebp),%eax
  28249e:	89 44 24 0c          	mov    %eax,0xc(%esp)
  2824a2:	8b 45 10             	mov    0x10(%ebp),%eax
  2824a5:	89 44 24 08          	mov    %eax,0x8(%esp)
  2824a9:	8b 45 0c             	mov    0xc(%ebp),%eax
  2824ac:	89 44 24 04          	mov    %eax,0x4(%esp)
  2824b0:	8b 45 08             	mov    0x8(%ebp),%eax
  2824b3:	89 04 24             	mov    %eax,(%esp)
  2824b6:	e8 f7 04 00 00       	call   2829b2 <GL_DrawLine1>
  2824bb:	e9 bc 01 00 00       	jmp    28267c <GL_DrawLine+0x1f3>
  2824c0:	8b 45 10             	mov    0x10(%ebp),%eax
  2824c3:	8b 55 08             	mov    0x8(%ebp),%edx
  2824c6:	29 c2                	sub    %eax,%edx
  2824c8:	89 d0                	mov    %edx,%eax
  2824ca:	89 45 e4             	mov    %eax,-0x1c(%ebp)
  2824cd:	8b 45 14             	mov    0x14(%ebp),%eax
  2824d0:	8b 55 0c             	mov    0xc(%ebp),%edx
  2824d3:	29 c2                	sub    %eax,%edx
  2824d5:	89 d0                	mov    %edx,%eax
  2824d7:	89 45 e0             	mov    %eax,-0x20(%ebp)
  2824da:	8b 45 e0             	mov    -0x20(%ebp),%eax
  2824dd:	8b 55 e4             	mov    -0x1c(%ebp),%edx
  2824e0:	09 d0                	or     %edx,%eax
  2824e2:	85 c0                	test   %eax,%eax
  2824e4:	0f 84 92 01 00 00    	je     28267c <GL_DrawLine+0x1f3>
  2824ea:	0f b6 05 f4 a6 28 00 	movzbl 0x28a6f4,%eax
  2824f1:	0f b6 c0             	movzbl %al,%eax
  2824f4:	8d 58 ff             	lea    -0x1(%eax),%ebx
  2824f7:	8b 45 14             	mov    0x14(%ebp),%eax
  2824fa:	8b 55 0c             	mov    0xc(%ebp),%edx
  2824fd:	89 d1                	mov    %edx,%ecx
  2824ff:	29 c1                	sub    %eax,%ecx
  282501:	8b 45 10             	mov    0x10(%ebp),%eax
  282504:	8b 55 08             	mov    0x8(%ebp),%edx
  282507:	29 c2                	sub    %eax,%edx
  282509:	8d 45 c8             	lea    -0x38(%ebp),%eax
  28250c:	89 44 24 10          	mov    %eax,0x10(%esp)
  282510:	8d 45 cc             	lea    -0x34(%ebp),%eax
  282513:	89 44 24 0c          	mov    %eax,0xc(%esp)
  282517:	89 5c 24 08          	mov    %ebx,0x8(%esp)
  28251b:	89 4c 24 04          	mov    %ecx,0x4(%esp)
  28251f:	89 14 24             	mov    %edx,(%esp)
  282522:	e8 96 fe ff ff       	call   2823bd <_CalcOrto>
  282527:	8b 45 cc             	mov    -0x34(%ebp),%eax
  28252a:	85 c0                	test   %eax,%eax
  28252c:	7e 23                	jle    282551 <GL_DrawLine+0xc8>
  28252e:	8b 45 cc             	mov    -0x34(%ebp),%eax
  282531:	83 c0 01             	add    $0x1,%eax
  282534:	89 c2                	mov    %eax,%edx
  282536:	c1 ea 1f             	shr    $0x1f,%edx
  282539:	01 d0                	add    %edx,%eax
  28253b:	d1 f8                	sar    %eax
  28253d:	89 45 f4             	mov    %eax,-0xc(%ebp)
  282540:	8b 45 cc             	mov    -0x34(%ebp),%eax
  282543:	89 c2                	mov    %eax,%edx
  282545:	c1 ea 1f             	shr    $0x1f,%edx
  282548:	01 d0                	add    %edx,%eax
  28254a:	d1 f8                	sar    %eax
  28254c:	89 45 ec             	mov    %eax,-0x14(%ebp)
  28254f:	eb 21                	jmp    282572 <GL_DrawLine+0xe9>
  282551:	8b 45 cc             	mov    -0x34(%ebp),%eax
  282554:	89 c2                	mov    %eax,%edx
  282556:	c1 ea 1f             	shr    $0x1f,%edx
  282559:	01 d0                	add    %edx,%eax
  28255b:	d1 f8                	sar    %eax
  28255d:	89 45 f4             	mov    %eax,-0xc(%ebp)
  282560:	8b 45 cc             	mov    -0x34(%ebp),%eax
  282563:	83 e8 01             	sub    $0x1,%eax
  282566:	89 c2                	mov    %eax,%edx
  282568:	c1 ea 1f             	shr    $0x1f,%edx
  28256b:	01 d0                	add    %edx,%eax
  28256d:	d1 f8                	sar    %eax
  28256f:	89 45 ec             	mov    %eax,-0x14(%ebp)
  282572:	8b 45 c8             	mov    -0x38(%ebp),%eax
  282575:	85 c0                	test   %eax,%eax
  282577:	7e 23                	jle    28259c <GL_DrawLine+0x113>
  282579:	8b 45 c8             	mov    -0x38(%ebp),%eax
  28257c:	83 c0 01             	add    $0x1,%eax
  28257f:	89 c2                	mov    %eax,%edx
  282581:	c1 ea 1f             	shr    $0x1f,%edx
  282584:	01 d0                	add    %edx,%eax
  282586:	d1 f8                	sar    %eax
  282588:	89 45 f0             	mov    %eax,-0x10(%ebp)
  28258b:	8b 45 c8             	mov    -0x38(%ebp),%eax
  28258e:	89 c2                	mov    %eax,%edx
  282590:	c1 ea 1f             	shr    $0x1f,%edx
  282593:	01 d0                	add    %edx,%eax
  282595:	d1 f8                	sar    %eax
  282597:	89 45 e8             	mov    %eax,-0x18(%ebp)
  28259a:	eb 21                	jmp    2825bd <GL_DrawLine+0x134>
  28259c:	8b 45 c8             	mov    -0x38(%ebp),%eax
  28259f:	89 c2                	mov    %eax,%edx
  2825a1:	c1 ea 1f             	shr    $0x1f,%edx
  2825a4:	01 d0                	add    %edx,%eax
  2825a6:	d1 f8                	sar    %eax
  2825a8:	89 45 f0             	mov    %eax,-0x10(%ebp)
  2825ab:	8b 45 c8             	mov    -0x38(%ebp),%eax
  2825ae:	83 e8 01             	sub    $0x1,%eax
  2825b1:	89 c2                	mov    %eax,%edx
  2825b3:	c1 ea 1f             	shr    $0x1f,%edx
  2825b6:	01 d0                	add    %edx,%eax
  2825b8:	d1 f8                	sar    %eax
  2825ba:	89 45 e8             	mov    %eax,-0x18(%ebp)
  2825bd:	8b 45 08             	mov    0x8(%ebp),%eax
  2825c0:	89 c2                	mov    %eax,%edx
  2825c2:	8b 45 f4             	mov    -0xc(%ebp),%eax
  2825c5:	01 d0                	add    %edx,%eax
  2825c7:	66 89 45 d0          	mov    %ax,-0x30(%ebp)
  2825cb:	8b 45 0c             	mov    0xc(%ebp),%eax
  2825ce:	89 c2                	mov    %eax,%edx
  2825d0:	8b 45 f0             	mov    -0x10(%ebp),%eax
  2825d3:	01 d0                	add    %edx,%eax
  2825d5:	66 89 45 d2          	mov    %ax,-0x2e(%ebp)
  2825d9:	8b 45 08             	mov    0x8(%ebp),%eax
  2825dc:	89 c2                	mov    %eax,%edx
  2825de:	8b 45 ec             	mov    -0x14(%ebp),%eax
  2825e1:	29 c2                	sub    %eax,%edx
  2825e3:	89 d0                	mov    %edx,%eax
  2825e5:	66 89 45 d4          	mov    %ax,-0x2c(%ebp)
  2825e9:	8b 45 0c             	mov    0xc(%ebp),%eax
  2825ec:	89 c2                	mov    %eax,%edx
  2825ee:	8b 45 e8             	mov    -0x18(%ebp),%eax
  2825f1:	29 c2                	sub    %eax,%edx
  2825f3:	89 d0                	mov    %edx,%eax
  2825f5:	66 89 45 d6          	mov    %ax,-0x2a(%ebp)
  2825f9:	8b 45 10             	mov    0x10(%ebp),%eax
  2825fc:	89 c2                	mov    %eax,%edx
  2825fe:	8b 45 ec             	mov    -0x14(%ebp),%eax
  282601:	29 c2                	sub    %eax,%edx
  282603:	89 d0                	mov    %edx,%eax
  282605:	66 89 45 d8          	mov    %ax,-0x28(%ebp)
  282609:	8b 45 14             	mov    0x14(%ebp),%eax
  28260c:	89 c2                	mov    %eax,%edx
  28260e:	8b 45 e8             	mov    -0x18(%ebp),%eax
  282611:	29 c2                	sub    %eax,%edx
  282613:	89 d0                	mov    %edx,%eax
  282615:	66 89 45 da          	mov    %ax,-0x26(%ebp)
  282619:	8b 45 10             	mov    0x10(%ebp),%eax
  28261c:	89 c2                	mov    %eax,%edx
  28261e:	8b 45 f4             	mov    -0xc(%ebp),%eax
  282621:	01 d0                	add    %edx,%eax
  282623:	66 89 45 dc          	mov    %ax,-0x24(%ebp)
  282627:	8b 45 14             	mov    0x14(%ebp),%eax
  28262a:	89 c2                	mov    %eax,%edx
  28262c:	8b 45 f0             	mov    -0x10(%ebp),%eax
  28262f:	01 d0                	add    %edx,%eax
  282631:	66 89 45 de          	mov    %ax,-0x22(%ebp)
  282635:	c7 44 24 0c 00 00 00 	movl   $0x0,0xc(%esp)
  28263c:	00 
  28263d:	c7 44 24 08 00 00 00 	movl   $0x0,0x8(%esp)
  282644:	00 
  282645:	c7 44 24 04 04 00 00 	movl   $0x4,0x4(%esp)
  28264c:	00 
  28264d:	8d 45 d0             	lea    -0x30(%ebp),%eax
  282650:	89 04 24             	mov    %eax,(%esp)
  282653:	e8 44 14 00 00       	call   283a9c <GL_FillPolygon>
  282658:	8b 45 0c             	mov    0xc(%ebp),%eax
  28265b:	89 44 24 04          	mov    %eax,0x4(%esp)
  28265f:	8b 45 08             	mov    0x8(%ebp),%eax
  282662:	89 04 24             	mov    %eax,(%esp)
  282665:	e8 f1 fd ff ff       	call   28245b <_DrawLineEnd>
  28266a:	8b 45 14             	mov    0x14(%ebp),%eax
  28266d:	89 44 24 04          	mov    %eax,0x4(%esp)
  282671:	8b 45 10             	mov    0x10(%ebp),%eax
  282674:	89 04 24             	mov    %eax,(%esp)
  282677:	e8 df fd ff ff       	call   28245b <_DrawLineEnd>
  28267c:	83 c4 54             	add    $0x54,%esp
  28267f:	5b                   	pop    %ebx
  282680:	5d                   	pop    %ebp
  282681:	c3                   	ret    

