
ckernel.out:     file format elf32-i386


Disassembly of section .text:

00280000 <bootmain>:
#define black 0
#define red   1
#define green 2

void bootmain(void)
{
  280000:	55                   	push   %ebp
  280001:	89 e5                	mov    %esp,%ebp
  280003:	57                   	push   %edi
  280004:	56                   	push   %esi
  280005:	53                   	push   %ebx
  280006:	81 ec 18 02 00 00    	sub    $0x218,%esp

struct boot_info *bootp=(struct boot_info *)ADDR_BOOT;
  clear_screen(40);   	//red
  28000c:	6a 28                	push   $0x28
  28000e:	e8 fd 03 00 00       	call   280410 <clear_screen>
  init_screen((struct boot_info * )bootp);
  280013:	c7 04 24 f0 0f 00 00 	movl   $0xff0,(%esp)
  28001a:	e8 ff 07 00 00       	call   28081e <init_screen>
  init_palette();  //color table from 0 to 15
  28001f:	e8 55 04 00 00       	call   280479 <init_palette>
int mx,my;//mouse position
mx=30;
my=30;
//display mouse logo
char mousepic[16*16];     //mouse logo buffer
init_mouse(mousepic,99);	//7　means background color:white
  280024:	8d 85 e8 fe ff ff    	lea    -0x118(%ebp),%eax
  28002a:	5b                   	pop    %ebx
  28002b:	5e                   	pop    %esi
  28002c:	6a 63                	push   $0x63
  28002e:	50                   	push   %eax
  28002f:	e8 09 08 00 00       	call   28083d <init_mouse>

static __inline void
cli(void)
{

	__asm __volatile("cli");
  280034:	fa                   	cli    
//display_mouse(bootp->vram,bootp->xsize,16,16,mx,my,mousepic,16);
cli();

//set gdt idt
init_gdtidt();
  280035:	e8 06 0c 00 00       	call   280c40 <init_gdtidt>

//remap irq 0-15
init_pic();		//函数中：　irq 1(keyboard)对应设置中断号int0x21,    irq　12(mouse)对应的中断号是int0x2c 要写中断服务程序了。
  28003a:	e8 61 0d 00 00       	call   280da0 <init_pic>
unsigned char s[40];		//sprintf buffer
unsigned char keybuf[32];	//keyfifo
unsigned char mousebuf[128];	//mousefifo
unsigned char data;		//temp variable to get fifo data
int count=0;
fifo8_init(&keyfifo ,32,keybuf);//keyfifo是一个global data defined in int.c
  28003f:	83 c4 0c             	add    $0xc,%esp
  280042:	8d 85 20 fe ff ff    	lea    -0x1e0(%ebp),%eax
  280048:	50                   	push   %eax
  280049:	6a 20                	push   $0x20
  28004b:	68 b8 37 28 00       	push   $0x2837b8
  280050:	e8 56 0e 00 00       	call   280eab <fifo8_init>
fifo8_init(&mousefifo,128,mousebuf);
  280055:	83 c4 0c             	add    $0xc,%esp
  280058:	8d 85 68 fe ff ff    	lea    -0x198(%ebp),%eax
  28005e:	50                   	push   %eax
  28005f:	68 80 00 00 00       	push   $0x80
  280064:	68 d0 37 28 00       	push   $0x2837d0
  280069:	e8 3d 0e 00 00       	call   280eab <fifo8_init>
// out:write a data to a port
static __inline void
outb(int port, uint8_t data)
{
  //data是变量0%0 , port是变量word１%w1
	__asm __volatile("outb %0,%w1" : : "a" (data), "d" (port));
  28006e:	ba 21 00 00 00       	mov    $0x21,%edx
  280073:	b0 f9                	mov    $0xf9,%al
  280075:	ee                   	out    %al,(%dx)
  280076:	b0 ef                	mov    $0xef,%al
  280078:	b2 a1                	mov    $0xa1,%dl
  28007a:	ee                   	out    %al,(%dx)
//enable keyboard and mouse
outb(PIC0_IMR, 0xf9);	//1111 1001  irq 1 2打开 因为keyboard是irq 1 /// enable pic slave and keyboard interrupt
outb(PIC1_IMR, 0xef);	//1110 1111  irq 12打开　mouse是irq 12  所以要把pic 1 pic 2的芯片中断响应位打开。 //enable mouse interrupt

//初始化　鼠标按键控制电路
init_keyboard();
  28007b:	e8 b6 0d 00 00       	call   280e36 <init_keyboard>

static __inline void
sti(void)
{

	__asm __volatile("sti");
  280080:	fb                   	sti    


//day8

struct MOUSE_DEC mdec;
enable_mouse(&mdec); //这里会产生一个mouse interrupt
  280081:	8d 8d 10 fe ff ff    	lea    -0x1f0(%ebp),%ecx
  280087:	89 0c 24             	mov    %ecx,(%esp)
  28008a:	89 8d fc fd ff ff    	mov    %ecx,-0x204(%ebp)
  280090:	e8 c2 0e 00 00       	call   280f57 <enable_mouse>

unsigned int memtotal;
memtotal=memtest(0x400000,0xffffffff);
  280095:	5f                   	pop    %edi
  280096:	58                   	pop    %eax
  280097:	6a ff                	push   $0xffffffff
  280099:	68 00 00 40 00       	push   $0x400000
  28009e:	e8 a5 0f 00 00       	call   281048 <memtest>
//mem=mem>>20;
//sprintf(s,"memory:%dMbytes",mem);
//puts8((char *)bootp->vram ,bootp->xsize,0,100,0,s);
Memman * memman=(Memman *)0x3c0000;
memman_init(memman);
  2800a3:	c7 04 24 00 00 3c 00 	movl   $0x3c0000,(%esp)

struct MOUSE_DEC mdec;
enable_mouse(&mdec); //这里会产生一个mouse interrupt

unsigned int memtotal;
memtotal=memtest(0x400000,0xffffffff);
  2800aa:	89 c3                	mov    %eax,%ebx
//mem=mem>>20;
//sprintf(s,"memory:%dMbytes",mem);
//puts8((char *)bootp->vram ,bootp->xsize,0,100,0,s);
Memman * memman=(Memman *)0x3c0000;
memman_init(memman);
  2800ac:	e8 e5 0f 00 00       	call   281096 <memman_init>
//memman_free(memman,0x1000,0x9e000);
memman_free(memman,0x400000,memtotal-0x400000);
  2800b1:	83 c4 0c             	add    $0xc,%esp
  2800b4:	8d 83 00 00 c0 ff    	lea    -0x400000(%ebx),%eax
  2800ba:	50                   	push   %eax
  2800bb:	68 00 00 40 00       	push   $0x400000
  2800c0:	68 00 00 3c 00       	push   $0x3c0000
  2800c5:	e8 7e 10 00 00       	call   281148 <memman_free>
//memman_free(memman,0x600000,0x400000);
//memman_free(memman,0xb00000,0x400000);
char *win=(unsigned char*)memman_alloc(memman,320*200);
draw_win_buf(win);
sprintf(s,"memory:%dMB,free:%dMB,%d",memtotal>>20
  2800ca:	c1 eb 14             	shr    $0x14,%ebx
memman_init(memman);
//memman_free(memman,0x1000,0x9e000);
memman_free(memman,0x400000,memtotal-0x400000);
//memman_free(memman,0x600000,0x400000);
//memman_free(memman,0xb00000,0x400000);
char *win=(unsigned char*)memman_alloc(memman,320*200);
  2800cd:	58                   	pop    %eax
  2800ce:	5a                   	pop    %edx
  2800cf:	68 00 fa 00 00       	push   $0xfa00
  2800d4:	68 00 00 3c 00       	push   $0x3c0000
  2800d9:	e8 f6 0f 00 00       	call   2810d4 <memman_alloc>
draw_win_buf(win);
  2800de:	89 04 24             	mov    %eax,(%esp)
memman_init(memman);
//memman_free(memman,0x1000,0x9e000);
memman_free(memman,0x400000,memtotal-0x400000);
//memman_free(memman,0x600000,0x400000);
//memman_free(memman,0xb00000,0x400000);
char *win=(unsigned char*)memman_alloc(memman,320*200);
  2800e1:	89 c6                	mov    %eax,%esi
draw_win_buf(win);
  2800e3:	e8 19 04 00 00       	call   280501 <draw_win_buf>
sprintf(s,"memory:%dMB,free:%dMB,%d",memtotal>>20
  2800e8:	8b 3d 00 00 3c 00    	mov    0x3c0000,%edi
,memman_avail(memman)>>20,memman->cellnum);
  2800ee:	c7 04 24 00 00 3c 00 	movl   $0x3c0000,(%esp)
  2800f5:	e8 bf 0f 00 00       	call   2810b9 <memman_avail>
memman_free(memman,0x400000,memtotal-0x400000);
//memman_free(memman,0x600000,0x400000);
//memman_free(memman,0xb00000,0x400000);
char *win=(unsigned char*)memman_alloc(memman,320*200);
draw_win_buf(win);
sprintf(s,"memory:%dMB,free:%dMB,%d",memtotal>>20
  2800fa:	89 3c 24             	mov    %edi,(%esp)
  2800fd:	c1 e8 14             	shr    $0x14,%eax
  280100:	50                   	push   %eax
  280101:	53                   	push   %ebx
  280102:	68 28 30 28 00       	push   $0x283028
  280107:	8d 85 40 fe ff ff    	lea    -0x1c0(%ebp),%eax
  28010d:	50                   	push   %eax
  28010e:	e8 77 08 00 00       	call   28098a <sprintf>
,memman_avail(memman)>>20,memman->cellnum);
puts8(win ,bootp->xsize,0,100,0,s);
  280113:	83 c4 18             	add    $0x18,%esp
  280116:	8d 85 40 fe ff ff    	lea    -0x1c0(%ebp),%eax
  28011c:	50                   	push   %eax
  28011d:	6a 00                	push   $0x0
  28011f:	6a 64                	push   $0x64
  280121:	6a 00                	push   $0x0
  280123:	0f bf 05 f4 0f 00 00 	movswl 0xff4,%eax
  28012a:	50                   	push   %eax
  28012b:	56                   	push   %esi
  28012c:	e8 54 09 00 00       	call   280a85 <puts8>

SHTCTL *shtctl;
SHEET *sht_back,*sht_mouse;
shtctl=shtctl_init(memman,bootp->vram,bootp->xsize,bootp->ysize);
  280131:	0f bf 05 f6 0f 00 00 	movswl 0xff6,%eax
  280138:	83 c4 20             	add    $0x20,%esp
  28013b:	50                   	push   %eax
  28013c:	0f bf 05 f4 0f 00 00 	movswl 0xff4,%eax
  280143:	50                   	push   %eax
  280144:	ff 35 f8 0f 00 00    	pushl  0xff8
  28014a:	68 00 00 3c 00       	push   $0x3c0000
  28014f:	e8 f7 10 00 00       	call   28124b <shtctl_init>
  280154:	89 c3                	mov    %eax,%ebx
sht_back=sheet_alloc(shtctl);
  280156:	89 04 24             	mov    %eax,(%esp)
  280159:	e8 32 11 00 00       	call   281290 <sheet_alloc>
sht_mouse=sheet_alloc(shtctl);
  28015e:	89 1c 24             	mov    %ebx,(%esp)
puts8(win ,bootp->xsize,0,100,0,s);

SHTCTL *shtctl;
SHEET *sht_back,*sht_mouse;
shtctl=shtctl_init(memman,bootp->vram,bootp->xsize,bootp->ysize);
sht_back=sheet_alloc(shtctl);
  280161:	89 85 00 fe ff ff    	mov    %eax,-0x200(%ebp)
sht_mouse=sheet_alloc(shtctl);
  280167:	e8 24 11 00 00       	call   281290 <sheet_alloc>

sheet_setbuf(sht_back,win,320,200,99);
  28016c:	c7 04 24 63 00 00 00 	movl   $0x63,(%esp)
  280173:	68 c8 00 00 00       	push   $0xc8
  280178:	68 40 01 00 00       	push   $0x140
  28017d:	56                   	push   %esi
  28017e:	ff b5 00 fe ff ff    	pushl  -0x200(%ebp)

SHTCTL *shtctl;
SHEET *sht_back,*sht_mouse;
shtctl=shtctl_init(memman,bootp->vram,bootp->xsize,bootp->ysize);
sht_back=sheet_alloc(shtctl);
sht_mouse=sheet_alloc(shtctl);
  280184:	89 c7                	mov    %eax,%edi
  280186:	89 85 f8 fd ff ff    	mov    %eax,-0x208(%ebp)

sheet_setbuf(sht_back,win,320,200,99);
  28018c:	e8 34 11 00 00       	call   2812c5 <sheet_setbuf>
sheet_setbuf(sht_mouse,mousepic,16,16,99);
  280191:	83 c4 14             	add    $0x14,%esp
  280194:	6a 63                	push   $0x63
  280196:	6a 10                	push   $0x10
  280198:	6a 10                	push   $0x10
  28019a:	8d 85 e8 fe ff ff    	lea    -0x118(%ebp),%eax
  2801a0:	50                   	push   %eax
  2801a1:	57                   	push   %edi
  2801a2:	e8 1e 11 00 00       	call   2812c5 <sheet_setbuf>

sheet_move(shtctl,sht_back,0,0);
  2801a7:	83 c4 20             	add    $0x20,%esp
  2801aa:	6a 00                	push   $0x0
  2801ac:	6a 00                	push   $0x0
  2801ae:	ff b5 00 fe ff ff    	pushl  -0x200(%ebp)
  2801b4:	53                   	push   %ebx
  2801b5:	e8 16 13 00 00       	call   2814d0 <sheet_move>
mx=160;
my=100;
sheet_move(shtctl,sht_mouse,mx,my);
  2801ba:	6a 64                	push   $0x64
  2801bc:	68 a0 00 00 00       	push   $0xa0
  2801c1:	57                   	push   %edi
  2801c2:	53                   	push   %ebx
  2801c3:	e8 08 13 00 00       	call   2814d0 <sheet_move>
sheet_updown(shtctl,sht_back,0);
  2801c8:	83 c4 1c             	add    $0x1c,%esp
  2801cb:	6a 00                	push   $0x0
  2801cd:	ff b5 00 fe ff ff    	pushl  -0x200(%ebp)
  2801d3:	53                   	push   %ebx
  2801d4:	e8 b6 11 00 00       	call   28138f <sheet_updown>
sheet_updown(shtctl,sht_mouse,1);
  2801d9:	83 c4 0c             	add    $0xc,%esp
  2801dc:	6a 01                	push   $0x1
  2801de:	57                   	push   %edi

sheet_setbuf(sht_back,win,320,200,99);
sheet_setbuf(sht_mouse,mousepic,16,16,99);

sheet_move(shtctl,sht_back,0,0);
mx=160;
  2801df:	bf a0 00 00 00       	mov    $0xa0,%edi
my=100;
sheet_move(shtctl,sht_mouse,mx,my);
sheet_updown(shtctl,sht_back,0);
sheet_updown(shtctl,sht_mouse,1);
  2801e4:	53                   	push   %ebx
  2801e5:	e8 a5 11 00 00       	call   28138f <sheet_updown>
sheet_refresh(shtctl);
  2801ea:	89 1c 24             	mov    %ebx,(%esp)
  2801ed:	e8 94 12 00 00       	call   281486 <sheet_refresh>
      }
      else if(fifo8_status(&mousefifo) != 0)//we have mouse interrupt data to process
      {
        data=fifo8_read(&mousefifo);
        sti();
        if(mouse_decode(&mdec,data))
  2801f2:	8b 8d fc fd ff ff    	mov    -0x204(%ebp),%ecx
              {
                case 1:s[1]='L';break;
                case 2:s[3]='R';break;
                case 4:s[2]='M';break;
              }
              sprintf(s,"[lmr:%d %d]",mdec.x,mdec.y);
  2801f8:	8d 85 40 fe ff ff    	lea    -0x1c0(%ebp),%eax
mx=160;
my=100;
sheet_move(shtctl,sht_mouse,mx,my);
sheet_updown(shtctl,sht_back,0);
sheet_updown(shtctl,sht_mouse,1);
sheet_refresh(shtctl);
  2801fe:	83 c4 10             	add    $0x10,%esp
sheet_setbuf(sht_back,win,320,200,99);
sheet_setbuf(sht_mouse,mousepic,16,16,99);

sheet_move(shtctl,sht_back,0,0);
mx=160;
my=100;
  280201:	c7 85 04 fe ff ff 64 	movl   $0x64,-0x1fc(%ebp)
  280208:	00 00 00 
              {
                case 1:s[1]='L';break;
                case 2:s[3]='R';break;
                case 4:s[2]='M';break;
              }
              sprintf(s,"[lmr:%d %d]",mdec.x,mdec.y);
  28020b:	89 85 fc fd ff ff    	mov    %eax,-0x204(%ebp)
      }
      else if(fifo8_status(&mousefifo) != 0)//we have mouse interrupt data to process
      {
        data=fifo8_read(&mousefifo);
        sti();
        if(mouse_decode(&mdec,data))
  280211:	89 8d f0 fd ff ff    	mov    %ecx,-0x210(%ebp)

static __inline void
cli(void)
{

	__asm __volatile("cli");
  280217:	fa                   	cli    

 while(1)
 {
   cli();//disable cpu interrupt

   if(fifo8_status(&keyfifo) +fifo8_status(&mousefifo) == 0)//no data in keyfifo and mousefifo
  280218:	83 ec 0c             	sub    $0xc,%esp
  28021b:	68 b8 37 28 00       	push   $0x2837b8
  280220:	e8 24 0d 00 00       	call   280f49 <fifo8_status>
  280225:	c7 04 24 d0 37 28 00 	movl   $0x2837d0,(%esp)
  28022c:	89 85 f4 fd ff ff    	mov    %eax,-0x20c(%ebp)
  280232:	e8 12 0d 00 00       	call   280f49 <fifo8_status>
  280237:	83 c4 10             	add    $0x10,%esp
  28023a:	03 85 f4 fd ff ff    	add    -0x20c(%ebp),%eax
  280240:	85 c0                	test   %eax,%eax
  280242:	75 04                	jne    280248 <bootmain+0x248>

static __inline void
sti(void)
{

	__asm __volatile("sti");
  280244:	fb                   	sti    

static __inline void
hlt(void)
{

	__asm __volatile("hlt");
  280245:	f4                   	hlt    
  280246:	eb cf                	jmp    280217 <bootmain+0x217>
    sti();
    hlt();
   }
   else
   {
      if(fifo8_status(&keyfifo) != 0)
  280248:	83 ec 0c             	sub    $0xc,%esp
  28024b:	68 b8 37 28 00       	push   $0x2837b8
  280250:	e8 f4 0c 00 00       	call   280f49 <fifo8_status>
  280255:	83 c4 10             	add    $0x10,%esp
  280258:	85 c0                	test   %eax,%eax
  28025a:	74 13                	je     28026f <bootmain+0x26f>
      {
        data=fifo8_read(&keyfifo);
  28025c:	83 ec 0c             	sub    $0xc,%esp
  28025f:	68 b8 37 28 00       	push   $0x2837b8
  280264:	e8 ab 0c 00 00       	call   280f14 <fifo8_read>

static __inline void
sti(void)
{

	__asm __volatile("sti");
  280269:	fb                   	sti    
  28026a:	e9 99 01 00 00       	jmp    280408 <bootmain+0x408>
        sti();
      }
      else if(fifo8_status(&mousefifo) != 0)//we have mouse interrupt data to process
  28026f:	83 ec 0c             	sub    $0xc,%esp
  280272:	68 d0 37 28 00       	push   $0x2837d0
  280277:	e8 cd 0c 00 00       	call   280f49 <fifo8_status>
  28027c:	83 c4 10             	add    $0x10,%esp
  28027f:	85 c0                	test   %eax,%eax
  280281:	74 94                	je     280217 <bootmain+0x217>
      {
        data=fifo8_read(&mousefifo);
  280283:	83 ec 0c             	sub    $0xc,%esp
  280286:	68 d0 37 28 00       	push   $0x2837d0
  28028b:	e8 84 0c 00 00       	call   280f14 <fifo8_read>
  280290:	fb                   	sti    
        sti();
        if(mouse_decode(&mdec,data))
  280291:	5a                   	pop    %edx
  280292:	0f b6 c0             	movzbl %al,%eax
  280295:	59                   	pop    %ecx
  280296:	50                   	push   %eax
  280297:	ff b5 f0 fd ff ff    	pushl  -0x210(%ebp)
  28029d:	e8 de 0c 00 00       	call   280f80 <mouse_decode>
  2802a2:	83 c4 10             	add    $0x10,%esp
  2802a5:	85 c0                	test   %eax,%eax
  2802a7:	0f 84 6a ff ff ff    	je     280217 <bootmain+0x217>
        {
              //3个字节都得到了
              switch (mdec.button)
  2802ad:	8b 85 1c fe ff ff    	mov    -0x1e4(%ebp),%eax
  2802b3:	83 f8 02             	cmp    $0x2,%eax
  2802b6:	74 11                	je     2802c9 <bootmain+0x2c9>
  2802b8:	83 f8 04             	cmp    $0x4,%eax
  2802bb:	74 15                	je     2802d2 <bootmain+0x2d2>
  2802bd:	48                   	dec    %eax
  2802be:	75 19                	jne    2802d9 <bootmain+0x2d9>
              {
                case 1:s[1]='L';break;
  2802c0:	c6 85 41 fe ff ff 4c 	movb   $0x4c,-0x1bf(%ebp)
  2802c7:	eb 10                	jmp    2802d9 <bootmain+0x2d9>
                case 2:s[3]='R';break;
  2802c9:	c6 85 43 fe ff ff 52 	movb   $0x52,-0x1bd(%ebp)
  2802d0:	eb 07                	jmp    2802d9 <bootmain+0x2d9>
                case 4:s[2]='M';break;
  2802d2:	c6 85 42 fe ff ff 4d 	movb   $0x4d,-0x1be(%ebp)
              }
              sprintf(s,"[lmr:%d %d]",mdec.x,mdec.y);
  2802d9:	ff b5 18 fe ff ff    	pushl  -0x1e8(%ebp)
  2802df:	ff b5 14 fe ff ff    	pushl  -0x1ec(%ebp)
  2802e5:	68 41 30 28 00       	push   $0x283041
  2802ea:	ff b5 fc fd ff ff    	pushl  -0x204(%ebp)
  2802f0:	e8 95 06 00 00       	call   28098a <sprintf>
              boxfill8(win,320,0,32,16,32+20*8-1,31);//一个黑色的小box
  2802f5:	83 c4 0c             	add    $0xc,%esp
  2802f8:	6a 1f                	push   $0x1f
  2802fa:	68 bf 00 00 00       	push   $0xbf
  2802ff:	6a 10                	push   $0x10
  280301:	6a 20                	push   $0x20
  280303:	6a 00                	push   $0x0
  280305:	68 40 01 00 00       	push   $0x140
  28030a:	56                   	push   %esi
  28030b:	e8 9a 01 00 00       	call   2804aa <boxfill8>
              puts8(win,bootp->xsize,32,16,7,s);//display e0
  280310:	83 c4 18             	add    $0x18,%esp
  280313:	ff b5 fc fd ff ff    	pushl  -0x204(%ebp)
  280319:	6a 07                	push   $0x7
  28031b:	6a 10                	push   $0x10
  28031d:	6a 20                	push   $0x20
  28031f:	0f bf 05 f4 0f 00 00 	movswl 0xff4,%eax
  280326:	50                   	push   %eax
  280327:	56                   	push   %esi
  280328:	e8 58 07 00 00       	call   280a85 <puts8>
              sheet_refresh(shtctl,sht_back,32,16,32+20*8-1,31);
  28032d:	83 c4 18             	add    $0x18,%esp
  280330:	6a 1f                	push   $0x1f
  280332:	68 bf 00 00 00       	push   $0xbf
  280337:	6a 10                	push   $0x10
  280339:	6a 20                	push   $0x20
  28033b:	ff b5 00 fe ff ff    	pushl  -0x200(%ebp)
  280341:	53                   	push   %ebx
  280342:	e8 3f 11 00 00       	call   281486 <sheet_refresh>
  280347:	83 c4 20             	add    $0x20,%esp
  28034a:	31 c0                	xor    %eax,%eax
  28034c:	89 fa                	mov    %edi,%edx
  28034e:	03 95 14 fe ff ff    	add    -0x1ec(%ebp),%edx
  280354:	0f 48 d0             	cmovs  %eax,%edx
  280357:	89 d7                	mov    %edx,%edi
  280359:	8b 95 04 fe ff ff    	mov    -0x1fc(%ebp),%edx
  28035f:	03 95 18 fe ff ff    	add    -0x1e8(%ebp),%edx
  280365:	0f 49 c2             	cmovns %edx,%eax
  280368:	89 c1                	mov    %eax,%ecx
              {
                my=0;
              }


              if(mx>bootp->xsize-16)
  28036a:	0f bf 05 f4 0f 00 00 	movswl 0xff4,%eax
  280371:	8d 50 f1             	lea    -0xf(%eax),%edx
              {
                mx=bootp->xsize-16;
  280374:	83 e8 10             	sub    $0x10,%eax
  280377:	39 fa                	cmp    %edi,%edx
  280379:	0f 4e f8             	cmovle %eax,%edi
              }

              if(my>bootp->ysize-16)
  28037c:	0f bf 05 f6 0f 00 00 	movswl 0xff6,%eax
  280383:	8d 50 f1             	lea    -0xf(%eax),%edx
              {
                my=bootp->ysize-16;
  280386:	83 e8 10             	sub    $0x10,%eax
  280389:	39 ca                	cmp    %ecx,%edx
  28038b:	0f 4f c1             	cmovg  %ecx,%eax
              }
              sprintf(s,"(%d, %d)",mx,my);
  28038e:	50                   	push   %eax
  28038f:	57                   	push   %edi
  280390:	68 4d 30 28 00       	push   $0x28304d
  280395:	ff b5 fc fd ff ff    	pushl  -0x204(%ebp)
                mx=bootp->xsize-16;
              }

              if(my>bootp->ysize-16)
              {
                my=bootp->ysize-16;
  28039b:	89 85 04 fe ff ff    	mov    %eax,-0x1fc(%ebp)
              }
              sprintf(s,"(%d, %d)",mx,my);
  2803a1:	e8 e4 05 00 00       	call   28098a <sprintf>
              boxfill8(win,320,0,0,0,79,15);//坐标的背景色
  2803a6:	83 c4 0c             	add    $0xc,%esp
  2803a9:	6a 0f                	push   $0xf
  2803ab:	6a 4f                	push   $0x4f
  2803ad:	6a 00                	push   $0x0
  2803af:	6a 00                	push   $0x0
  2803b1:	6a 00                	push   $0x0
  2803b3:	68 40 01 00 00       	push   $0x140
  2803b8:	56                   	push   %esi
  2803b9:	e8 ec 00 00 00       	call   2804aa <boxfill8>
              puts8(win ,bootp->xsize,0,0,7,s);//显示坐标
  2803be:	83 c4 18             	add    $0x18,%esp
  2803c1:	ff b5 fc fd ff ff    	pushl  -0x204(%ebp)
  2803c7:	6a 07                	push   $0x7
  2803c9:	6a 00                	push   $0x0
  2803cb:	6a 00                	push   $0x0
  2803cd:	0f bf 05 f4 0f 00 00 	movswl 0xff4,%eax
  2803d4:	50                   	push   %eax
  2803d5:	56                   	push   %esi
  2803d6:	e8 aa 06 00 00       	call   280a85 <puts8>
              sheet_refresh(shtctl,sht_back,0,0,79,15);
  2803db:	83 c4 18             	add    $0x18,%esp
  2803de:	6a 0f                	push   $0xf
  2803e0:	6a 4f                	push   $0x4f
  2803e2:	6a 00                	push   $0x0
  2803e4:	6a 00                	push   $0x0
  2803e6:	ff b5 00 fe ff ff    	pushl  -0x200(%ebp)
  2803ec:	53                   	push   %ebx
  2803ed:	e8 94 10 00 00       	call   281486 <sheet_refresh>


              sheet_move(shtctl,sht_mouse,mx,my);
  2803f2:	83 c4 20             	add    $0x20,%esp
  2803f5:	ff b5 04 fe ff ff    	pushl  -0x1fc(%ebp)
  2803fb:	57                   	push   %edi
  2803fc:	ff b5 f8 fd ff ff    	pushl  -0x208(%ebp)
  280402:	53                   	push   %ebx
  280403:	e8 c8 10 00 00       	call   2814d0 <sheet_move>
  280408:	83 c4 10             	add    $0x10,%esp
  28040b:	e9 07 fe ff ff       	jmp    280217 <bootmain+0x217>

00280410 <clear_screen>:
#include<header.h>

void clear_screen(char color) //15:pure white
{
  280410:	55                   	push   %ebp
  int i;
  for(i=0xa0000;i<0xaffff;i++)
  280411:	b8 00 00 0a 00       	mov    $0xa0000,%eax
#include<header.h>

void clear_screen(char color) //15:pure white
{
  280416:	89 e5                	mov    %esp,%ebp
  280418:	8a 55 08             	mov    0x8(%ebp),%dl
  int i;
  for(i=0xa0000;i<0xaffff;i++)
  {
  write_mem8(i,color);  //if we write 15 ,all pixels color will be white,15 mens pure white ,so the screen changes into white
  28041b:	88 10                	mov    %dl,(%eax)
#include<header.h>

void clear_screen(char color) //15:pure white
{
  int i;
  for(i=0xa0000;i<0xaffff;i++)
  28041d:	40                   	inc    %eax
  28041e:	3d ff ff 0a 00       	cmp    $0xaffff,%eax
  280423:	75 f6                	jne    28041b <clear_screen+0xb>
  {
  write_mem8(i,color);  //if we write 15 ,all pixels color will be white,15 mens pure white ,so the screen changes into white

  }
}
  280425:	5d                   	pop    %ebp
  280426:	c3                   	ret    

00280427 <color_screen>:

void color_screen(char color) //15:pure white
{
  280427:	55                   	push   %ebp
  int i;
  color=color;
  for(i=0xa0000;i<0xaffff;i++)
  280428:	b8 00 00 0a 00       	mov    $0xa0000,%eax

  }
}

void color_screen(char color) //15:pure white
{
  28042d:	89 e5                	mov    %esp,%ebp
  int i;
  color=color;
  for(i=0xa0000;i<0xaffff;i++)
  {
  write_mem8(i,i);  //if we write 15 ,all pixels color will be white,15 mens pure white ,so the screen changes into white
  28042f:	88 00                	mov    %al,(%eax)

void color_screen(char color) //15:pure white
{
  int i;
  color=color;
  for(i=0xa0000;i<0xaffff;i++)
  280431:	40                   	inc    %eax
  280432:	3d ff ff 0a 00       	cmp    $0xaffff,%eax
  280437:	75 f6                	jne    28042f <color_screen+0x8>
  {
  write_mem8(i,i);  //if we write 15 ,all pixels color will be white,15 mens pure white ,so the screen changes into white

  }
}
  280439:	5d                   	pop    %ebp
  28043a:	c3                   	ret    

0028043b <set_palette>:
   set_palette(0,255,table_rgb);
}

//设置调色板，  只用到了16个color,后面的都没有用到。
void set_palette(int start,int end, unsigned char *rgb)
{
  28043b:	55                   	push   %ebp
  28043c:	89 e5                	mov    %esp,%ebp
  28043e:	56                   	push   %esi
  28043f:	8b 4d 10             	mov    0x10(%ebp),%ecx
  280442:	53                   	push   %ebx
  280443:	8b 5d 08             	mov    0x8(%ebp),%ebx
//read eflags and write_eflags
static __inline uint32_t
read_eflags(void)
{
        uint32_t eflags;
        __asm __volatile("pushfl; popl %0" : "=r" (eflags));
  280446:	9c                   	pushf  
  280447:	5e                   	pop    %esi

static __inline void
cli(void)
{

	__asm __volatile("cli");
  280448:	fa                   	cli    
// out:write a data to a port
static __inline void
outb(int port, uint8_t data)
{
  //data是变量0%0 , port是变量word１%w1
	__asm __volatile("outb %0,%w1" : : "a" (data), "d" (port));
  280449:	ba c8 03 00 00       	mov    $0x3c8,%edx

  cli(); // disable interrupt
  //为什么写port 0x03c8

  //rgb=rgb+;
  outb(0x03c8,start);
  28044e:	0f b6 c3             	movzbl %bl,%eax
  280451:	ee                   	out    %al,(%dx)
  280452:	b2 c9                	mov    $0xc9,%dl
  for(i=start;i<=end;i++)
  280454:	3b 5d 0c             	cmp    0xc(%ebp),%ebx
  280457:	7f 1a                	jg     280473 <set_palette+0x38>
  {
    outb(0x03c9,*(rgb)/4);    //outb函数是往指定的设备，送数据。
  280459:	8a 01                	mov    (%ecx),%al
  28045b:	c0 e8 02             	shr    $0x2,%al
  28045e:	ee                   	out    %al,(%dx)
    outb(0x03c9,*(rgb+1)/4);
  28045f:	8a 41 01             	mov    0x1(%ecx),%al
  280462:	c0 e8 02             	shr    $0x2,%al
  280465:	ee                   	out    %al,(%dx)
    outb(0x03c9,*(rgb+2)/4);
  280466:	8a 41 02             	mov    0x2(%ecx),%al
  280469:	c0 e8 02             	shr    $0x2,%al
  28046c:	ee                   	out    %al,(%dx)
    rgb=rgb+3;
  28046d:	83 c1 03             	add    $0x3,%ecx
  cli(); // disable interrupt
  //为什么写port 0x03c8

  //rgb=rgb+;
  outb(0x03c8,start);
  for(i=start;i<=end;i++)
  280470:	43                   	inc    %ebx
  280471:	eb e1                	jmp    280454 <set_palette+0x19>
}

static __inline void
write_eflags(uint32_t eflags)
{
        __asm __volatile("pushl %0; popfl" : : "r" (eflags));
  280473:	56                   	push   %esi
  280474:	9d                   	popf   
  }

write_eflags(eflag);  //恢复从前的cpsr
  return;

}
  280475:	5b                   	pop    %ebx
  280476:	5e                   	pop    %esi
  280477:	5d                   	pop    %ebp
  280478:	c3                   	ret    

00280479 <init_palette>:
}

//初始化调色板，table_rgb[]保存了16种color的编码。
//什么调色板是这样进行设置，这个与x86的port 0x03c8 0x03c9
void init_palette(void)
{
  280479:	55                   	push   %ebp
  //16种color，每个color三个字节。
unsigned char table_rgb[16*3]={
  28047a:	b9 0c 00 00 00       	mov    $0xc,%ecx
}

//初始化调色板，table_rgb[]保存了16种color的编码。
//什么调色板是这样进行设置，这个与x86的port 0x03c8 0x03c9
void init_palette(void)
{
  28047f:	89 e5                	mov    %esp,%ebp
  280481:	57                   	push   %edi
  280482:	56                   	push   %esi
  //16种color，每个color三个字节。
unsigned char table_rgb[16*3]={
  280483:	be f8 2e 28 00       	mov    $0x282ef8,%esi
}

//初始化调色板，table_rgb[]保存了16种color的编码。
//什么调色板是这样进行设置，这个与x86的port 0x03c8 0x03c9
void init_palette(void)
{
  280488:	83 ec 30             	sub    $0x30,%esp
    0x00,0x00,0x84,   /*12:dark 青*/
    0x84,0x00,0x84,   /*13:dark purper*/
    0x00,0x84,0x84,   /*14:light blue*/
    0x84,0x84,0x84,   /*15:dark gray*/
  };
   set_palette(0,255,table_rgb);
  28048b:	8d 45 c8             	lea    -0x38(%ebp),%eax
//初始化调色板，table_rgb[]保存了16种color的编码。
//什么调色板是这样进行设置，这个与x86的port 0x03c8 0x03c9
void init_palette(void)
{
  //16种color，每个color三个字节。
unsigned char table_rgb[16*3]={
  28048e:	8d 7d c8             	lea    -0x38(%ebp),%edi
  280491:	f3 a5                	rep movsl %ds:(%esi),%es:(%edi)
    0x00,0x00,0x84,   /*12:dark 青*/
    0x84,0x00,0x84,   /*13:dark purper*/
    0x00,0x84,0x84,   /*14:light blue*/
    0x84,0x84,0x84,   /*15:dark gray*/
  };
   set_palette(0,255,table_rgb);
  280493:	50                   	push   %eax
  280494:	68 ff 00 00 00       	push   $0xff
  280499:	6a 00                	push   $0x0
  28049b:	e8 9b ff ff ff       	call   28043b <set_palette>
  2804a0:	83 c4 0c             	add    $0xc,%esp
}
  2804a3:	8d 65 f8             	lea    -0x8(%ebp),%esp
  2804a6:	5e                   	pop    %esi
  2804a7:	5f                   	pop    %edi
  2804a8:	5d                   	pop    %ebp
  2804a9:	c3                   	ret    

002804aa <boxfill8>:
  return;

}

void boxfill8(unsigned char *vram,int xsize,unsigned char color,int x0,int y0,int x1,int y1)
{
  2804aa:	55                   	push   %ebp
  2804ab:	89 e5                	mov    %esp,%ebp
  2804ad:	8b 4d 18             	mov    0x18(%ebp),%ecx
  2804b0:	8b 45 0c             	mov    0xc(%ebp),%eax
  2804b3:	53                   	push   %ebx
  2804b4:	8a 5d 10             	mov    0x10(%ebp),%bl
  2804b7:	0f af c1             	imul   %ecx,%eax
  2804ba:	03 45 08             	add    0x8(%ebp),%eax
 int x,y;
 for(y=y0;y<=y1;y++)
  2804bd:	3b 4d 20             	cmp    0x20(%ebp),%ecx
  2804c0:	7f 14                	jg     2804d6 <boxfill8+0x2c>
  2804c2:	8b 55 14             	mov    0x14(%ebp),%edx
 {
   for(x=x0;x<=x1;x++)
  2804c5:	3b 55 1c             	cmp    0x1c(%ebp),%edx
  2804c8:	7f 06                	jg     2804d0 <boxfill8+0x26>
   {
      vram[y*xsize+x]=color;
  2804ca:	88 1c 10             	mov    %bl,(%eax,%edx,1)
void boxfill8(unsigned char *vram,int xsize,unsigned char color,int x0,int y0,int x1,int y1)
{
 int x,y;
 for(y=y0;y<=y1;y++)
 {
   for(x=x0;x<=x1;x++)
  2804cd:	42                   	inc    %edx
  2804ce:	eb f5                	jmp    2804c5 <boxfill8+0x1b>
}

void boxfill8(unsigned char *vram,int xsize,unsigned char color,int x0,int y0,int x1,int y1)
{
 int x,y;
 for(y=y0;y<=y1;y++)
  2804d0:	41                   	inc    %ecx
  2804d1:	03 45 0c             	add    0xc(%ebp),%eax
  2804d4:	eb e7                	jmp    2804bd <boxfill8+0x13>
   {
      vram[y*xsize+x]=color;
   }
 }

}
  2804d6:	5b                   	pop    %ebx
  2804d7:	5d                   	pop    %ebp
  2804d8:	c3                   	ret    

002804d9 <boxfill>:
void boxfill(unsigned char color,int x0,int y0,int x1,int y1)
{
  2804d9:	55                   	push   %ebp
  2804da:	89 e5                	mov    %esp,%ebp
  boxfill8((unsigned char *)VRAM,320,color,x0,y0,x1,y1);
  2804dc:	ff 75 18             	pushl  0x18(%ebp)
  2804df:	ff 75 14             	pushl  0x14(%ebp)
  2804e2:	ff 75 10             	pushl  0x10(%ebp)
  2804e5:	ff 75 0c             	pushl  0xc(%ebp)
  2804e8:	0f b6 45 08          	movzbl 0x8(%ebp),%eax
  2804ec:	50                   	push   %eax
  2804ed:	68 40 01 00 00       	push   $0x140
  2804f2:	68 00 00 0a 00       	push   $0xa0000
  2804f7:	e8 ae ff ff ff       	call   2804aa <boxfill8>
  2804fc:	83 c4 1c             	add    $0x1c,%esp
}
  2804ff:	c9                   	leave  
  280500:	c3                   	ret    

00280501 <draw_win_buf>:


void draw_win_buf(unsigned char *p)
{
  280501:	55                   	push   %ebp
  280502:	89 e5                	mov    %esp,%ebp
  280504:	53                   	push   %ebx
  280505:	8b 5d 08             	mov    0x8(%ebp),%ebx
  int x=320,y=200;
    //p=(unsigned char*)VRAM;
//     boxfill8(p,320,110,20,20,250,150);

    //draw a window
    boxfill8(p,320,7 ,0, 0   ,x-1,y-29);
  280508:	68 ab 00 00 00       	push   $0xab
  28050d:	68 3f 01 00 00       	push   $0x13f
  280512:	6a 00                	push   $0x0
  280514:	6a 00                	push   $0x0
  280516:	6a 07                	push   $0x7
  280518:	68 40 01 00 00       	push   $0x140
  28051d:	53                   	push   %ebx
  28051e:	e8 87 ff ff ff       	call   2804aa <boxfill8>
//task button
    boxfill8(p,320,8  ,0, y-28,x-1,y-28);
  280523:	68 ac 00 00 00       	push   $0xac
  280528:	68 3f 01 00 00       	push   $0x13f
  28052d:	68 ac 00 00 00       	push   $0xac
  280532:	6a 00                	push   $0x0
  280534:	6a 08                	push   $0x8
  280536:	68 40 01 00 00       	push   $0x140
  28053b:	53                   	push   %ebx
  28053c:	e8 69 ff ff ff       	call   2804aa <boxfill8>
    boxfill8(p,320,7  ,0, y-27,x-1,y-27);
  280541:	83 c4 38             	add    $0x38,%esp
  280544:	68 ad 00 00 00       	push   $0xad
  280549:	68 3f 01 00 00       	push   $0x13f
  28054e:	68 ad 00 00 00       	push   $0xad
  280553:	6a 00                	push   $0x0
  280555:	6a 07                	push   $0x7
  280557:	68 40 01 00 00       	push   $0x140
  28055c:	53                   	push   %ebx
  28055d:	e8 48 ff ff ff       	call   2804aa <boxfill8>
    boxfill8(p,320,8  ,0, y-26,x-1,y-1);
  280562:	68 c7 00 00 00       	push   $0xc7
  280567:	68 3f 01 00 00       	push   $0x13f
  28056c:	68 ae 00 00 00       	push   $0xae
  280571:	6a 00                	push   $0x0
  280573:	6a 08                	push   $0x8
  280575:	68 40 01 00 00       	push   $0x140
  28057a:	53                   	push   %ebx
  28057b:	e8 2a ff ff ff       	call   2804aa <boxfill8>


//left button
    boxfill8(p,320,7, 3,  y-24, 59,  y-24);
  280580:	83 c4 38             	add    $0x38,%esp
  280583:	68 b0 00 00 00       	push   $0xb0
  280588:	6a 3b                	push   $0x3b
  28058a:	68 b0 00 00 00       	push   $0xb0
  28058f:	6a 03                	push   $0x3
  280591:	6a 07                	push   $0x7
  280593:	68 40 01 00 00       	push   $0x140
  280598:	53                   	push   %ebx
  280599:	e8 0c ff ff ff       	call   2804aa <boxfill8>
    boxfill8(p,320,7, 2,  y-24, 2 ,  y-4);
  28059e:	68 c4 00 00 00       	push   $0xc4
  2805a3:	6a 02                	push   $0x2
  2805a5:	68 b0 00 00 00       	push   $0xb0
  2805aa:	6a 02                	push   $0x2
  2805ac:	6a 07                	push   $0x7
  2805ae:	68 40 01 00 00       	push   $0x140
  2805b3:	53                   	push   %ebx
  2805b4:	e8 f1 fe ff ff       	call   2804aa <boxfill8>
    boxfill8(p,320,15, 3,  y-4,  59,  y-4);
  2805b9:	83 c4 38             	add    $0x38,%esp
  2805bc:	68 c4 00 00 00       	push   $0xc4
  2805c1:	6a 3b                	push   $0x3b
  2805c3:	68 c4 00 00 00       	push   $0xc4
  2805c8:	6a 03                	push   $0x3
  2805ca:	6a 0f                	push   $0xf
  2805cc:	68 40 01 00 00       	push   $0x140
  2805d1:	53                   	push   %ebx
  2805d2:	e8 d3 fe ff ff       	call   2804aa <boxfill8>
    boxfill8(p,320,15, 59, y-23, 59,  y-5);
  2805d7:	68 c3 00 00 00       	push   $0xc3
  2805dc:	6a 3b                	push   $0x3b
  2805de:	68 b1 00 00 00       	push   $0xb1
  2805e3:	6a 3b                	push   $0x3b
  2805e5:	6a 0f                	push   $0xf
  2805e7:	68 40 01 00 00       	push   $0x140
  2805ec:	53                   	push   %ebx
  2805ed:	e8 b8 fe ff ff       	call   2804aa <boxfill8>
    boxfill8(p,320,0, 2,  y-3,  59,  y-3);
  2805f2:	83 c4 38             	add    $0x38,%esp
  2805f5:	68 c5 00 00 00       	push   $0xc5
  2805fa:	6a 3b                	push   $0x3b
  2805fc:	68 c5 00 00 00       	push   $0xc5
  280601:	6a 02                	push   $0x2
  280603:	6a 00                	push   $0x0
  280605:	68 40 01 00 00       	push   $0x140
  28060a:	53                   	push   %ebx
  28060b:	e8 9a fe ff ff       	call   2804aa <boxfill8>
    boxfill8(p,320,0, 60, y-24, 60,  y-3);
  280610:	68 c5 00 00 00       	push   $0xc5
  280615:	6a 3c                	push   $0x3c
  280617:	68 b0 00 00 00       	push   $0xb0
  28061c:	6a 3c                	push   $0x3c
  28061e:	6a 00                	push   $0x0
  280620:	68 40 01 00 00       	push   $0x140
  280625:	53                   	push   %ebx
  280626:	e8 7f fe ff ff       	call   2804aa <boxfill8>

//
//right button
    boxfill8(p,320,15, x-47, y-24,x-4,y-24);
  28062b:	83 c4 38             	add    $0x38,%esp
  28062e:	68 b0 00 00 00       	push   $0xb0
  280633:	68 3c 01 00 00       	push   $0x13c
  280638:	68 b0 00 00 00       	push   $0xb0
  28063d:	68 11 01 00 00       	push   $0x111
  280642:	6a 0f                	push   $0xf
  280644:	68 40 01 00 00       	push   $0x140
  280649:	53                   	push   %ebx
  28064a:	e8 5b fe ff ff       	call   2804aa <boxfill8>
    boxfill8(p,320,15, x-47, y-23,x-47,y-4);
  28064f:	68 c4 00 00 00       	push   $0xc4
  280654:	68 11 01 00 00       	push   $0x111
  280659:	68 b1 00 00 00       	push   $0xb1
  28065e:	68 11 01 00 00       	push   $0x111
  280663:	6a 0f                	push   $0xf
  280665:	68 40 01 00 00       	push   $0x140
  28066a:	53                   	push   %ebx
  28066b:	e8 3a fe ff ff       	call   2804aa <boxfill8>
    boxfill8(p,320,7, x-47, y-3,x-4,y-3);
  280670:	83 c4 38             	add    $0x38,%esp
  280673:	68 c5 00 00 00       	push   $0xc5
  280678:	68 3c 01 00 00       	push   $0x13c
  28067d:	68 c5 00 00 00       	push   $0xc5
  280682:	68 11 01 00 00       	push   $0x111
  280687:	6a 07                	push   $0x7
  280689:	68 40 01 00 00       	push   $0x140
  28068e:	53                   	push   %ebx
  28068f:	e8 16 fe ff ff       	call   2804aa <boxfill8>
    boxfill8(p,320,7, x-3, y-24,x-3,y-3);
  280694:	68 c5 00 00 00       	push   $0xc5
  280699:	68 3d 01 00 00       	push   $0x13d
  28069e:	68 b0 00 00 00       	push   $0xb0
  2806a3:	68 3d 01 00 00       	push   $0x13d
  2806a8:	6a 07                	push   $0x7
  2806aa:	68 40 01 00 00       	push   $0x140
  2806af:	53                   	push   %ebx
  2806b0:	e8 f5 fd ff ff       	call   2804aa <boxfill8>
  2806b5:	83 c4 38             	add    $0x38,%esp
}
  2806b8:	8b 5d fc             	mov    -0x4(%ebp),%ebx
  2806bb:	c9                   	leave  
  2806bc:	c3                   	ret    

002806bd <draw_window>:
void draw_window()
{
  2806bd:	55                   	push   %ebp
  2806be:	89 e5                	mov    %esp,%ebp
  int x=320,y=200;
    p=(unsigned char*)VRAM;
//     boxfill8(p,320,110,20,20,250,150);

    //draw a window
    boxfill(7 ,0, 0   ,x-1,y-29);
  2806c0:	68 ab 00 00 00       	push   $0xab
  2806c5:	68 3f 01 00 00       	push   $0x13f
  2806ca:	6a 00                	push   $0x0
  2806cc:	6a 00                	push   $0x0
  2806ce:	6a 07                	push   $0x7
  2806d0:	e8 04 fe ff ff       	call   2804d9 <boxfill>
//task button
    boxfill(8  ,0, y-28,x-1,y-28);
  2806d5:	68 ac 00 00 00       	push   $0xac
  2806da:	68 3f 01 00 00       	push   $0x13f
  2806df:	68 ac 00 00 00       	push   $0xac
  2806e4:	6a 00                	push   $0x0
  2806e6:	6a 08                	push   $0x8
  2806e8:	e8 ec fd ff ff       	call   2804d9 <boxfill>
    boxfill(7  ,0, y-27,x-1,y-27);
  2806ed:	83 c4 28             	add    $0x28,%esp
  2806f0:	68 ad 00 00 00       	push   $0xad
  2806f5:	68 3f 01 00 00       	push   $0x13f
  2806fa:	68 ad 00 00 00       	push   $0xad
  2806ff:	6a 00                	push   $0x0
  280701:	6a 07                	push   $0x7
  280703:	e8 d1 fd ff ff       	call   2804d9 <boxfill>
    boxfill(8  ,0, y-26,x-1,y-1);
  280708:	68 c7 00 00 00       	push   $0xc7
  28070d:	68 3f 01 00 00       	push   $0x13f
  280712:	68 ae 00 00 00       	push   $0xae
  280717:	6a 00                	push   $0x0
  280719:	6a 08                	push   $0x8
  28071b:	e8 b9 fd ff ff       	call   2804d9 <boxfill>


//left button
    boxfill(7, 3,  y-24, 59,  y-24);
  280720:	83 c4 28             	add    $0x28,%esp
  280723:	68 b0 00 00 00       	push   $0xb0
  280728:	6a 3b                	push   $0x3b
  28072a:	68 b0 00 00 00       	push   $0xb0
  28072f:	6a 03                	push   $0x3
  280731:	6a 07                	push   $0x7
  280733:	e8 a1 fd ff ff       	call   2804d9 <boxfill>
    boxfill(7, 2,  y-24, 2 ,  y-4);
  280738:	68 c4 00 00 00       	push   $0xc4
  28073d:	6a 02                	push   $0x2
  28073f:	68 b0 00 00 00       	push   $0xb0
  280744:	6a 02                	push   $0x2
  280746:	6a 07                	push   $0x7
  280748:	e8 8c fd ff ff       	call   2804d9 <boxfill>
    boxfill(15, 3,  y-4,  59,  y-4);
  28074d:	83 c4 28             	add    $0x28,%esp
  280750:	68 c4 00 00 00       	push   $0xc4
  280755:	6a 3b                	push   $0x3b
  280757:	68 c4 00 00 00       	push   $0xc4
  28075c:	6a 03                	push   $0x3
  28075e:	6a 0f                	push   $0xf
  280760:	e8 74 fd ff ff       	call   2804d9 <boxfill>
    boxfill(15, 59, y-23, 59,  y-5);
  280765:	68 c3 00 00 00       	push   $0xc3
  28076a:	6a 3b                	push   $0x3b
  28076c:	68 b1 00 00 00       	push   $0xb1
  280771:	6a 3b                	push   $0x3b
  280773:	6a 0f                	push   $0xf
  280775:	e8 5f fd ff ff       	call   2804d9 <boxfill>
    boxfill(0, 2,  y-3,  59,  y-3);
  28077a:	83 c4 28             	add    $0x28,%esp
  28077d:	68 c5 00 00 00       	push   $0xc5
  280782:	6a 3b                	push   $0x3b
  280784:	68 c5 00 00 00       	push   $0xc5
  280789:	6a 02                	push   $0x2
  28078b:	6a 00                	push   $0x0
  28078d:	e8 47 fd ff ff       	call   2804d9 <boxfill>
    boxfill(0, 60, y-24, 60,  y-3);
  280792:	68 c5 00 00 00       	push   $0xc5
  280797:	6a 3c                	push   $0x3c
  280799:	68 b0 00 00 00       	push   $0xb0
  28079e:	6a 3c                	push   $0x3c
  2807a0:	6a 00                	push   $0x0
  2807a2:	e8 32 fd ff ff       	call   2804d9 <boxfill>

//
//right button
    boxfill(15, x-47, y-24,x-4,y-24);
  2807a7:	83 c4 28             	add    $0x28,%esp
  2807aa:	68 b0 00 00 00       	push   $0xb0
  2807af:	68 3c 01 00 00       	push   $0x13c
  2807b4:	68 b0 00 00 00       	push   $0xb0
  2807b9:	68 11 01 00 00       	push   $0x111
  2807be:	6a 0f                	push   $0xf
  2807c0:	e8 14 fd ff ff       	call   2804d9 <boxfill>
    boxfill(15, x-47, y-23,x-47,y-4);
  2807c5:	68 c4 00 00 00       	push   $0xc4
  2807ca:	68 11 01 00 00       	push   $0x111
  2807cf:	68 b1 00 00 00       	push   $0xb1
  2807d4:	68 11 01 00 00       	push   $0x111
  2807d9:	6a 0f                	push   $0xf
  2807db:	e8 f9 fc ff ff       	call   2804d9 <boxfill>
    boxfill(7, x-47, y-3,x-4,y-3);
  2807e0:	83 c4 28             	add    $0x28,%esp
  2807e3:	68 c5 00 00 00       	push   $0xc5
  2807e8:	68 3c 01 00 00       	push   $0x13c
  2807ed:	68 c5 00 00 00       	push   $0xc5
  2807f2:	68 11 01 00 00       	push   $0x111
  2807f7:	6a 07                	push   $0x7
  2807f9:	e8 db fc ff ff       	call   2804d9 <boxfill>
    boxfill(7, x-3, y-24,x-3,y-3);
  2807fe:	68 c5 00 00 00       	push   $0xc5
  280803:	68 3d 01 00 00       	push   $0x13d
  280808:	68 b0 00 00 00       	push   $0xb0
  28080d:	68 3d 01 00 00       	push   $0x13d
  280812:	6a 07                	push   $0x7
  280814:	e8 c0 fc ff ff       	call   2804d9 <boxfill>
  280819:	83 c4 28             	add    $0x28,%esp
}
  28081c:	c9                   	leave  
  28081d:	c3                   	ret    

0028081e <init_screen>:


void init_screen(struct boot_info * bootp)
{
  28081e:	55                   	push   %ebp
  28081f:	89 e5                	mov    %esp,%ebp
  280821:	8b 45 08             	mov    0x8(%ebp),%eax
  bootp->vram=(char *)VRAM;
  280824:	c7 40 08 00 00 0a 00 	movl   $0xa0000,0x8(%eax)
  bootp->color_mode=8;
  28082b:	c6 40 02 08          	movb   $0x8,0x2(%eax)
  bootp->xsize=320;
  28082f:	66 c7 40 04 40 01    	movw   $0x140,0x4(%eax)
  bootp->ysize=200;
  280835:	66 c7 40 06 c8 00    	movw   $0xc8,0x6(%eax)

}
  28083b:	5d                   	pop    %ebp
  28083c:	c3                   	ret    

0028083d <init_mouse>:

///关于mouse的函数
void init_mouse(char *mouse,char bg)
{
  28083d:	55                   	push   %ebp
  28083e:	31 c9                	xor    %ecx,%ecx
  280840:	89 e5                	mov    %esp,%ebp
  280842:	8a 45 0c             	mov    0xc(%ebp),%al
  280845:	8b 55 08             	mov    0x8(%ebp),%edx
  280848:	56                   	push   %esi
  280849:	53                   	push   %ebx
  28084a:	89 c6                	mov    %eax,%esi
  28084c:	31 c0                	xor    %eax,%eax
	int x,y;
	for(y=0;y<16;y++)
	{
	  for(x=0;x<16;x++)
	  {
	    switch (cursor[y][x])
  28084e:	8a 9c 01 28 2f 28 00 	mov    0x282f28(%ecx,%eax,1),%bl
  280855:	80 fb 2e             	cmp    $0x2e,%bl
  280858:	74 10                	je     28086a <init_mouse+0x2d>
  28085a:	80 fb 4f             	cmp    $0x4f,%bl
  28085d:	74 12                	je     280871 <init_mouse+0x34>
  28085f:	80 fb 2a             	cmp    $0x2a,%bl
  280862:	75 11                	jne    280875 <init_mouse+0x38>
	    {
	      case '.':mouse[x+16*y]=bg;break;  //background
	      case '*':mouse[x+16*y]=outline;break;   //outline
  280864:	c6 04 02 00          	movb   $0x0,(%edx,%eax,1)
  280868:	eb 0b                	jmp    280875 <init_mouse+0x38>
	{
	  for(x=0;x<16;x++)
	  {
	    switch (cursor[y][x])
	    {
	      case '.':mouse[x+16*y]=bg;break;  //background
  28086a:	89 f3                	mov    %esi,%ebx
  28086c:	88 1c 02             	mov    %bl,(%edx,%eax,1)
  28086f:	eb 04                	jmp    280875 <init_mouse+0x38>
	      case '*':mouse[x+16*y]=outline;break;   //outline
	      case 'O':mouse[x+16*y]=inside;break;  //inside
  280871:	c6 04 02 02          	movb   $0x2,(%edx,%eax,1)
		".............***"
	};
	int x,y;
	for(y=0;y<16;y++)
	{
	  for(x=0;x<16;x++)
  280875:	40                   	inc    %eax
  280876:	83 f8 10             	cmp    $0x10,%eax
  280879:	75 d3                	jne    28084e <init_mouse+0x11>
  28087b:	83 c1 10             	add    $0x10,%ecx
  28087e:	83 c2 10             	add    $0x10,%edx
		"*..........*OOO*",
		"............*OO*",
		".............***"
	};
	int x,y;
	for(y=0;y<16;y++)
  280881:	81 f9 00 01 00 00    	cmp    $0x100,%ecx
  280887:	75 c3                	jne    28084c <init_mouse+0xf>

	  }

	}

}
  280889:	5b                   	pop    %ebx
  28088a:	5e                   	pop    %esi
  28088b:	5d                   	pop    %ebp
  28088c:	c3                   	ret    

0028088d <display_mouse>:

void display_mouse(char *vram,int xsize,int pxsize,int pysize,int px0,int py0,char *buf,int bxsize)
{
  28088d:	55                   	push   %ebp
  28088e:	89 e5                	mov    %esp,%ebp
  280890:	8b 45 1c             	mov    0x1c(%ebp),%eax
  280893:	56                   	push   %esi
  int x,y;
  for(y=0;y<pysize;y++)
  280894:	31 f6                	xor    %esi,%esi
	}

}

void display_mouse(char *vram,int xsize,int pxsize,int pysize,int px0,int py0,char *buf,int bxsize)
{
  280896:	53                   	push   %ebx
  280897:	8b 5d 20             	mov    0x20(%ebp),%ebx
  28089a:	0f af 45 0c          	imul   0xc(%ebp),%eax
  28089e:	03 45 18             	add    0x18(%ebp),%eax
  2808a1:	03 45 08             	add    0x8(%ebp),%eax
  int x,y;
  for(y=0;y<pysize;y++)
  2808a4:	3b 75 14             	cmp    0x14(%ebp),%esi
  2808a7:	7d 19                	jge    2808c2 <display_mouse+0x35>
  2808a9:	31 d2                	xor    %edx,%edx
  {
    for(x=0;x<pxsize;x++)
  2808ab:	3b 55 10             	cmp    0x10(%ebp),%edx
  2808ae:	7d 09                	jge    2808b9 <display_mouse+0x2c>
    {
     vram[(py0+y)*xsize+(px0+x)]=buf[y*bxsize+x];
  2808b0:	8a 0c 13             	mov    (%ebx,%edx,1),%cl
  2808b3:	88 0c 10             	mov    %cl,(%eax,%edx,1)
void display_mouse(char *vram,int xsize,int pxsize,int pysize,int px0,int py0,char *buf,int bxsize)
{
  int x,y;
  for(y=0;y<pysize;y++)
  {
    for(x=0;x<pxsize;x++)
  2808b6:	42                   	inc    %edx
  2808b7:	eb f2                	jmp    2808ab <display_mouse+0x1e>
}

void display_mouse(char *vram,int xsize,int pxsize,int pysize,int px0,int py0,char *buf,int bxsize)
{
  int x,y;
  for(y=0;y<pysize;y++)
  2808b9:	46                   	inc    %esi
  2808ba:	03 5d 24             	add    0x24(%ebp),%ebx
  2808bd:	03 45 0c             	add    0xc(%ebp),%eax
  2808c0:	eb e2                	jmp    2808a4 <display_mouse+0x17>
    {
     vram[(py0+y)*xsize+(px0+x)]=buf[y*bxsize+x];
    }
  }

}
  2808c2:	5b                   	pop    %ebx
  2808c3:	5e                   	pop    %esi
  2808c4:	5d                   	pop    %ebp
  2808c5:	c3                   	ret    

002808c6 <itoa>:
sprintf(font,"Debug:var=%x" ,i);
puts8((char *)VRAM ,320,x,150,1,font);

}

void itoa(int value,unsigned char *buf){
  2808c6:	55                   	push   %ebp
   unsigned char tmp_buf[10] = {0};
  2808c7:	31 c0                	xor    %eax,%eax
sprintf(font,"Debug:var=%x" ,i);
puts8((char *)VRAM ,320,x,150,1,font);

}

void itoa(int value,unsigned char *buf){
  2808c9:	89 e5                	mov    %esp,%ebp
   unsigned char tmp_buf[10] = {0};
  2808cb:	b9 0a 00 00 00       	mov    $0xa,%ecx
sprintf(font,"Debug:var=%x" ,i);
puts8((char *)VRAM ,320,x,150,1,font);

}

void itoa(int value,unsigned char *buf){
  2808d0:	57                   	push   %edi
  2808d1:	56                   	push   %esi
  2808d2:	53                   	push   %ebx
  2808d3:	83 ec 10             	sub    $0x10,%esp
  2808d6:	8b 55 08             	mov    0x8(%ebp),%edx
   unsigned char tmp_buf[10] = {0};
  2808d9:	8d 7d ea             	lea    -0x16(%ebp),%edi
sprintf(font,"Debug:var=%x" ,i);
puts8((char *)VRAM ,320,x,150,1,font);

}

void itoa(int value,unsigned char *buf){
  2808dc:	8b 5d 0c             	mov    0xc(%ebp),%ebx
   unsigned char tmp_buf[10] = {0};
  2808df:	f3 aa                	rep stos %al,%es:(%edi)
  2808e1:	8d 7d ea             	lea    -0x16(%ebp),%edi
    unsigned char *tbp = tmp_buf;
    if((value >> 31) & 0x1)
  2808e4:	85 d2                	test   %edx,%edx
  2808e6:	79 06                	jns    2808ee <itoa+0x28>
    { /* neg num */
        *buf++ = '-';//得到负号
  2808e8:	c6 03 2d             	movb   $0x2d,(%ebx)
        value = ~value + 1; //将负数变为正数
  2808eb:	f7 da                	neg    %edx
void itoa(int value,unsigned char *buf){
   unsigned char tmp_buf[10] = {0};
    unsigned char *tbp = tmp_buf;
    if((value >> 31) & 0x1)
    { /* neg num */
        *buf++ = '-';//得到负号
  2808ed:	43                   	inc    %ebx
  2808ee:	89 f9                	mov    %edi,%ecx



    do
    {
        *tbp++ = ('0' + (char)(value % 10));//得到低位数字
  2808f0:	be 0a 00 00 00       	mov    $0xa,%esi
  2808f5:	89 d0                	mov    %edx,%eax
  2808f7:	41                   	inc    %ecx
  2808f8:	99                   	cltd   
  2808f9:	f7 fe                	idiv   %esi
  2808fb:	83 c2 30             	add    $0x30,%edx
        value /= 10;
    }while(value);
  2808fe:	85 c0                	test   %eax,%eax



    do
    {
        *tbp++ = ('0' + (char)(value % 10));//得到低位数字
  280900:	88 51 ff             	mov    %dl,-0x1(%ecx)
        value /= 10;
  280903:	89 c2                	mov    %eax,%edx
    }while(value);
  280905:	75 ee                	jne    2808f5 <itoa+0x2f>



    do
    {
        *tbp++ = ('0' + (char)(value % 10));//得到低位数字
  280907:	89 ce                	mov    %ecx,%esi
  280909:	89 d8                	mov    %ebx,%eax
        value /= 10;
    }while(value);


    while(tmp_buf != tbp)
  28090b:	39 f9                	cmp    %edi,%ecx
  28090d:	74 09                	je     280918 <itoa+0x52>
    {
      tbp--;
  28090f:	49                   	dec    %ecx
      *buf++ = *tbp;
  280910:	8a 11                	mov    (%ecx),%dl
  280912:	40                   	inc    %eax
  280913:	88 50 ff             	mov    %dl,-0x1(%eax)
  280916:	eb f3                	jmp    28090b <itoa+0x45>
  280918:	89 f0                	mov    %esi,%eax
  28091a:	29 c8                	sub    %ecx,%eax

    }
    *buf='\0';
  28091c:	c6 04 03 00          	movb   $0x0,(%ebx,%eax,1)


}
  280920:	83 c4 10             	add    $0x10,%esp
  280923:	5b                   	pop    %ebx
  280924:	5e                   	pop    %esi
  280925:	5f                   	pop    %edi
  280926:	5d                   	pop    %ebp
  280927:	c3                   	ret    

00280928 <xtoa>:
    else
        value = value + 48;
    return value;
}

void xtoa(unsigned int value,unsigned char *buf){
  280928:	55                   	push   %ebp
   unsigned char tmp_buf[30] = {0};
  280929:	31 c0                	xor    %eax,%eax
    else
        value = value + 48;
    return value;
}

void xtoa(unsigned int value,unsigned char *buf){
  28092b:	89 e5                	mov    %esp,%ebp
   unsigned char tmp_buf[30] = {0};
  28092d:	b9 1e 00 00 00       	mov    $0x1e,%ecx
    else
        value = value + 48;
    return value;
}

void xtoa(unsigned int value,unsigned char *buf){
  280932:	57                   	push   %edi
  280933:	56                   	push   %esi
  280934:	53                   	push   %ebx
  280935:	83 ec 20             	sub    $0x20,%esp
  280938:	8b 55 0c             	mov    0xc(%ebp),%edx
   unsigned char tmp_buf[30] = {0};
  28093b:	8d 7d d6             	lea    -0x2a(%ebp),%edi
  28093e:	f3 aa                	rep stos %al,%es:(%edi)
   unsigned char *tbp = tmp_buf;
  280940:	8d 45 d6             	lea    -0x2a(%ebp),%eax

    *buf++='0';
  280943:	c6 02 30             	movb   $0x30,(%edx)
    *buf++='x';
  280946:	8d 72 02             	lea    0x2(%edx),%esi
  280949:	c6 42 01 78          	movb   $0x78,0x1(%edx)

    do
    {
        // *tbp++ = ('0' + (char)(value % 16));//得到低位数字
	*tbp++=fourbtoc(value&0x0000000f);
  28094d:	8b 5d 08             	mov    0x8(%ebp),%ebx
  280950:	40                   	inc    %eax
  280951:	83 e3 0f             	and    $0xf,%ebx


}
static  inline unsigned char fourbtoc(int value){
    if(value >= 10)
        value = value - 10 + 65;
  280954:	83 fb 0a             	cmp    $0xa,%ebx
  280957:	8d 4b 37             	lea    0x37(%ebx),%ecx
  28095a:	8d 7b 30             	lea    0x30(%ebx),%edi
  28095d:	0f 4c cf             	cmovl  %edi,%ecx
        // *tbp++ = ('0' + (char)(value % 16));//得到低位数字
	*tbp++=fourbtoc(value&0x0000000f);

        //*tbp++ = ((value % 16)>9)?('A' + (char)(value % 16-10)):('0' + (char)(value % 16));//得到低位数字
        value >>= 4;
    }while(value);
  280960:	c1 6d 08 04          	shrl   $0x4,0x8(%ebp)
static  inline unsigned char fourbtoc(int value){
    if(value >= 10)
        value = value - 10 + 65;
    else
        value = value + 48;
    return value;
  280964:	88 48 ff             	mov    %cl,-0x1(%eax)
        // *tbp++ = ('0' + (char)(value % 16));//得到低位数字
	*tbp++=fourbtoc(value&0x0000000f);

        //*tbp++ = ((value % 16)>9)?('A' + (char)(value % 16-10)):('0' + (char)(value % 16));//得到低位数字
        value >>= 4;
    }while(value);
  280967:	75 e4                	jne    28094d <xtoa+0x25>
    *buf++='x';

    do
    {
        // *tbp++ = ('0' + (char)(value % 16));//得到低位数字
	*tbp++=fourbtoc(value&0x0000000f);
  280969:	89 c3                	mov    %eax,%ebx
        //*tbp++ = ((value % 16)>9)?('A' + (char)(value % 16-10)):('0' + (char)(value % 16));//得到低位数字
        value >>= 4;
    }while(value);


    while(tmp_buf != tbp)
  28096b:	8d 7d d6             	lea    -0x2a(%ebp),%edi
  28096e:	39 f8                	cmp    %edi,%eax
  280970:	74 09                	je     28097b <xtoa+0x53>
    {
      tbp--;
  280972:	48                   	dec    %eax
      *buf++ = *tbp;
  280973:	8a 08                	mov    (%eax),%cl
  280975:	46                   	inc    %esi
  280976:	88 4e ff             	mov    %cl,-0x1(%esi)
  280979:	eb f0                	jmp    28096b <xtoa+0x43>
  28097b:	29 c3                	sub    %eax,%ebx

    }
    *buf='\0';
  28097d:	c6 44 1a 02 00       	movb   $0x0,0x2(%edx,%ebx,1)


}
  280982:	83 c4 20             	add    $0x20,%esp
  280985:	5b                   	pop    %ebx
  280986:	5e                   	pop    %esi
  280987:	5f                   	pop    %edi
  280988:	5d                   	pop    %ebp
  280989:	c3                   	ret    

0028098a <sprintf>:



//实现可变参数的打印，主要是为了观察打印的变量。
void sprintf( char *str, char *format ,...)
{
  28098a:	55                   	push   %ebp
  28098b:	89 e5                	mov    %esp,%ebp
  28098d:	57                   	push   %edi
  28098e:	56                   	push   %esi
  28098f:	53                   	push   %ebx
  280990:	83 ec 10             	sub    $0x10,%esp
  280993:	8b 5d 08             	mov    0x8(%ebp),%ebx

   int *var=(int *)(&format)+1; //得到第一个可变参数的地址
  280996:	8d 75 10             	lea    0x10(%ebp),%esi
    char buffer[10];
    char *buf=buffer;
  while(*format)
  280999:	8b 7d 0c             	mov    0xc(%ebp),%edi
  28099c:	8a 07                	mov    (%edi),%al
  28099e:	84 c0                	test   %al,%al
  2809a0:	0f 84 83 00 00 00    	je     280a29 <sprintf+0x9f>
  2809a6:	8d 4f 01             	lea    0x1(%edi),%ecx
  {
      if(*format!='%')
  2809a9:	3c 25                	cmp    $0x25,%al
      {
	*str++=*format++;
  2809ab:	89 4d 0c             	mov    %ecx,0xc(%ebp)
   int *var=(int *)(&format)+1; //得到第一个可变参数的地址
    char buffer[10];
    char *buf=buffer;
  while(*format)
  {
      if(*format!='%')
  2809ae:	74 05                	je     2809b5 <sprintf+0x2b>
      {
	*str++=*format++;
  2809b0:	88 03                	mov    %al,(%ebx)
  2809b2:	43                   	inc    %ebx
	continue;
  2809b3:	eb e4                	jmp    280999 <sprintf+0xf>
      }
      else
      {
	format++;
	switch (*format)
  2809b5:	8a 47 01             	mov    0x1(%edi),%al
  2809b8:	3c 73                	cmp    $0x73,%al
  2809ba:	74 46                	je     280a02 <sprintf+0x78>
  2809bc:	3c 78                	cmp    $0x78,%al
  2809be:	74 23                	je     2809e3 <sprintf+0x59>
  2809c0:	3c 64                	cmp    $0x64,%al
  2809c2:	75 53                	jne    280a17 <sprintf+0x8d>
	{
	  case 'd':itoa(*var,buf);while(*buf){*str++=*buf++;};break;
  2809c4:	8d 45 ea             	lea    -0x16(%ebp),%eax
  2809c7:	50                   	push   %eax
  2809c8:	ff 36                	pushl  (%esi)
  2809ca:	e8 f7 fe ff ff       	call   2808c6 <itoa>
  2809cf:	59                   	pop    %ecx
  2809d0:	8d 4d ea             	lea    -0x16(%ebp),%ecx
  2809d3:	58                   	pop    %eax
  2809d4:	89 d8                	mov    %ebx,%eax
  2809d6:	8a 19                	mov    (%ecx),%bl
  2809d8:	84 db                	test   %bl,%bl
  2809da:	74 3d                	je     280a19 <sprintf+0x8f>
  2809dc:	40                   	inc    %eax
  2809dd:	41                   	inc    %ecx
  2809de:	88 58 ff             	mov    %bl,-0x1(%eax)
  2809e1:	eb f3                	jmp    2809d6 <sprintf+0x4c>
	  case 'x':xtoa(*var,buf);while(*buf){*str++=*buf++;};break;
  2809e3:	8d 45 ea             	lea    -0x16(%ebp),%eax
  2809e6:	50                   	push   %eax
  2809e7:	ff 36                	pushl  (%esi)
  2809e9:	e8 3a ff ff ff       	call   280928 <xtoa>
  2809ee:	8d 4d ea             	lea    -0x16(%ebp),%ecx
  2809f1:	58                   	pop    %eax
  2809f2:	89 d8                	mov    %ebx,%eax
  2809f4:	5a                   	pop    %edx
  2809f5:	8a 19                	mov    (%ecx),%bl
  2809f7:	84 db                	test   %bl,%bl
  2809f9:	74 1e                	je     280a19 <sprintf+0x8f>
  2809fb:	40                   	inc    %eax
  2809fc:	41                   	inc    %ecx
  2809fd:	88 58 ff             	mov    %bl,-0x1(%eax)
  280a00:	eb f3                	jmp    2809f5 <sprintf+0x6b>
	  case 's':buf=(char*)(*var);while(*buf){*str++=*buf++;};break;
  280a02:	8b 16                	mov    (%esi),%edx
  280a04:	89 d8                	mov    %ebx,%eax
  280a06:	89 c1                	mov    %eax,%ecx
  280a08:	29 d9                	sub    %ebx,%ecx
  280a0a:	8a 0c 11             	mov    (%ecx,%edx,1),%cl
  280a0d:	84 c9                	test   %cl,%cl
  280a0f:	74 08                	je     280a19 <sprintf+0x8f>
  280a11:	40                   	inc    %eax
  280a12:	88 48 ff             	mov    %cl,-0x1(%eax)
  280a15:	eb ef                	jmp    280a06 <sprintf+0x7c>
	continue;
      }
      else
      {
	format++;
	switch (*format)
  280a17:	89 d8                	mov    %ebx,%eax
	  case 's':buf=(char*)(*var);while(*buf){*str++=*buf++;};break;

	}
	buf=buffer;
	var++;
	format++;
  280a19:	83 c7 02             	add    $0x2,%edi
	  case 'x':xtoa(*var,buf);while(*buf){*str++=*buf++;};break;
	  case 's':buf=(char*)(*var);while(*buf){*str++=*buf++;};break;

	}
	buf=buffer;
	var++;
  280a1c:	83 c6 04             	add    $0x4,%esi
	format++;
  280a1f:	89 7d 0c             	mov    %edi,0xc(%ebp)
  280a22:	89 c3                	mov    %eax,%ebx
  280a24:	e9 70 ff ff ff       	jmp    280999 <sprintf+0xf>

      }

  }
  *str='\0';
  280a29:	c6 03 00             	movb   $0x0,(%ebx)

}
  280a2c:	8d 65 f4             	lea    -0xc(%ebp),%esp
  280a2f:	5b                   	pop    %ebx
  280a30:	5e                   	pop    %esi
  280a31:	5f                   	pop    %edi
  280a32:	5d                   	pop    %ebp
  280a33:	c3                   	ret    

00280a34 <putfont8>:
}

}

void putfont8(char *vram ,int xsize,int x,int y,char color,char *font)//x=0 311 y=0 183
{
  280a34:	55                   	push   %ebp
  int row,col;
  char d;
  for(row=0;row<16;row++)
  280a35:	31 d2                	xor    %edx,%edx
}

}

void putfont8(char *vram ,int xsize,int x,int y,char color,char *font)//x=0 311 y=0 183
{
  280a37:	89 e5                	mov    %esp,%ebp
  280a39:	57                   	push   %edi
  for(row=0;row<16;row++)
  {
    d=font[row];
    for(col=0;col<8;col++)
    {
      if(d&(0x80>>col))
  280a3a:	bf 80 00 00 00       	mov    $0x80,%edi
}

}

void putfont8(char *vram ,int xsize,int x,int y,char color,char *font)//x=0 311 y=0 183
{
  280a3f:	56                   	push   %esi
  280a40:	53                   	push   %ebx
  280a41:	83 ec 01             	sub    $0x1,%esp
  280a44:	8a 45 18             	mov    0x18(%ebp),%al
  280a47:	88 45 f3             	mov    %al,-0xd(%ebp)
  280a4a:	8b 45 14             	mov    0x14(%ebp),%eax
  280a4d:	0f af 45 0c          	imul   0xc(%ebp),%eax
  280a51:	03 45 10             	add    0x10(%ebp),%eax
  280a54:	03 45 08             	add    0x8(%ebp),%eax
  for(row=0;row<16;row++)
  {
    d=font[row];
    for(col=0;col<8;col++)
    {
      if(d&(0x80>>col))
  280a57:	8b 75 1c             	mov    0x1c(%ebp),%esi
  int row,col;
  char d;
  for(row=0;row<16;row++)
  {
    d=font[row];
    for(col=0;col<8;col++)
  280a5a:	31 c9                	xor    %ecx,%ecx
    {
      if(d&(0x80>>col))
  280a5c:	0f be 34 16          	movsbl (%esi,%edx,1),%esi
  280a60:	89 fb                	mov    %edi,%ebx
  280a62:	d3 fb                	sar    %cl,%ebx
  280a64:	85 f3                	test   %esi,%ebx
  280a66:	74 06                	je     280a6e <putfont8+0x3a>
      {
	vram[(y+row)*xsize+x+col]=color;
  280a68:	8a 5d f3             	mov    -0xd(%ebp),%bl
  280a6b:	88 1c 08             	mov    %bl,(%eax,%ecx,1)
  int row,col;
  char d;
  for(row=0;row<16;row++)
  {
    d=font[row];
    for(col=0;col<8;col++)
  280a6e:	41                   	inc    %ecx
  280a6f:	83 f9 08             	cmp    $0x8,%ecx
  280a72:	75 ec                	jne    280a60 <putfont8+0x2c>

void putfont8(char *vram ,int xsize,int x,int y,char color,char *font)//x=0 311 y=0 183
{
  int row,col;
  char d;
  for(row=0;row<16;row++)
  280a74:	42                   	inc    %edx
  280a75:	03 45 0c             	add    0xc(%ebp),%eax
  280a78:	83 fa 10             	cmp    $0x10,%edx
  280a7b:	75 da                	jne    280a57 <putfont8+0x23>
    }

  }
  return;

}
  280a7d:	83 c4 01             	add    $0x1,%esp
  280a80:	5b                   	pop    %ebx
  280a81:	5e                   	pop    %esi
  280a82:	5f                   	pop    %edi
  280a83:	5d                   	pop    %ebp
  280a84:	c3                   	ret    

00280a85 <puts8>:
  *str='\0';

}

void puts8(char *vram ,int xsize,int x,int y,char color,unsigned char *font)//x=0 311 y=0 183
{
  280a85:	55                   	push   %ebp
  280a86:	89 e5                	mov    %esp,%ebp
  280a88:	57                   	push   %edi
  280a89:	8b 7d 14             	mov    0x14(%ebp),%edi
  280a8c:	56                   	push   %esi
      y=y+16;

    }
    else
    {
    putfont8((char *)vram ,xsize,x,y,color,(char *)(Font8x16+(*font)*16));
  280a8d:	0f be 75 18          	movsbl 0x18(%ebp),%esi
  *str='\0';

}

void puts8(char *vram ,int xsize,int x,int y,char color,unsigned char *font)//x=0 311 y=0 183
{
  280a91:	53                   	push   %ebx
  280a92:	8b 5d 10             	mov    0x10(%ebp),%ebx

 while(*font)
  280a95:	8b 45 1c             	mov    0x1c(%ebp),%eax
  280a98:	0f b6 00             	movzbl (%eax),%eax
  280a9b:	84 c0                	test   %al,%al
  280a9d:	74 42                	je     280ae1 <puts8+0x5c>
 {
    if(*font=='\n')
  280a9f:	3c 0a                	cmp    $0xa,%al
  280aa1:	75 05                	jne    280aa8 <puts8+0x23>
    {
      x=0;
      y=y+16;
  280aa3:	83 c7 10             	add    $0x10,%edi
  280aa6:	eb 32                	jmp    280ada <puts8+0x55>

    }
    else
    {
    putfont8((char *)vram ,xsize,x,y,color,(char *)(Font8x16+(*font)*16));
  280aa8:	c1 e0 04             	shl    $0x4,%eax
  280aab:	05 28 15 28 00       	add    $0x281528,%eax
  280ab0:	50                   	push   %eax
  280ab1:	56                   	push   %esi
  280ab2:	57                   	push   %edi
  280ab3:	53                   	push   %ebx
    x+=8;
  280ab4:	83 c3 08             	add    $0x8,%ebx
      y=y+16;

    }
    else
    {
    putfont8((char *)vram ,xsize,x,y,color,(char *)(Font8x16+(*font)*16));
  280ab7:	ff 75 0c             	pushl  0xc(%ebp)
  280aba:	ff 75 08             	pushl  0x8(%ebp)
  280abd:	e8 72 ff ff ff       	call   280a34 <putfont8>
    x+=8;
    if(x>312)
  280ac2:	83 c4 18             	add    $0x18,%esp
  280ac5:	81 fb 38 01 00 00    	cmp    $0x138,%ebx
  280acb:	7e 0f                	jle    280adc <puts8+0x57>
       {
	  x=0;
	  y+=16;
  280acd:	83 c7 10             	add    $0x10,%edi
	  if(y>183)
  280ad0:	81 ff b7 00 00 00    	cmp    $0xb7,%edi
  280ad6:	7e 02                	jle    280ada <puts8+0x55>
	  {
	    x=0;
	    y=0;
  280ad8:	31 ff                	xor    %edi,%edi
       {
	  x=0;
	  y+=16;
	  if(y>183)
	  {
	    x=0;
  280ada:	31 db                	xor    %ebx,%ebx

	  }
        }
    }

    font++;
  280adc:	ff 45 1c             	incl   0x1c(%ebp)
  280adf:	eb b4                	jmp    280a95 <puts8+0x10>
}

}
  280ae1:	8d 65 f4             	lea    -0xc(%ebp),%esp
  280ae4:	5b                   	pop    %ebx
  280ae5:	5e                   	pop    %esi
  280ae6:	5f                   	pop    %edi
  280ae7:	5d                   	pop    %ebp
  280ae8:	c3                   	ret    

00280ae9 <printdebug>:
#include<header.h>


void printdebug(unsigned int i,unsigned int x)
{
  280ae9:	55                   	push   %ebp
  280aea:	89 e5                	mov    %esp,%ebp
  280aec:	53                   	push   %ebx
  280aed:	83 ec 20             	sub    $0x20,%esp
char font[30];
sprintf(font,"Debug:var=%x" ,i);
  280af0:	ff 75 08             	pushl  0x8(%ebp)
  280af3:	8d 5d de             	lea    -0x22(%ebp),%ebx
  280af6:	68 56 30 28 00       	push   $0x283056
  280afb:	53                   	push   %ebx
  280afc:	e8 89 fe ff ff       	call   28098a <sprintf>
puts8((char *)VRAM ,320,x,150,1,font);
  280b01:	53                   	push   %ebx
  280b02:	6a 01                	push   $0x1
  280b04:	68 96 00 00 00       	push   $0x96
  280b09:	ff 75 0c             	pushl  0xc(%ebp)
  280b0c:	68 40 01 00 00       	push   $0x140
  280b11:	68 00 00 0a 00       	push   $0xa0000
  280b16:	e8 6a ff ff ff       	call   280a85 <puts8>
  280b1b:	83 c4 24             	add    $0x24,%esp

}
  280b1e:	8b 5d fc             	mov    -0x4(%ebp),%ebx
  280b21:	c9                   	leave  
  280b22:	c3                   	ret    

00280b23 <putfont16>:

  }

}
void putfont16(char *vram ,int xsize,int x,int y,char color,unsigned short *font)//x=0 311 y=0 183
{
  280b23:	55                   	push   %ebp
  280b24:	31 c9                	xor    %ecx,%ecx
  280b26:	89 e5                	mov    %esp,%ebp
  280b28:	57                   	push   %edi
  280b29:	56                   	push   %esi
  280b2a:	53                   	push   %ebx
  280b2b:	52                   	push   %edx
  280b2c:	8b 55 14             	mov    0x14(%ebp),%edx
  280b2f:	0f af 55 0c          	imul   0xc(%ebp),%edx
  280b33:	8b 45 10             	mov    0x10(%ebp),%eax
  280b36:	03 45 08             	add    0x8(%ebp),%eax
  280b39:	8a 5d 18             	mov    0x18(%ebp),%bl
  280b3c:	01 d0                	add    %edx,%eax
  int row,col;
  unsigned short  d;
  unsigned short *pt=(unsigned short *)(font-32*24);
  for(row=0;row<24;row++)
  280b3e:	31 d2                	xor    %edx,%edx
  280b40:	89 45 f0             	mov    %eax,-0x10(%ebp)
  {
    d=pt[row];
    for(col=0;col<16;col++)
    {
       if( (d&(1 << col) ))
  280b43:	8b 7d 1c             	mov    0x1c(%ebp),%edi
  280b46:	8b 45 f0             	mov    -0x10(%ebp),%eax
  280b49:	0f b7 bc 57 00 fa ff 	movzwl -0x600(%edi,%edx,2),%edi
  280b50:	ff 
  280b51:	8d 34 01             	lea    (%ecx,%eax,1),%esi
  unsigned short  d;
  unsigned short *pt=(unsigned short *)(font-32*24);
  for(row=0;row<24;row++)
  {
    d=pt[row];
    for(col=0;col<16;col++)
  280b54:	31 c0                	xor    %eax,%eax
    {
       if( (d&(1 << col) ))
  280b56:	0f a3 c7             	bt     %eax,%edi
  280b59:	73 03                	jae    280b5e <putfont16+0x3b>
     // if((d<<col)&0x0001)
      {
	vram[(y+row)*xsize+x+col]=color;
  280b5b:	88 1c 06             	mov    %bl,(%esi,%eax,1)
  unsigned short  d;
  unsigned short *pt=(unsigned short *)(font-32*24);
  for(row=0;row<24;row++)
  {
    d=pt[row];
    for(col=0;col<16;col++)
  280b5e:	40                   	inc    %eax
  280b5f:	83 f8 10             	cmp    $0x10,%eax
  280b62:	75 f2                	jne    280b56 <putfont16+0x33>
void putfont16(char *vram ,int xsize,int x,int y,char color,unsigned short *font)//x=0 311 y=0 183
{
  int row,col;
  unsigned short  d;
  unsigned short *pt=(unsigned short *)(font-32*24);
  for(row=0;row<24;row++)
  280b64:	42                   	inc    %edx
  280b65:	03 4d 0c             	add    0xc(%ebp),%ecx
  280b68:	83 fa 18             	cmp    $0x18,%edx
  280b6b:	75 d6                	jne    280b43 <putfont16+0x20>
    }

  }
  return;

}
  280b6d:	58                   	pop    %eax
  280b6e:	5b                   	pop    %ebx
  280b6f:	5e                   	pop    %esi
  280b70:	5f                   	pop    %edi
  280b71:	5d                   	pop    %ebp
  280b72:	c3                   	ret    

00280b73 <puts16>:
  return;

}
//print string: big string
void puts16(char *vram ,int xsize,int x,int y,char color,char *font)
{
  280b73:	55                   	push   %ebp
  280b74:	89 e5                	mov    %esp,%ebp
  280b76:	57                   	push   %edi
  280b77:	8b 7d 10             	mov    0x10(%ebp),%edi
  280b7a:	56                   	push   %esi
  280b7b:	8b 75 14             	mov    0x14(%ebp),%esi
  280b7e:	53                   	push   %ebx

    }
    else
    {
	pt=(unsigned short *)((*font)*24+ASCII_Table);
	putfont16(vram ,xsize,x,y,color,pt);
  280b7f:	0f be 5d 18          	movsbl 0x18(%ebp),%ebx
}
//print string: big string
void puts16(char *vram ,int xsize,int x,int y,char color,char *font)
{
  unsigned short  *pt;
  while(*font)
  280b83:	8b 45 1c             	mov    0x1c(%ebp),%eax
  280b86:	0f be 00             	movsbl (%eax),%eax
  280b89:	84 c0                	test   %al,%al
  280b8b:	74 2d                	je     280bba <puts16+0x47>
  {
    if(*font=='\n')
  280b8d:	3c 0a                	cmp    $0xa,%al
  280b8f:	75 07                	jne    280b98 <puts16+0x25>
    {
      x=0;
      y=y+24;
  280b91:	83 c6 18             	add    $0x18,%esi
  unsigned short  *pt;
  while(*font)
  {
    if(*font=='\n')
    {
      x=0;
  280b94:	31 ff                	xor    %edi,%edi
  280b96:	eb 1d                	jmp    280bb5 <puts16+0x42>
      y=y+24;

    }
    else
    {
	pt=(unsigned short *)((*font)*24+ASCII_Table);
  280b98:	6b c0 30             	imul   $0x30,%eax,%eax
  280b9b:	05 28 1d 28 00       	add    $0x281d28,%eax
	putfont16(vram ,xsize,x,y,color,pt);
  280ba0:	50                   	push   %eax
  280ba1:	53                   	push   %ebx
  280ba2:	56                   	push   %esi
  280ba3:	57                   	push   %edi
	x=x+16;
  280ba4:	83 c7 10             	add    $0x10,%edi

    }
    else
    {
	pt=(unsigned short *)((*font)*24+ASCII_Table);
	putfont16(vram ,xsize,x,y,color,pt);
  280ba7:	ff 75 0c             	pushl  0xc(%ebp)
  280baa:	ff 75 08             	pushl  0x8(%ebp)
  280bad:	e8 71 ff ff ff       	call   280b23 <putfont16>
	x=x+16;
  280bb2:	83 c4 18             	add    $0x18,%esp


    }

     font++;
  280bb5:	ff 45 1c             	incl   0x1c(%ebp)
  280bb8:	eb c9                	jmp    280b83 <puts16+0x10>

  }

}
  280bba:	8d 65 f4             	lea    -0xc(%ebp),%esp
  280bbd:	5b                   	pop    %ebx
  280bbe:	5e                   	pop    %esi
  280bbf:	5f                   	pop    %edi
  280bc0:	5d                   	pop    %ebp
  280bc1:	c3                   	ret    

00280bc2 <setgdt>:
#include<header.h>



void setgdt(struct GDT *sd ,unsigned int limit,int base,int access)//sd: selector describe
{
  280bc2:	55                   	push   %ebp
  280bc3:	89 e5                	mov    %esp,%ebp
  280bc5:	8b 55 0c             	mov    0xc(%ebp),%edx
  280bc8:	57                   	push   %edi
  280bc9:	8b 45 08             	mov    0x8(%ebp),%eax
  280bcc:	56                   	push   %esi
  280bcd:	8b 7d 14             	mov    0x14(%ebp),%edi
  280bd0:	53                   	push   %ebx
  280bd1:	8b 5d 10             	mov    0x10(%ebp),%ebx
  if(limit>0xffff)
  280bd4:	81 fa ff ff 00 00    	cmp    $0xffff,%edx
  280bda:	76 09                	jbe    280be5 <setgdt+0x23>
  {
    access|=0x8000;
  280bdc:	81 cf 00 80 00 00    	or     $0x8000,%edi
    limit /=0x1000;
  280be2:	c1 ea 0c             	shr    $0xc,%edx
  }
  sd->limit_low=limit&0xffff;
  sd->base_low=base &0xffff;
  sd->base_mid=(base>>16)&0xff;
  280be5:	89 de                	mov    %ebx,%esi
  280be7:	c1 fe 10             	sar    $0x10,%esi
  280bea:	89 f1                	mov    %esi,%ecx
  280bec:	88 48 04             	mov    %cl,0x4(%eax)
  sd->access_right=access&0xff;
  280bef:	89 f9                	mov    %edi,%ecx
  sd->limit_high=((limit>>16)&0x0f)|((access>>8)&0xf0);//低４位是limt的高位，高４位是访问的权限设置。
  280bf1:	c1 ff 08             	sar    $0x8,%edi
    limit /=0x1000;
  }
  sd->limit_low=limit&0xffff;
  sd->base_low=base &0xffff;
  sd->base_mid=(base>>16)&0xff;
  sd->access_right=access&0xff;
  280bf4:	88 48 05             	mov    %cl,0x5(%eax)
  sd->limit_high=((limit>>16)&0x0f)|((access>>8)&0xf0);//低４位是limt的高位，高４位是访问的权限设置。
  280bf7:	89 f9                	mov    %edi,%ecx
  if(limit>0xffff)
  {
    access|=0x8000;
    limit /=0x1000;
  }
  sd->limit_low=limit&0xffff;
  280bf9:	66 89 10             	mov    %dx,(%eax)
  sd->base_low=base &0xffff;
  sd->base_mid=(base>>16)&0xff;
  sd->access_right=access&0xff;
  sd->limit_high=((limit>>16)&0x0f)|((access>>8)&0xf0);//低４位是limt的高位，高４位是访问的权限设置。
  280bfc:	83 e1 f0             	and    $0xfffffff0,%ecx
  280bff:	c1 ea 10             	shr    $0x10,%edx
  {
    access|=0x8000;
    limit /=0x1000;
  }
  sd->limit_low=limit&0xffff;
  sd->base_low=base &0xffff;
  280c02:	66 89 58 02          	mov    %bx,0x2(%eax)
  sd->base_mid=(base>>16)&0xff;
  sd->access_right=access&0xff;
  sd->limit_high=((limit>>16)&0x0f)|((access>>8)&0xf0);//低４位是limt的高位，高４位是访问的权限设置。
  280c06:	09 d1                	or     %edx,%ecx
  sd->base_high=(base>>24)&0xff;
  280c08:	c1 eb 18             	shr    $0x18,%ebx
  }
  sd->limit_low=limit&0xffff;
  sd->base_low=base &0xffff;
  sd->base_mid=(base>>16)&0xff;
  sd->access_right=access&0xff;
  sd->limit_high=((limit>>16)&0x0f)|((access>>8)&0xf0);//低４位是limt的高位，高４位是访问的权限设置。
  280c0b:	88 48 06             	mov    %cl,0x6(%eax)
  sd->base_high=(base>>24)&0xff;
  280c0e:	88 58 07             	mov    %bl,0x7(%eax)

}
  280c11:	5b                   	pop    %ebx
  280c12:	5e                   	pop    %esi
  280c13:	5f                   	pop    %edi
  280c14:	5d                   	pop    %ebp
  280c15:	c3                   	ret    

00280c16 <setidt>:

void setidt(struct IDT *gd,int offset,int selector,int access)//gd: gate describe
{
  280c16:	55                   	push   %ebp
  280c17:	89 e5                	mov    %esp,%ebp
  280c19:	8b 45 08             	mov    0x8(%ebp),%eax
  280c1c:	8b 4d 0c             	mov    0xc(%ebp),%ecx
  280c1f:	8b 55 14             	mov    0x14(%ebp),%edx
  //idt中有32位的offset address
  gd->offset_low=offset & 0xffff;
  280c22:	66 89 08             	mov    %cx,(%eax)
  gd->offset_high=(offset>>16)&0xffff;
  280c25:	c1 e9 10             	shr    $0x10,%ecx
  280c28:	66 89 48 06          	mov    %cx,0x6(%eax)

  //16位的selector决定了base address
  gd->selector=selector;
  280c2c:	8b 4d 10             	mov    0x10(%ebp),%ecx

  gd->dw_count=(access>>8)&0xff;
  gd->access_right=(char)(access&0xff);//晕倒啊，是不是啊，天啊，访问权限是一个非常重要的量，错一点都不行的
  280c2f:	88 50 05             	mov    %dl,0x5(%eax)
  //idt中有32位的offset address
  gd->offset_low=offset & 0xffff;
  gd->offset_high=(offset>>16)&0xffff;

  //16位的selector决定了base address
  gd->selector=selector;
  280c32:	66 89 48 02          	mov    %cx,0x2(%eax)

  gd->dw_count=(access>>8)&0xff;
  280c36:	89 d1                	mov    %edx,%ecx
  280c38:	c1 f9 08             	sar    $0x8,%ecx
  280c3b:	88 48 04             	mov    %cl,0x4(%eax)
  gd->access_right=(char)(access&0xff);//晕倒啊，是不是啊，天啊，访问权限是一个非常重要的量，错一点都不行的


}
  280c3e:	5d                   	pop    %ebp
  280c3f:	c3                   	ret    

00280c40 <init_gdtidt>:



void  init_gdtidt()
{
  280c40:	55                   	push   %ebp
  280c41:	89 e5                	mov    %esp,%ebp
  280c43:	53                   	push   %ebx
  280c44:	53                   	push   %ebx
  280c45:	bb 00 00 27 00       	mov    $0x270000,%ebx
  struct GDT *gdt=(struct GDT *)(0x00270000);
  struct IDT *idt=(struct IDT *)(0x0026f800);
  int i;
  for(i=0;i<8192;i++)
  {
    setgdt(gdt+i,0,0,0);
  280c4a:	6a 00                	push   $0x0
  280c4c:	6a 00                	push   $0x0
  280c4e:	6a 00                	push   $0x0
  280c50:	53                   	push   %ebx
  280c51:	83 c3 08             	add    $0x8,%ebx
  280c54:	e8 69 ff ff ff       	call   280bc2 <setgdt>
void  init_gdtidt()
{
  struct GDT *gdt=(struct GDT *)(0x00270000);
  struct IDT *idt=(struct IDT *)(0x0026f800);
  int i;
  for(i=0;i<8192;i++)
  280c59:	83 c4 10             	add    $0x10,%esp
  280c5c:	81 fb 00 00 28 00    	cmp    $0x280000,%ebx
  280c62:	75 e6                	jne    280c4a <init_gdtidt+0xa>
  {
    setgdt(gdt+i,0,0,0);
  }
  setgdt(gdt+1,0xffffffff   ,0x00000000,0x4092);//entry.s main.c data 4GB空间的数据都能访问
  280c64:	68 92 40 00 00       	push   $0x4092
  280c69:	6a 00                	push   $0x0
  280c6b:	6a ff                	push   $0xffffffff
  280c6d:	68 08 00 27 00       	push   $0x270008
  280c72:	e8 4b ff ff ff       	call   280bc2 <setgdt>
  setgdt(gdt+2,0x000fffff   ,0x00000000,0x409a);//entry.S code
  280c77:	68 9a 40 00 00       	push   $0x409a
  280c7c:	6a 00                	push   $0x0
  280c7e:	68 ff ff 0f 00       	push   $0xfffff
  280c83:	68 10 00 27 00       	push   $0x270010
  280c88:	e8 35 ff ff ff       	call   280bc2 <setgdt>
  setgdt(gdt+3,0x000fffff   ,0x00280000,0x409a);  //main.c code　 0x7ffff=512kB
  280c8d:	83 c4 20             	add    $0x20,%esp
  280c90:	68 9a 40 00 00       	push   $0x409a
  280c95:	68 00 00 28 00       	push   $0x280000
  280c9a:	68 ff ff 0f 00       	push   $0xfffff
  280c9f:	68 18 00 27 00       	push   $0x270018
  280ca4:	e8 19 ff ff ff       	call   280bc2 <setgdt>

   load_gdtr(0xfff,0X00270000);//this is right
  280ca9:	5a                   	pop    %edx
  280caa:	59                   	pop    %ecx
  280cab:	68 00 00 27 00       	push   $0x270000
  280cb0:	68 ff 0f 00 00       	push   $0xfff
  280cb5:	e8 d1 01 00 00       	call   280e8b <load_gdtr>
  280cba:	83 c4 10             	add    $0x10,%esp
  280cbd:	31 c0                	xor    %eax,%eax
}

void setidt(struct IDT *gd,int offset,int selector,int access)//gd: gate describe
{
  //idt中有32位的offset address
  gd->offset_low=offset & 0xffff;
  280cbf:	66 c7 80 00 f8 26 00 	movw   $0x0,0x26f800(%eax)
  280cc6:	00 00 
  280cc8:	83 c0 08             	add    $0x8,%eax
  gd->offset_high=(offset>>16)&0xffff;
  280ccb:	66 c7 80 fe f7 26 00 	movw   $0x0,0x26f7fe(%eax)
  280cd2:	00 00 

  //16位的selector决定了base address
  gd->selector=selector;
  280cd4:	66 c7 80 fa f7 26 00 	movw   $0x0,0x26f7fa(%eax)
  280cdb:	00 00 

  gd->dw_count=(access>>8)&0xff;
  280cdd:	c6 80 fc f7 26 00 00 	movb   $0x0,0x26f7fc(%eax)
  gd->access_right=(char)(access&0xff);//晕倒啊，是不是啊，天啊，访问权限是一个非常重要的量，错一点都不行的
  280ce4:	c6 80 fd f7 26 00 00 	movb   $0x0,0x26f7fd(%eax)
  setgdt(gdt+2,0x000fffff   ,0x00000000,0x409a);//entry.S code
  setgdt(gdt+3,0x000fffff   ,0x00280000,0x409a);  //main.c code　 0x7ffff=512kB

   load_gdtr(0xfff,0X00270000);//this is right

  for(i=0;i<256;i++)
  280ceb:	3d 00 08 00 00       	cmp    $0x800,%eax
  280cf0:	75 cd                	jne    280cbf <init_gdtidt+0x7f>

void setidt(struct IDT *gd,int offset,int selector,int access)//gd: gate describe
{
  //idt中有32位的offset address
  gd->offset_low=offset & 0xffff;
  gd->offset_high=(offset>>16)&0xffff;
  280cf2:	ba 55 0e 28 00       	mov    $0x280e55,%edx
  280cf7:	66 31 c0             	xor    %ax,%ax
  280cfa:	c1 ea 10             	shr    $0x10,%edx
}

void setidt(struct IDT *gd,int offset,int selector,int access)//gd: gate describe
{
  //idt中有32位的offset address
  gd->offset_low=offset & 0xffff;
  280cfd:	b9 55 0e 28 00       	mov    $0x280e55,%ecx
  280d02:	66 89 88 00 f8 26 00 	mov    %cx,0x26f800(%eax)
  280d09:	83 c0 08             	add    $0x8,%eax
  gd->offset_high=(offset>>16)&0xffff;
  280d0c:	66 89 90 fe f7 26 00 	mov    %dx,0x26f7fe(%eax)

  //16位的selector决定了base address
  gd->selector=selector;
  280d13:	66 c7 80 fa f7 26 00 	movw   $0x18,0x26f7fa(%eax)
  280d1a:	18 00 

  gd->dw_count=(access>>8)&0xff;
  280d1c:	c6 80 fc f7 26 00 00 	movb   $0x0,0x26f7fc(%eax)
  gd->access_right=(char)(access&0xff);//晕倒啊，是不是啊，天啊，访问权限是一个非常重要的量，错一点都不行的
  280d23:	c6 80 fd f7 26 00 8e 	movb   $0x8e,0x26f7fd(%eax)
  for(i=0;i<256;i++)
  {
    setidt(idt+i,0,0,0);
  }

  for(i=0;i<256;i++)
  280d2a:	3d 00 08 00 00       	cmp    $0x800,%eax
  280d2f:	75 d1                	jne    280d02 <init_gdtidt+0xc2>
  {
      setidt(idt+i,(int)asm_inthandler21,3*8,0x008e);//用printdebug显示之后，证明这一部分是写进去了

  }
  setidt(idt+0x21,(int)asm_inthandler21-0x280000,3*8,0x008e);//挂载keyboard interrupt service
  280d31:	b8 55 0e 00 00       	mov    $0xe55,%eax
}

void setidt(struct IDT *gd,int offset,int selector,int access)//gd: gate describe
{
  //idt中有32位的offset address
  gd->offset_low=offset & 0xffff;
  280d36:	66 a3 08 f9 26 00    	mov    %ax,0x26f908
  gd->offset_high=(offset>>16)&0xffff;
  280d3c:	c1 e8 10             	shr    $0x10,%eax
  280d3f:	66 a3 0e f9 26 00    	mov    %ax,0x26f90e
  {
      setidt(idt+i,(int)asm_inthandler21,3*8,0x008e);//用printdebug显示之后，证明这一部分是写进去了

  }
  setidt(idt+0x21,(int)asm_inthandler21-0x280000,3*8,0x008e);//挂载keyboard interrupt service
  setidt(idt+0x2c,(int)asm_inthandler2c-0x280000,3*8,0x008e);//挂载mouse 　　interrupt service
  280d45:	b8 70 0e 00 00       	mov    $0xe70,%eax
}

void setidt(struct IDT *gd,int offset,int selector,int access)//gd: gate describe
{
  //idt中有32位的offset address
  gd->offset_low=offset & 0xffff;
  280d4a:	66 a3 60 f9 26 00    	mov    %ax,0x26f960
  gd->offset_high=(offset>>16)&0xffff;
  280d50:	c1 e8 10             	shr    $0x10,%eax
  280d53:	66 a3 66 f9 26 00    	mov    %ax,0x26f966

  //16位的selector决定了base address
  gd->selector=selector;
  280d59:	66 c7 05 0a f9 26 00 	movw   $0x18,0x26f90a
  280d60:	18 00 

  gd->dw_count=(access>>8)&0xff;
  280d62:	c6 05 0c f9 26 00 00 	movb   $0x0,0x26f90c
  gd->access_right=(char)(access&0xff);//晕倒啊，是不是啊，天啊，访问权限是一个非常重要的量，错一点都不行的
  280d69:	c6 05 0d f9 26 00 8e 	movb   $0x8e,0x26f90d
  //idt中有32位的offset address
  gd->offset_low=offset & 0xffff;
  gd->offset_high=(offset>>16)&0xffff;

  //16位的selector决定了base address
  gd->selector=selector;
  280d70:	66 c7 05 62 f9 26 00 	movw   $0x18,0x26f962
  280d77:	18 00 

  gd->dw_count=(access>>8)&0xff;
  280d79:	c6 05 64 f9 26 00 00 	movb   $0x0,0x26f964
  gd->access_right=(char)(access&0xff);//晕倒啊，是不是啊，天啊，访问权限是一个非常重要的量，错一点都不行的
  280d80:	c6 05 65 f9 26 00 8e 	movb   $0x8e,0x26f965

 // setidt(idt+0x21,(int)asm_inthandler21,2*8,0x008e);//挂载keyboard interrupt service
 // setidt(idt+0x2c,(int)asm_inthandler2c,2*8,0x008e);//挂载mouse 　　interrupt serv
  //printdebug(asm_inthandler2c,0);

  load_idtr(0x7ff,0x0026f800);//this is right
  280d87:	50                   	push   %eax
  280d88:	50                   	push   %eax
  280d89:	68 00 f8 26 00       	push   $0x26f800
  280d8e:	68 ff 07 00 00       	push   $0x7ff
  280d93:	e8 03 01 00 00       	call   280e9b <load_idtr>
  280d98:	83 c4 10             	add    $0x10,%esp



  return;

}
  280d9b:	8b 5d fc             	mov    -0x4(%ebp),%ebx
  280d9e:	c9                   	leave  
  280d9f:	c3                   	ret    

00280da0 <init_pic>:
#define PIC1_ICW4		0x00a1
*/

//remap irq0-irq15到int 0x20到int 0x2f
void init_pic()
{
  280da0:	55                   	push   %ebp
// out:write a data to a port
static __inline void
outb(int port, uint8_t data)
{
  //data是变量0%0 , port是变量word１%w1
	__asm __volatile("outb %0,%w1" : : "a" (data), "d" (port));
  280da1:	ba 21 00 00 00       	mov    $0x21,%edx
  280da6:	89 e5                	mov    %esp,%ebp
  280da8:	b0 ff                	mov    $0xff,%al
  280daa:	ee                   	out    %al,(%dx)
  280dab:	b2 a1                	mov    $0xa1,%dl
  280dad:	ee                   	out    %al,(%dx)
  280dae:	b0 11                	mov    $0x11,%al
  280db0:	b2 20                	mov    $0x20,%dl
  280db2:	ee                   	out    %al,(%dx)
  280db3:	b0 20                	mov    $0x20,%al
  280db5:	b2 21                	mov    $0x21,%dl
  280db7:	ee                   	out    %al,(%dx)
  280db8:	b0 04                	mov    $0x4,%al
  280dba:	ee                   	out    %al,(%dx)
  280dbb:	b0 01                	mov    $0x1,%al
  280dbd:	ee                   	out    %al,(%dx)
  280dbe:	b0 11                	mov    $0x11,%al
  280dc0:	b2 a0                	mov    $0xa0,%dl
  280dc2:	ee                   	out    %al,(%dx)
  280dc3:	b0 28                	mov    $0x28,%al
  280dc5:	b2 a1                	mov    $0xa1,%dl
  280dc7:	ee                   	out    %al,(%dx)
  280dc8:	b0 02                	mov    $0x2,%al
  280dca:	ee                   	out    %al,(%dx)
  280dcb:	b0 01                	mov    $0x1,%al
  280dcd:	ee                   	out    %al,(%dx)
  280dce:	b0 fb                	mov    $0xfb,%al
  280dd0:	b2 21                	mov    $0x21,%dl
  280dd2:	ee                   	out    %al,(%dx)
  280dd3:	b0 ff                	mov    $0xff,%al
  280dd5:	b2 a1                	mov    $0xa1,%dl
  280dd7:	ee                   	out    %al,(%dx)

所以cpu发现是产生了int 0到int0x1f时，就知道是非常重要的中断产生了，是不可mask的，一定要执行的。

   */

}
  280dd8:	5d                   	pop    %ebp
  280dd9:	c3                   	ret    

00280dda <inthandler21>:
struct FIFO8 keyfifo;//a global data
//上面是一个全局变量

//interrupt service procedure for keyboard  中断服务程序，读取按键的键值。
void inthandler21(int *esp)
{
  280dda:	55                   	push   %ebp
  280ddb:	ba 20 00 00 00       	mov    $0x20,%edx
  280de0:	89 e5                	mov    %esp,%ebp
  280de2:	b0 61                	mov    $0x61,%al
  280de4:	83 ec 10             	sub    $0x10,%esp
  280de7:	ee                   	out    %al,(%dx)
static __inline uint8_t
inb(int port)
{
  //read a byte from port
	uint8_t data;
	__asm __volatile("inb %w1,%0" : "=a" (data) : "d" (port));
  280de8:	b2 60                	mov    $0x60,%dl
  280dea:	ec                   	in     (%dx),%al
  //struct  boot_info *binfo=(struct boot_info *)ADDR_BOOT;
  unsigned char data;
  outb(PIC0_OCW2,0X61);//0X61-->PIC0_OCW2 　告之pic0这个芯片，irq1中断(就是keyboard产生的中断)cpu已经处理，这样pic0才会响应　下一次的irq1中断
  //如果不告之pic0已经处理了这次中断，pico对已后的irq1中断就会响应了。这种cpu处理完了中断，对pic0的反馈机制是非常好的，不会漏掉任何数据。
  data=inb(PORT_KEYDAT);
  fifo8_write(&keyfifo,data);
  280deb:	0f b6 c0             	movzbl %al,%eax
  280dee:	50                   	push   %eax
  280def:	68 b8 37 28 00       	push   $0x2837b8
  280df4:	e8 dd 00 00 00       	call   280ed6 <fifo8_write>
  280df9:	83 c4 10             	add    $0x10,%esp
  //puts8((char *)binfo->vram ,binfo->xsize,0,0,7,s);

  //while(1)
  //io_halt();
  
}
  280dfc:	c9                   	leave  
  280dfd:	c3                   	ret    

00280dfe <inthandler2c>:
//中断处理程序不应该有大量的处理部分，应该得到数据后，马上回去，在主函数中处理信息才是对的，与５１中是一个道理。isr尽量短小。

//interrupt service for mouse 
struct FIFO8 mousefifo;
void inthandler2c(int *esp)//可以看到一运行enable_后就，就产生了中断，进入了这个中断服务函数。
{
  280dfe:	55                   	push   %ebp
// out:write a data to a port
static __inline void
outb(int port, uint8_t data)
{
  //data是变量0%0 , port是变量word１%w1
	__asm __volatile("outb %0,%w1" : : "a" (data), "d" (port));
  280dff:	ba a0 00 00 00       	mov    $0xa0,%edx
  280e04:	89 e5                	mov    %esp,%ebp
  280e06:	b0 64                	mov    $0x64,%al
  280e08:	83 ec 10             	sub    $0x10,%esp
  280e0b:	ee                   	out    %al,(%dx)
  280e0c:	b0 62                	mov    $0x62,%al
  280e0e:	b2 20                	mov    $0x20,%dl
  280e10:	ee                   	out    %al,(%dx)
static __inline uint8_t
inb(int port)
{
  //read a byte from port
	uint8_t data;
	__asm __volatile("inb %w1,%0" : "=a" (data) : "d" (port));
  280e11:	b2 60                	mov    $0x60,%dl
  280e13:	ec                   	in     (%dx),%al
  
  unsigned char data;
  outb(PIC1_OCW2,0X64);//cpu tell pic1　that I got IRQ12 
  outb(PIC0_OCW2,0X62);//cpu tell pic0  that I got IRQ2
  data = inb(PORT_KEYDAT);
  fifo8_write(&mousefifo,data);
  280e14:	0f b6 c0             	movzbl %al,%eax
  280e17:	50                   	push   %eax
  280e18:	68 d0 37 28 00       	push   $0x2837d0
  280e1d:	e8 b4 00 00 00       	call   280ed6 <fifo8_write>
  280e22:	83 c4 10             	add    $0x10,%esp
  puts8((char *)binfo->vram ,binfo->xsize,0,0,7,"int2c(IRQ-12):PS2/mouse");

 // while(1)
 // hlt();
 */
}
  280e25:	c9                   	leave  
  280e26:	c3                   	ret    

00280e27 <wait_KBC_sendready>:
//for mouse and keyboard control circuit,鼠标，键盘控制电路的初始化。
//#define PORT_KEYDAT 		0X0060


void wait_KBC_sendready(void)				//send ready and wait keyboard control ready
{
  280e27:	55                   	push   %ebp
  280e28:	ba 64 00 00 00       	mov    $0x64,%edx
  280e2d:	89 e5                	mov    %esp,%ebp
  280e2f:	ec                   	in     (%dx),%al
  while(1)
  {
    /*等待按键控制电路准备完毕*/
    if( (inb(PORT_KEYSTA) & KEYSTA_SEND_NOTREADY) == 0)	//读port 0x0064 看bit1是否是为０/if 0 ready ,if 1 not ready　
  280e30:	a8 02                	test   $0x2,%al
  280e32:	75 fb                	jne    280e2f <wait_KBC_sendready+0x8>
    {							//bit 1是０说明键盘控制电路是准备好的，可以接受cpu的指令了。
      break;
    }
  }
  
}
  280e34:	5d                   	pop    %ebp
  280e35:	c3                   	ret    

00280e36 <init_keyboard>:

void init_keyboard(void)
{
  280e36:	55                   	push   %ebp
  280e37:	89 e5                	mov    %esp,%ebp
  /*这里才是真正的初始化按键电路*/
  wait_KBC_sendready();				//wait ready
  280e39:	e8 e9 ff ff ff       	call   280e27 <wait_KBC_sendready>
// out:write a data to a port
static __inline void
outb(int port, uint8_t data)
{
  //data是变量0%0 , port是变量word１%w1
	__asm __volatile("outb %0,%w1" : : "a" (data), "d" (port));
  280e3e:	ba 64 00 00 00       	mov    $0x64,%edx
  280e43:	b0 60                	mov    $0x60,%al
  280e45:	ee                   	out    %al,(%dx)
  outb(PORT_KEYCMD,KEYCMD_WRITE_MODE);		//向port 0x0064写　0x60
  wait_KBC_sendready();				//保证能写入有效的数据到　port 0x0064
  280e46:	e8 dc ff ff ff       	call   280e27 <wait_KBC_sendready>
  280e4b:	ba 60 00 00 00       	mov    $0x60,%edx
  280e50:	b0 47                	mov    $0x47,%al
  280e52:	ee                   	out    %al,(%dx)
  outb(PORT_KEYDAT,KBC_MODE);			//向port 0x0060 写数据0x47
  return;
  
}
  280e53:	5d                   	pop    %ebp
  280e54:	c3                   	ret    

00280e55 <asm_inthandler21>:
.global load_idtr

.code32
#interrupt service about keyboad
asm_inthandler21:
  pushw %es
  280e55:	66 06                	pushw  %es
  pushw %ds
  280e57:	66 1e                	pushw  %ds
  pushal
  280e59:	60                   	pusha  
  movl %esp,%eax
  280e5a:	89 e0                	mov    %esp,%eax
  pushl %eax
  280e5c:	50                   	push   %eax
  movw %ss,%ax
  280e5d:	66 8c d0             	mov    %ss,%ax
  movw %ax,%ds
  280e60:	8e d8                	mov    %eax,%ds
  movw %ax,%es
  280e62:	8e c0                	mov    %eax,%es
  call inthandler21
  280e64:	e8 71 ff ff ff       	call   280dda <inthandler21>
  
  popl %eax
  280e69:	58                   	pop    %eax
  popal
  280e6a:	61                   	popa   
  popw %ds
  280e6b:	66 1f                	popw   %ds
  popW %es
  280e6d:	66 07                	popw   %es
  iretl
  280e6f:	cf                   	iret   

00280e70 <asm_inthandler2c>:
  
#interrupt service about mouse
asm_inthandler2c:
  pushw %es
  280e70:	66 06                	pushw  %es
  pushw %ds
  280e72:	66 1e                	pushw  %ds
  pushal
  280e74:	60                   	pusha  
  movl %esp,%eax
  280e75:	89 e0                	mov    %esp,%eax
  pushl %eax
  280e77:	50                   	push   %eax
  movw %ss,%ax
  280e78:	66 8c d0             	mov    %ss,%ax
  movw %ax,%ds
  280e7b:	8e d8                	mov    %eax,%ds
  movw %ax,%es
  280e7d:	8e c0                	mov    %eax,%es
  call inthandler2c
  280e7f:	e8 7a ff ff ff       	call   280dfe <inthandler2c>
  
  popl %eax
  280e84:	58                   	pop    %eax
  popal
  280e85:	61                   	popa   
  popw %ds
  280e86:	66 1f                	popw   %ds
  popW %es
  280e88:	66 07                	popw   %es
  iretl
  280e8a:	cf                   	iret   

00280e8b <load_gdtr>:
  #iret 与iretl有什么区别？？？
load_gdtr:		#; void load_gdtr(int limit, int addr);
  mov 4(%esp) ,%ax
  280e8b:	66 8b 44 24 04       	mov    0x4(%esp),%ax
  mov %ax,6(%esp)
  280e90:	66 89 44 24 06       	mov    %ax,0x6(%esp)
  lgdt 6(%esp)
  280e95:	0f 01 54 24 06       	lgdtl  0x6(%esp)
  ret
  280e9a:	c3                   	ret    

00280e9b <load_idtr>:


load_idtr:		#; void load_idtr(int limit, int addr);
  mov 4(%esp) ,%ax
  280e9b:	66 8b 44 24 04       	mov    0x4(%esp),%ax
  mov %ax,6(%esp)
  280ea0:	66 89 44 24 06       	mov    %ax,0x6(%esp)
  lidt 6(%esp)
  280ea5:	0f 01 5c 24 06       	lidtl  0x6(%esp)
  280eaa:	c3                   	ret    

00280eab <fifo8_init>:
#include<header.h>

//初始化fifo8,是对一个结构体类型的变量进行初始化，这个结构体类型的变量就是一个fifo对象。
void fifo8_init(struct FIFO8 *fifo,int size ,unsigned char *buf)
{
  280eab:	55                   	push   %ebp
  280eac:	89 e5                	mov    %esp,%ebp
  280eae:	8b 45 08             	mov    0x8(%ebp),%eax
  280eb1:	8b 55 0c             	mov    0xc(%ebp),%edx
  fifo->buf=buf;
  280eb4:	8b 4d 10             	mov    0x10(%ebp),%ecx
  fifo->size=size;
  fifo->free=size;
  fifo->nr=0;
  280eb7:	c7 40 08 00 00 00 00 	movl   $0x0,0x8(%eax)

//初始化fifo8,是对一个结构体类型的变量进行初始化，这个结构体类型的变量就是一个fifo对象。
void fifo8_init(struct FIFO8 *fifo,int size ,unsigned char *buf)
{
  fifo->buf=buf;
  fifo->size=size;
  280ebe:	89 50 0c             	mov    %edx,0xc(%eax)
#include<header.h>

//初始化fifo8,是对一个结构体类型的变量进行初始化，这个结构体类型的变量就是一个fifo对象。
void fifo8_init(struct FIFO8 *fifo,int size ,unsigned char *buf)
{
  fifo->buf=buf;
  280ec1:	89 08                	mov    %ecx,(%eax)
  fifo->size=size;
  fifo->free=size;
  280ec3:	89 50 10             	mov    %edx,0x10(%eax)
  fifo->nr=0;
  fifo->nw=0;
  280ec6:	c7 40 04 00 00 00 00 	movl   $0x0,0x4(%eax)
  fifo->flags=0;
  280ecd:	c7 40 14 00 00 00 00 	movl   $0x0,0x14(%eax)
}
  280ed4:	5d                   	pop    %ebp
  280ed5:	c3                   	ret    

00280ed6 <fifo8_write>:


#define FLAGS_OVERRUN 0X0001
//下面的函数是对fifo类型的变量，写入数据。
int fifo8_write(struct FIFO8 *fifo,unsigned char data)
{
  280ed6:	55                   	push   %ebp
  280ed7:	89 e5                	mov    %esp,%ebp
  280ed9:	8b 45 08             	mov    0x8(%ebp),%eax
  280edc:	53                   	push   %ebx
  280edd:	8b 5d 0c             	mov    0xc(%ebp),%ebx
  if(fifo->free==0)//fifo is full ,no room for any data
  280ee0:	83 78 10 00          	cmpl   $0x0,0x10(%eax)
  280ee4:	75 09                	jne    280eef <fifo8_write+0x19>
  {
    fifo->flags|=FLAGS_OVERRUN;//if fifo->flags is TRUE, fifo已经满了，不能再写了。
  280ee6:	83 48 14 01          	orl    $0x1,0x14(%eax)
    return -1; //write error
  280eea:	83 c8 ff             	or     $0xffffffff,%eax
  280eed:	eb 22                	jmp    280f11 <fifo8_write+0x3b>
  }
  
  
 fifo->buf[fifo->nw]=data;
  280eef:	8b 50 04             	mov    0x4(%eax),%edx
  280ef2:	8b 08                	mov    (%eax),%ecx
  280ef4:	88 1c 11             	mov    %bl,(%ecx,%edx,1)
 fifo->nw++;
  280ef7:	8b 48 04             	mov    0x4(%eax),%ecx
  280efa:	8d 51 01             	lea    0x1(%ecx),%edx
 if(fifo->nw==fifo->size)
  280efd:	3b 50 0c             	cmp    0xc(%eax),%edx
    return -1; //write error
  }
  
  
 fifo->buf[fifo->nw]=data;
 fifo->nw++;
  280f00:	89 50 04             	mov    %edx,0x4(%eax)
 if(fifo->nw==fifo->size)
  280f03:	75 07                	jne    280f0c <fifo8_write+0x36>
 {
  fifo->nw=0;  
  280f05:	c7 40 04 00 00 00 00 	movl   $0x0,0x4(%eax)
 }
 fifo->free--;
  280f0c:	ff 48 10             	decl   0x10(%eax)
 return 0;//write sucessful
  280f0f:	31 c0                	xor    %eax,%eax
 
}
  280f11:	5b                   	pop    %ebx
  280f12:	5d                   	pop    %ebp
  280f13:	c3                   	ret    

00280f14 <fifo8_read>:
//只有写fifo 会有fifo full的情况，
//读fifo时，会有empty的情况。
int fifo8_read(struct FIFO8 *fifo)
{
  280f14:	55                   	push   %ebp
  280f15:	89 e5                	mov    %esp,%ebp
  280f17:	8b 55 08             	mov    0x8(%ebp),%edx
  280f1a:	57                   	push   %edi
  280f1b:	56                   	push   %esi
  280f1c:	53                   	push   %ebx
  int data;
  if(fifo->free==fifo->size)//fifo is empty ,no data is useful
  280f1d:	8b 5a 10             	mov    0x10(%edx),%ebx
  280f20:	8b 7a 0c             	mov    0xc(%edx),%edi
  280f23:	39 fb                	cmp    %edi,%ebx
  280f25:	74 1a                	je     280f41 <fifo8_read+0x2d>
  {
    return -1;
  }
  
  data=fifo->buf[fifo->nr];
  280f27:	8b 72 08             	mov    0x8(%edx),%esi
  fifo->nr++;
  280f2a:	31 c9                	xor    %ecx,%ecx
  if(fifo->free==fifo->size)//fifo is empty ,no data is useful
  {
    return -1;
  }
  
  data=fifo->buf[fifo->nr];
  280f2c:	8b 02                	mov    (%edx),%eax
  280f2e:	0f b6 04 30          	movzbl (%eax,%esi,1),%eax
  fifo->nr++;
  280f32:	46                   	inc    %esi
  280f33:	39 fe                	cmp    %edi,%esi
  280f35:	0f 45 ce             	cmovne %esi,%ecx
  if(fifo->nr==fifo->size)
  {
    fifo->nr=0;
  }
  fifo->free++;
  280f38:	43                   	inc    %ebx
  {
    return -1;
  }
  
  data=fifo->buf[fifo->nr];
  fifo->nr++;
  280f39:	89 4a 08             	mov    %ecx,0x8(%edx)
  if(fifo->nr==fifo->size)
  {
    fifo->nr=0;
  }
  fifo->free++;
  280f3c:	89 5a 10             	mov    %ebx,0x10(%edx)
  
  return data;
  280f3f:	eb 03                	jmp    280f44 <fifo8_read+0x30>
int fifo8_read(struct FIFO8 *fifo)
{
  int data;
  if(fifo->free==fifo->size)//fifo is empty ,no data is useful
  {
    return -1;
  280f41:	83 c8 ff             	or     $0xffffffff,%eax
  fifo->free++;
  
  return data;
  
  
}
  280f44:	5b                   	pop    %ebx
  280f45:	5e                   	pop    %esi
  280f46:	5f                   	pop    %edi
  280f47:	5d                   	pop    %ebp
  280f48:	c3                   	ret    

00280f49 <fifo8_status>:

int fifo8_status(struct FIFO8 *fifo)
{
  280f49:	55                   	push   %ebp
  280f4a:	89 e5                	mov    %esp,%ebp
  280f4c:	8b 55 08             	mov    0x8(%ebp),%edx
  return fifo->size-fifo->free;//总数－空的＝有多个data在fifo中。
  280f4f:	5d                   	pop    %ebp
  
}

int fifo8_status(struct FIFO8 *fifo)
{
  return fifo->size-fifo->free;//总数－空的＝有多个data在fifo中。
  280f50:	8b 42 0c             	mov    0xc(%edx),%eax
  280f53:	2b 42 10             	sub    0x10(%edx),%eax
  280f56:	c3                   	ret    

00280f57 <enable_mouse>:
#include<header.h>
//激活鼠标的指令　还是向键盘控制器发送指令
#define KEYCMD_SENDTO_MOUSE 	0XD4
#define MOUSECMD_ENABLE     	0XF4
void enable_mouse(struct MOUSE_DEC *mdec)
{
  280f57:	55                   	push   %ebp
  280f58:	89 e5                	mov    %esp,%ebp
  280f5a:	83 ec 08             	sub    $0x8,%esp
  wait_KBC_sendready();			//等待port 0x0060,0x0064可用
  280f5d:	e8 c5 fe ff ff       	call   280e27 <wait_KBC_sendready>
  280f62:	ba 64 00 00 00       	mov    $0x64,%edx
  280f67:	b0 d4                	mov    $0xd4,%al
  280f69:	ee                   	out    %al,(%dx)
  outb(PORT_KEYCMD,KEYCMD_SENDTO_MOUSE);//向port 0x0064　写　0XD4命令  下面的命令发给mouse
  wait_KBC_sendready();			//等待port 0x0060,0x0064可用
  280f6a:	e8 b8 fe ff ff       	call   280e27 <wait_KBC_sendready>
  280f6f:	ba 60 00 00 00       	mov    $0x60,%edx
  280f74:	b0 f4                	mov    $0xf4,%al
  280f76:	ee                   	out    %al,(%dx)
  outb(PORT_KEYDAT,MOUSECMD_ENABLE); 	//向port 0x0060　写　0Xf4命令  给mouse发送enable命令
  
  mdec->phase=0;
  280f77:	8b 45 08             	mov    0x8(%ebp),%eax
  280f7a:	c6 40 03 00          	movb   $0x0,0x3(%eax)
  return ; 				//if sucessful ,will create an interrupt ,and return ０xfa(ACK),产生的这个0xfa是给cpu的答复信号
					//就算鼠标不动，也会产生这个中断，所以我们一调用enable_mouse，就会产生鼠标中断，必须有这个服务函数。  
}
  280f7e:	c9                   	leave  
  280f7f:	c3                   	ret    

00280f80 <mouse_decode>:


int mouse_decode(struct MOUSE_DEC *mdec,unsigned char data)
{
  280f80:	55                   	push   %ebp
  280f81:	89 e5                	mov    %esp,%ebp
  280f83:	8b 55 08             	mov    0x8(%ebp),%edx
  280f86:	53                   	push   %ebx
  280f87:	8b 4d 0c             	mov    0xc(%ebp),%ecx
  if(mdec->phase==0)
  280f8a:	8a 42 03             	mov    0x3(%edx),%al
  280f8d:	84 c0                	test   %al,%al
  280f8f:	75 0d                	jne    280f9e <mouse_decode+0x1e>
    if(data==0xfa)
    {
      mdec->phase = 1;
      
    }   
    return 0;
  280f91:	31 c0                	xor    %eax,%eax

int mouse_decode(struct MOUSE_DEC *mdec,unsigned char data)
{
  if(mdec->phase==0)
  {
    if(data==0xfa)
  280f93:	80 f9 fa             	cmp    $0xfa,%cl
  280f96:	75 73                	jne    28100b <mouse_decode+0x8b>
    {
      mdec->phase = 1;
  280f98:	c6 42 03 01          	movb   $0x1,0x3(%edx)
  280f9c:	eb 6d                	jmp    28100b <mouse_decode+0x8b>
      
    }   
    return 0;
  }
  else if(mdec->phase==1) 
  280f9e:	3c 01                	cmp    $0x1,%al
  280fa0:	75 11                	jne    280fb3 <mouse_decode+0x33>
  {
    //鼠标的第一字节的数据
    if( (data & 0xc8) == 0x08 )//如果第一个字节的数据正确  ,只要第一个字节的数据是正确的，后面两个phase的数据就是关于左移 和右移的数据
  280fa2:	88 c8                	mov    %cl,%al
  280fa4:	83 e0 c8             	and    $0xffffffc8,%eax
  280fa7:	3c 08                	cmp    $0x8,%al
  280fa9:	75 5d                	jne    281008 <mouse_decode+0x88>
    {
    mdec->buf[0] = data;
  280fab:	88 0a                	mov    %cl,(%edx)
    mdec->phase  = 2;
  280fad:	c6 42 03 02          	movb   $0x2,0x3(%edx)
  280fb1:	eb 0b                	jmp    280fbe <mouse_decode+0x3e>
    return 0;
    }
  }
  else if(mdec->phase==2) 
  280fb3:	3c 02                	cmp    $0x2,%al
  280fb5:	75 0b                	jne    280fc2 <mouse_decode+0x42>
  {
    mdec->buf[1] = data;
  280fb7:	88 4a 01             	mov    %cl,0x1(%edx)
    mdec->phase  = 3;
  280fba:	c6 42 03 03          	movb   $0x3,0x3(%edx)
    return 0;
  280fbe:	31 c0                	xor    %eax,%eax
  280fc0:	eb 49                	jmp    28100b <mouse_decode+0x8b>
  }
  else if(mdec->phase==3) 
  280fc2:	3c 03                	cmp    $0x3,%al
  280fc4:	75 42                	jne    281008 <mouse_decode+0x88>
  {
    mdec->buf[2] = data;
    mdec->phase  = 1;
    
    
    mdec->button =mdec->buf[0] & 0x07;//0x07=0000 0111  没有按键时为8（1000）左按键是9(1001)，右按键是10(1010) 从buf0解读出lrbutton是否按下，left=1,right=2;
  280fc6:	8a 02                	mov    (%edx),%al
    mdec->phase  = 3;
    return 0;
  }
  else if(mdec->phase==3) 
  {
    mdec->buf[2] = data;
  280fc8:	88 4a 02             	mov    %cl,0x2(%edx)
    mdec->phase  = 1;
    
    
    mdec->button =mdec->buf[0] & 0x07;//0x07=0000 0111  没有按键时为8（1000）左按键是9(1001)，右按键是10(1010) 从buf0解读出lrbutton是否按下，left=1,right=2;
    mdec->x =mdec->buf[1];
    mdec->y =mdec->buf[2];
  280fcb:	0f b6 c9             	movzbl %cl,%ecx
    return 0;
  }
  else if(mdec->phase==3) 
  {
    mdec->buf[2] = data;
    mdec->phase  = 1;
  280fce:	c6 42 03 01          	movb   $0x1,0x3(%edx)
    
    
    mdec->button =mdec->buf[0] & 0x07;//0x07=0000 0111  没有按键时为8（1000）左按键是9(1001)，右按键是10(1010) 从buf0解读出lrbutton是否按下，left=1,right=2;
    mdec->x =mdec->buf[1];
    mdec->y =mdec->buf[2];
  280fd2:	89 4a 08             	mov    %ecx,0x8(%edx)
  {
    mdec->buf[2] = data;
    mdec->phase  = 1;
    
    
    mdec->button =mdec->buf[0] & 0x07;//0x07=0000 0111  没有按键时为8（1000）左按键是9(1001)，右按键是10(1010) 从buf0解读出lrbutton是否按下，left=1,right=2;
  280fd5:	89 c3                	mov    %eax,%ebx
  280fd7:	83 e3 07             	and    $0x7,%ebx
    mdec->x =mdec->buf[1];
    mdec->y =mdec->buf[2];
    
    //why do this 
    if( (mdec->buf[0] & 0x10) != 0)//bit4为1时 1
  280fda:	a8 10                	test   $0x10,%al
  {
    mdec->buf[2] = data;
    mdec->phase  = 1;
    
    
    mdec->button =mdec->buf[0] & 0x07;//0x07=0000 0111  没有按键时为8（1000）左按键是9(1001)，右按键是10(1010) 从buf0解读出lrbutton是否按下，left=1,right=2;
  280fdc:	89 5a 0c             	mov    %ebx,0xc(%edx)
    mdec->x =mdec->buf[1];
  280fdf:	0f b6 5a 01          	movzbl 0x1(%edx),%ebx
  280fe3:	89 5a 04             	mov    %ebx,0x4(%edx)
    mdec->y =mdec->buf[2];
    
    //why do this 
    if( (mdec->buf[0] & 0x10) != 0)//bit4为1时 1
  280fe6:	74 09                	je     280ff1 <mouse_decode+0x71>
    {
      mdec->x |=0xffffff00;//-x 根据buf[0]的bit4为1时，确定鼠标的移动方向是负方向。
  280fe8:	81 cb 00 ff ff ff    	or     $0xffffff00,%ebx
  280fee:	89 5a 04             	mov    %ebx,0x4(%edx)
    }
    if( (mdec->buf[0] & 0x20) != 0)//bit5为1时 2
  280ff1:	a8 20                	test   $0x20,%al
  280ff3:	74 09                	je     280ffe <mouse_decode+0x7e>
    {
      mdec->y |=0xffffff00;//-y
  280ff5:	81 c9 00 ff ff ff    	or     $0xffffff00,%ecx
  280ffb:	89 4a 08             	mov    %ecx,0x8(%edx)
    }
    
    mdec->y= - mdec->y;//鼠标的移动方向与屏幕的方向是相反的。
  280ffe:	f7 5a 08             	negl   0x8(%edx)


    return 1;
  281001:	b8 01 00 00 00       	mov    $0x1,%eax
  281006:	eb 03                	jmp    28100b <mouse_decode+0x8b>
  }
  //buf0中的数据非常的重要，低四位与左右按键有关，高四位与方向有关。
  //高四位0－1－2－3，低四位8 9(left) a(right) b(both) c(middle)
   return -1;
  281008:	83 c8 ff             	or     $0xffffffff,%eax
}
  28100b:	5b                   	pop    %ebx
  28100c:	5d                   	pop    %ebp
  28100d:	c3                   	ret    

0028100e <getmemorysize>:
#include<mm.h>

 //下面的程序只能检测小于4GB的内存，而且 4GB的内存也只能检测为2488MB
unsigned int getmemorysize(unsigned int start,unsigned int end)
{
  28100e:	55                   	push   %ebp
  28100f:	89 e5                	mov    %esp,%ebp
  281011:	8b 45 08             	mov    0x8(%ebp),%eax
  281014:	53                   	push   %ebx
 unsigned int old;


 unsigned int pat0=0xaa55aa55;
 volatile unsigned int *p;//注意这里的volatile关键字,
 for(i=start;i<=end;i+=0x1000)
  281015:	3b 45 0c             	cmp    0xc(%ebp),%eax
  281018:	77 2b                	ja     281045 <getmemorysize+0x37>
 {
  p=(unsigned int *)i+0x200;
  old=*p;
  28101a:	8b 90 00 08 00 00    	mov    0x800(%eax),%edx
  *p=pat0;
  281020:	c7 80 00 08 00 00 55 	movl   $0xaa55aa55,0x800(%eax)
  281027:	aa 55 aa 
  if(*p!=pat0)
  28102a:	8b 98 00 08 00 00    	mov    0x800(%eax),%ebx
  {
   *p=old;
  281030:	89 90 00 08 00 00    	mov    %edx,0x800(%eax)
 for(i=start;i<=end;i+=0x1000)
 {
  p=(unsigned int *)i+0x200;
  old=*p;
  *p=pat0;
  if(*p!=pat0)
  281036:	81 fb 55 aa 55 aa    	cmp    $0xaa55aa55,%ebx
  28103c:	75 07                	jne    281045 <getmemorysize+0x37>
 unsigned int old;


 unsigned int pat0=0xaa55aa55;
 volatile unsigned int *p;//注意这里的volatile关键字,
 for(i=start;i<=end;i+=0x1000)
  28103e:	05 00 10 00 00       	add    $0x1000,%eax
  281043:	eb d0                	jmp    281015 <getmemorysize+0x7>
 }
 return i;//i就是得到的memory size



}
  281045:	5b                   	pop    %ebx
  281046:	5d                   	pop    %ebp
  281047:	c3                   	ret    

00281048 <memtest>:

unsigned int memtest(unsigned int start,unsigned int end)
{
  281048:	55                   	push   %ebp
  281049:	89 e5                	mov    %esp,%ebp
  28104b:	53                   	push   %ebx
//read eflags and write_eflags
static __inline uint32_t
read_eflags(void)
{
        uint32_t eflags;
        __asm __volatile("pushfl; popl %0" : "=r" (eflags));
  28104c:	9c                   	pushf  
  28104d:	58                   	pop    %eax
 char flg486=0;
 unsigned int eflg,cr0,i;
 eflg=read_eflags();
 eflg|=EFLAGS_AC_BIT;
  28104e:	0d 00 00 04 00       	or     $0x40000,%eax
}

static __inline void
write_eflags(uint32_t eflags)
{
        __asm __volatile("pushl %0; popfl" : : "r" (eflags));
  281053:	50                   	push   %eax
  281054:	9d                   	popf   
//read eflags and write_eflags
static __inline uint32_t
read_eflags(void)
{
        uint32_t eflags;
        __asm __volatile("pushfl; popl %0" : "=r" (eflags));
  281055:	9c                   	pushf  
  281056:	58                   	pop    %eax

}

unsigned int memtest(unsigned int start,unsigned int end)
{
 char flg486=0;
  281057:	31 db                	xor    %ebx,%ebx
 eflg=read_eflags();
 eflg|=EFLAGS_AC_BIT;
 write_eflags(eflg);

 eflg=read_eflags();
 if((eflg&EFLAGS_AC_BIT)!=0)
  281059:	a9 00 00 04 00       	test   $0x40000,%eax
  28105e:	74 14                	je     281074 <memtest+0x2c>
 {
  flg486=1;
  eflg&=~EFLAGS_AC_BIT;
  281060:	25 ff ff fb ff       	and    $0xfffbffff,%eax
}

static __inline void
write_eflags(uint32_t eflags)
{
        __asm __volatile("pushl %0; popfl" : : "r" (eflags));
  281065:	50                   	push   %eax
  281066:	9d                   	popf   

static __inline uint32_t
rcr0(void)
{
	uint32_t val;
	__asm __volatile("movl %%cr0,%0" : "=r" (val));
  281067:	0f 20 c0             	mov    %cr0,%eax
  write_eflags(eflg);
 }
 if(flg486)
 {
  cr0=rcr0();
  cr0|=CR0_CACHE_DISABLE;
  28106a:	0d 00 00 00 60       	or     $0x60000000,%eax
}

static __inline void
lcr0(uint32_t val)
{
	__asm __volatile("movl %0,%%cr0" : : "r" (val));
  28106f:	0f 22 c0             	mov    %eax,%cr0
 write_eflags(eflg);

 eflg=read_eflags();
 if((eflg&EFLAGS_AC_BIT)!=0)
 {
  flg486=1;
  281072:	b3 01                	mov    $0x1,%bl
  cr0|=CR0_CACHE_DISABLE;
  lcr0(cr0);
 }


i=getmemorysize(start,end);
  281074:	ff 75 0c             	pushl  0xc(%ebp)
  281077:	ff 75 08             	pushl  0x8(%ebp)
  28107a:	e8 8f ff ff ff       	call   28100e <getmemorysize>
//i=0x100000;

  if(flg486)
  28107f:	84 db                	test   %bl,%bl
  281081:	5a                   	pop    %edx
  281082:	59                   	pop    %ecx
  281083:	74 0c                	je     281091 <memtest+0x49>

static __inline uint32_t
rcr0(void)
{
	uint32_t val;
	__asm __volatile("movl %%cr0,%0" : "=r" (val));
  281085:	0f 20 c2             	mov    %cr0,%edx
  {
  cr0=rcr0();
  cr0&=~CR0_CACHE_DISABLE;
  281088:	81 e2 ff ff ff 9f    	and    $0x9fffffff,%edx
}

static __inline void
lcr0(uint32_t val)
{
	__asm __volatile("movl %0,%%cr0" : : "r" (val));
  28108e:	0f 22 c2             	mov    %edx,%cr0
  lcr0(cr0);

  }

  return i;
}
  281091:	8b 5d fc             	mov    -0x4(%ebp),%ebx
  281094:	c9                   	leave  
  281095:	c3                   	ret    

00281096 <memman_init>:


void memman_init(Memman * man)
{
  281096:	55                   	push   %ebp
  281097:	89 e5                	mov    %esp,%ebp
  281099:	8b 45 08             	mov    0x8(%ebp),%eax
 man->cellnum=0;
  28109c:	c7 00 00 00 00 00    	movl   $0x0,(%eax)
 man->maxcell=0;
  2810a2:	c7 40 04 00 00 00 00 	movl   $0x0,0x4(%eax)
 man->lostsize=0;
  2810a9:	c7 40 08 00 00 00 00 	movl   $0x0,0x8(%eax)
 man->losts=0;
  2810b0:	c7 40 0c 00 00 00 00 	movl   $0x0,0xc(%eax)
}
  2810b7:	5d                   	pop    %ebp
  2810b8:	c3                   	ret    

002810b9 <memman_avail>:
//get available memory
unsigned int memman_avail(Memman *man)
{
  2810b9:	55                   	push   %ebp
 unsigned int i;
 unsigned int freemem=0;
  2810ba:	31 c0                	xor    %eax,%eax
 man->lostsize=0;
 man->losts=0;
}
//get available memory
unsigned int memman_avail(Memman *man)
{
  2810bc:	89 e5                	mov    %esp,%ebp
 unsigned int i;
 unsigned int freemem=0;
 for (i=0;i<man->cellnum;i++)
  2810be:	31 d2                	xor    %edx,%edx
 man->lostsize=0;
 man->losts=0;
}
//get available memory
unsigned int memman_avail(Memman *man)
{
  2810c0:	8b 4d 08             	mov    0x8(%ebp),%ecx
  2810c3:	53                   	push   %ebx
 unsigned int i;
 unsigned int freemem=0;
 for (i=0;i<man->cellnum;i++)
  2810c4:	8b 19                	mov    (%ecx),%ebx
  2810c6:	39 da                	cmp    %ebx,%edx
  2810c8:	74 07                	je     2810d1 <memman_avail+0x18>
 {
   freemem+=man->cell[i].size;
  2810ca:	03 44 d1 14          	add    0x14(%ecx,%edx,8),%eax
//get available memory
unsigned int memman_avail(Memman *man)
{
 unsigned int i;
 unsigned int freemem=0;
 for (i=0;i<man->cellnum;i++)
  2810ce:	42                   	inc    %edx
  2810cf:	eb f5                	jmp    2810c6 <memman_avail+0xd>
 {
   freemem+=man->cell[i].size;
 }
 return freemem;
}
  2810d1:	5b                   	pop    %ebx
  2810d2:	5d                   	pop    %ebp
  2810d3:	c3                   	ret    

002810d4 <memman_alloc>:
  size=(size+0xfff)&0xfffff000;
  return memman_alloc(man,size);
}
//allocate some memory for you
 int memman_alloc(Memman *man,unsigned int size)
{
  2810d4:	55                   	push   %ebp
    unsigned int i,a;
    for (i=0;i<man->cellnum;i++)
  2810d5:	31 d2                	xor    %edx,%edx
  size=(size+0xfff)&0xfffff000;
  return memman_alloc(man,size);
}
//allocate some memory for you
 int memman_alloc(Memman *man,unsigned int size)
{
  2810d7:	89 e5                	mov    %esp,%ebp
  2810d9:	8b 4d 08             	mov    0x8(%ebp),%ecx
  2810dc:	57                   	push   %edi
  2810dd:	56                   	push   %esi
  2810de:	53                   	push   %ebx
    unsigned int i,a;
    for (i=0;i<man->cellnum;i++)
  2810df:	8b 39                	mov    (%ecx),%edi
  2810e1:	39 fa                	cmp    %edi,%edx
  2810e3:	74 43                	je     281128 <memman_alloc+0x54>
    {
        if(man->cell[i].size>size)
  2810e5:	8b 45 0c             	mov    0xc(%ebp),%eax
  2810e8:	39 44 d1 14          	cmp    %eax,0x14(%ecx,%edx,8)
  2810ec:	76 37                	jbe    281125 <memman_alloc+0x51>
  2810ee:	8d 34 d1             	lea    (%ecx,%edx,8),%esi
        {
            a=man->cell[i].address;
            man->cell[i].address+=size;
  2810f1:	8b 5d 0c             	mov    0xc(%ebp),%ebx
    unsigned int i,a;
    for (i=0;i<man->cellnum;i++)
    {
        if(man->cell[i].size>size)
        {
            a=man->cell[i].address;
  2810f4:	8b 46 10             	mov    0x10(%esi),%eax
            man->cell[i].address+=size;
  2810f7:	01 c3                	add    %eax,%ebx
  2810f9:	89 5e 10             	mov    %ebx,0x10(%esi)
            man->cell[i].size-=size;
  2810fc:	8b 5e 14             	mov    0x14(%esi),%ebx
  2810ff:	2b 5d 0c             	sub    0xc(%ebp),%ebx
            if(man->cell[i].size==0)
  281102:	85 db                	test   %ebx,%ebx
    {
        if(man->cell[i].size>size)
        {
            a=man->cell[i].address;
            man->cell[i].address+=size;
            man->cell[i].size-=size;
  281104:	89 5e 14             	mov    %ebx,0x14(%esi)
            if(man->cell[i].size==0)
  281107:	75 21                	jne    28112a <memman_alloc+0x56>
            {
                man->cellnum--;
  281109:	8d 5f ff             	lea    -0x1(%edi),%ebx
  28110c:	89 19                	mov    %ebx,(%ecx)
                for(;i<man->cellnum;i++)
  28110e:	39 da                	cmp    %ebx,%edx
  281110:	73 18                	jae    28112a <memman_alloc+0x56>
                {
                    man->cell[i]=man->cell[i+1];
  281112:	42                   	inc    %edx
  281113:	8b 74 d1 10          	mov    0x10(%ecx,%edx,8),%esi
  281117:	8b 7c d1 14          	mov    0x14(%ecx,%edx,8),%edi
  28111b:	89 74 d1 08          	mov    %esi,0x8(%ecx,%edx,8)
  28111f:	89 7c d1 0c          	mov    %edi,0xc(%ecx,%edx,8)
  281123:	eb e9                	jmp    28110e <memman_alloc+0x3a>
}
//allocate some memory for you
 int memman_alloc(Memman *man,unsigned int size)
{
    unsigned int i,a;
    for (i=0;i<man->cellnum;i++)
  281125:	42                   	inc    %edx
  281126:	eb b9                	jmp    2810e1 <memman_alloc+0xd>
            }

            return a;
        }
    }
    return 0; //no memory can be used
  281128:	31 c0                	xor    %eax,%eax
}
  28112a:	5b                   	pop    %ebx
  28112b:	5e                   	pop    %esi
  28112c:	5f                   	pop    %edi
  28112d:	5d                   	pop    %ebp
  28112e:	c3                   	ret    

0028112f <memman_alloc_4K>:
 }
 return freemem;
}
//return an integer but is ad  address
int memman_alloc_4K(Memman *man,unsigned int size)
{
  28112f:	55                   	push   %ebp
  281130:	89 e5                	mov    %esp,%ebp
  size=(size+0xfff)&0xfffff000;
  281132:	8b 45 0c             	mov    0xc(%ebp),%eax
  281135:	05 ff 0f 00 00       	add    $0xfff,%eax
  28113a:	25 00 f0 ff ff       	and    $0xfffff000,%eax
  return memman_alloc(man,size);
  28113f:	89 45 0c             	mov    %eax,0xc(%ebp)
}
  281142:	5d                   	pop    %ebp
}
//return an integer but is ad  address
int memman_alloc_4K(Memman *man,unsigned int size)
{
  size=(size+0xfff)&0xfffff000;
  return memman_alloc(man,size);
  281143:	e9 8c ff ff ff       	jmp    2810d4 <memman_alloc>

00281148 <memman_free>:
  size=(size+0xfff)& 0xfffff000;
  return memman_free(man,addr,size);
}
//return -1 means free memory failure
int memman_free(Memman *man,unsigned int addr,unsigned int size)
{
  281148:	55                   	push   %ebp
  int i,j;
  for (i=0;i<man->cellnum;i++)
  281149:	31 d2                	xor    %edx,%edx
  size=(size+0xfff)& 0xfffff000;
  return memman_free(man,addr,size);
}
//return -1 means free memory failure
int memman_free(Memman *man,unsigned int addr,unsigned int size)
{
  28114b:	89 e5                	mov    %esp,%ebp
  28114d:	57                   	push   %edi
  28114e:	56                   	push   %esi
  28114f:	53                   	push   %ebx
  281150:	83 ec 08             	sub    $0x8,%esp
  281153:	8b 45 08             	mov    0x8(%ebp),%eax
  281156:	8b 7d 10             	mov    0x10(%ebp),%edi
  int i,j;
  for (i=0;i<man->cellnum;i++)
  281159:	8b 18                	mov    (%eax),%ebx
  28115b:	89 5d f0             	mov    %ebx,-0x10(%ebp)
  28115e:	89 5d ec             	mov    %ebx,-0x14(%ebp)
  281161:	3b 55 f0             	cmp    -0x10(%ebp),%edx
  281164:	74 09                	je     28116f <memman_free+0x27>
  {
    if(man->cell[i].address>addr)//这一步可以找到一个合适的i的地址范围
  281166:	8b 5d 0c             	mov    0xc(%ebp),%ebx
  281169:	39 5c d0 10          	cmp    %ebx,0x10(%eax,%edx,8)
  28116d:	76 06                	jbe    281175 <memman_free+0x2d>
    }
  }

  //man->cell[i-1].address<addr<man->cell[i].address
  //与前面空间合并
  if(i>0)  //
  28116f:	85 d2                	test   %edx,%edx
  281171:	75 05                	jne    281178 <memman_free+0x30>
  281173:	eb 4c                	jmp    2811c1 <memman_free+0x79>
}
//return -1 means free memory failure
int memman_free(Memman *man,unsigned int addr,unsigned int size)
{
  int i,j;
  for (i=0;i<man->cellnum;i++)
  281175:	42                   	inc    %edx
  281176:	eb e9                	jmp    281161 <memman_free+0x19>
  281178:	8d 5c d0 f8          	lea    -0x8(%eax,%edx,8),%ebx

  //man->cell[i-1].address<addr<man->cell[i].address
  //与前面空间合并
  if(i>0)  //
  {
    if(man->cell[i-1].address+man->cell[i-1].size==addr)
  28117c:	8b 73 14             	mov    0x14(%ebx),%esi
  28117f:	8b 4b 10             	mov    0x10(%ebx),%ecx
  281182:	01 f1                	add    %esi,%ecx
  281184:	3b 4d 0c             	cmp    0xc(%ebp),%ecx
  281187:	75 38                	jne    2811c1 <memman_free+0x79>
    {
        man->cell[i-1].size+=size;
  281189:	01 fe                	add    %edi,%esi
        if(i<man->cellnum)
  28118b:	3b 55 f0             	cmp    -0x10(%ebp),%edx
  //与前面空间合并
  if(i>0)  //
  {
    if(man->cell[i-1].address+man->cell[i-1].size==addr)
    {
        man->cell[i-1].size+=size;
  28118e:	89 73 14             	mov    %esi,0x14(%ebx)
        if(i<man->cellnum)
  281191:	73 49                	jae    2811dc <memman_free+0x94>
  281193:	8d 0c d0             	lea    (%eax,%edx,8),%ecx
        {
            if(addr+size==man->cell[i].address)
  281196:	03 7d 0c             	add    0xc(%ebp),%edi
  281199:	3b 79 10             	cmp    0x10(%ecx),%edi
  28119c:	75 3e                	jne    2811dc <memman_free+0x94>
            {
                man->cell[i-1].size+=man->cell[i].size;
  28119e:	03 71 14             	add    0x14(%ecx),%esi
  2811a1:	89 73 14             	mov    %esi,0x14(%ebx)
                man->cellnum--;
  2811a4:	8b 75 f0             	mov    -0x10(%ebp),%esi
  2811a7:	4e                   	dec    %esi
  2811a8:	89 30                	mov    %esi,(%eax)

                for(;i<man->cellnum;i++)
  2811aa:	39 f2                	cmp    %esi,%edx
  2811ac:	73 2e                	jae    2811dc <memman_free+0x94>
                {
                man->cell[i]=man->cell[i+1];
  2811ae:	42                   	inc    %edx
  2811af:	8b 4c d0 10          	mov    0x10(%eax,%edx,8),%ecx
  2811b3:	8b 5c d0 14          	mov    0x14(%eax,%edx,8),%ebx
  2811b7:	89 4c d0 08          	mov    %ecx,0x8(%eax,%edx,8)
  2811bb:	89 5c d0 0c          	mov    %ebx,0xc(%eax,%edx,8)
  2811bf:	eb e9                	jmp    2811aa <memman_free+0x62>
     //printdebug(200,100);

  }

  //与后面的空间合并
  if(i<man->cellnum)
  2811c1:	3b 55 f0             	cmp    -0x10(%ebp),%edx
  2811c4:	73 1a                	jae    2811e0 <memman_free+0x98>
  {
     if(addr+size==man->cell[i].address)
  2811c6:	8b 75 0c             	mov    0xc(%ebp),%esi
  2811c9:	8d 1c d0             	lea    (%eax,%edx,8),%ebx
  2811cc:	01 fe                	add    %edi,%esi
  2811ce:	3b 73 10             	cmp    0x10(%ebx),%esi
  2811d1:	75 0d                	jne    2811e0 <memman_free+0x98>
     {
        man->cell[i].address=addr;
  2811d3:	8b 45 0c             	mov    0xc(%ebp),%eax
        man->cell[i].size+=size;
  2811d6:	01 7b 14             	add    %edi,0x14(%ebx)
  //与后面的空间合并
  if(i<man->cellnum)
  {
     if(addr+size==man->cell[i].address)
     {
        man->cell[i].address=addr;
  2811d9:	89 43 10             	mov    %eax,0x10(%ebx)
        man->cell[i].size+=size;

        return 0;
  2811dc:	31 c0                	xor    %eax,%eax
  2811de:	eb 4b                	jmp    28122b <memman_free+0xe3>
     }
  }

  if(man->cellnum<4090)
  2811e0:	81 7d f0 f9 0f 00 00 	cmpl   $0xff9,-0x10(%ebp)
  2811e7:	77 39                	ja     281222 <memman_free+0xda>
  {
        for(j=man->cellnum;j>i;j--)
  2811e9:	39 55 ec             	cmp    %edx,-0x14(%ebp)
  2811ec:	7e 18                	jle    281206 <memman_free+0xbe>
        {
            man->cell[j]=man->cell[j-1];
  2811ee:	ff 4d ec             	decl   -0x14(%ebp)
  2811f1:	8b 4d ec             	mov    -0x14(%ebp),%ecx
  2811f4:	8b 5c c8 10          	mov    0x10(%eax,%ecx,8),%ebx
  2811f8:	8b 74 c8 14          	mov    0x14(%eax,%ecx,8),%esi
  2811fc:	89 5c c8 18          	mov    %ebx,0x18(%eax,%ecx,8)
  281200:	89 74 c8 1c          	mov    %esi,0x1c(%eax,%ecx,8)
  281204:	eb e3                	jmp    2811e9 <memman_free+0xa1>
        }

        man->cellnum++;
  281206:	8b 4d f0             	mov    -0x10(%ebp),%ecx
  281209:	41                   	inc    %ecx
        if(man->maxcell<man->cellnum)
  28120a:	39 48 04             	cmp    %ecx,0x4(%eax)
        for(j=man->cellnum;j>i;j--)
        {
            man->cell[j]=man->cell[j-1];
        }

        man->cellnum++;
  28120d:	89 08                	mov    %ecx,(%eax)
        if(man->maxcell<man->cellnum)
  28120f:	73 03                	jae    281214 <memman_free+0xcc>
        {
            man->maxcell=man->cellnum;
  281211:	89 48 04             	mov    %ecx,0x4(%eax)
  281214:	8d 04 d0             	lea    (%eax,%edx,8),%eax
        }
        man->cell[i].address=addr;
  281217:	8b 55 0c             	mov    0xc(%ebp),%edx
        man->cell[i].size=size;
  28121a:	89 78 14             	mov    %edi,0x14(%eax)
        man->cellnum++;
        if(man->maxcell<man->cellnum)
        {
            man->maxcell=man->cellnum;
        }
        man->cell[i].address=addr;
  28121d:	89 50 10             	mov    %edx,0x10(%eax)
  281220:	eb ba                	jmp    2811dc <memman_free+0x94>
       // printdebug(man->cellnum,100);
        return 0;
  }


  man->losts++;
  281222:	ff 40 0c             	incl   0xc(%eax)
  man->lostsize+=size;
  281225:	01 78 08             	add    %edi,0x8(%eax)

  return  -1;
  281228:	83 c8 ff             	or     $0xffffffff,%eax
}
  28122b:	5a                   	pop    %edx
  28122c:	59                   	pop    %ecx
  28122d:	5b                   	pop    %ebx
  28122e:	5e                   	pop    %esi
  28122f:	5f                   	pop    %edi
  281230:	5d                   	pop    %ebp
  281231:	c3                   	ret    

00281232 <memman_free_4k>:
    return 0; //no memory can be used
}

//return -1 means free memory failure
int memman_free_4k(Memman *man,unsigned int addr,unsigned int size)
{
  281232:	55                   	push   %ebp
  281233:	89 e5                	mov    %esp,%ebp
  size=(size+0xfff)& 0xfffff000;
  281235:	8b 45 10             	mov    0x10(%ebp),%eax
  281238:	05 ff 0f 00 00       	add    $0xfff,%eax
  28123d:	25 00 f0 ff ff       	and    $0xfffff000,%eax
  return memman_free(man,addr,size);
  281242:	89 45 10             	mov    %eax,0x10(%ebp)
}
  281245:	5d                   	pop    %ebp

//return -1 means free memory failure
int memman_free_4k(Memman *man,unsigned int addr,unsigned int size)
{
  size=(size+0xfff)& 0xfffff000;
  return memman_free(man,addr,size);
  281246:	e9 fd fe ff ff       	jmp    281148 <memman_free>

0028124b <shtctl_init>:

  return  -1;
}

SHTCTL * shtctl_init(Memman * memman,unsigned char *vram,int xsize,int ysize)
{
  28124b:	55                   	push   %ebp
  28124c:	89 e5                	mov    %esp,%ebp
}
//return an integer but is ad  address
int memman_alloc_4K(Memman *man,unsigned int size)
{
  size=(size+0xfff)&0xfffff000;
  return memman_alloc(man,size);
  28124e:	68 00 30 00 00       	push   $0x3000
  281253:	ff 75 08             	pushl  0x8(%ebp)
  281256:	e8 79 fe ff ff       	call   2810d4 <memman_alloc>
SHTCTL * shtctl_init(Memman * memman,unsigned char *vram,int xsize,int ysize)
{
  SHTCTL *ctl;
  int i;
  ctl=(SHTCTL *)memman_alloc_4K(memman,sizeof(SHTCTL));
  if(ctl==0)
  28125b:	5a                   	pop    %edx
  28125c:	59                   	pop    %ecx
  28125d:	85 c0                	test   %eax,%eax
  28125f:	74 2d                	je     28128e <shtctl_init+0x43>
  return ctl;

  ctl->vram=vram;
  281261:	8b 55 0c             	mov    0xc(%ebp),%edx
  ctl->xsize=xsize;
  ctl->ysize=ysize;
  ctl->top=0;  //no sheet
  281264:	c7 40 0c 00 00 00 00 	movl   $0x0,0xc(%eax)
  int i;
  ctl=(SHTCTL *)memman_alloc_4K(memman,sizeof(SHTCTL));
  if(ctl==0)
  return ctl;

  ctl->vram=vram;
  28126b:	89 10                	mov    %edx,(%eax)
  ctl->xsize=xsize;
  28126d:	8b 55 10             	mov    0x10(%ebp),%edx
  281270:	89 50 04             	mov    %edx,0x4(%eax)
  ctl->ysize=ysize;
  281273:	8b 55 14             	mov    0x14(%ebp),%edx
  281276:	89 50 08             	mov    %edx,0x8(%eax)
  ctl->top=0;  //no sheet
  281279:	31 d2                	xor    %edx,%edx
  for(i=0;i<MAX_SHEETS;i++)
  {
    ctl->sheet[i].flags=0;
  28127b:	c7 44 10 2c 00 00 00 	movl   $0x0,0x2c(%eax,%edx,1)
  281282:	00 
  281283:	83 c2 20             	add    $0x20,%edx

  ctl->vram=vram;
  ctl->xsize=xsize;
  ctl->ysize=ysize;
  ctl->top=0;  //no sheet
  for(i=0;i<MAX_SHEETS;i++)
  281286:	81 fa 00 20 00 00    	cmp    $0x2000,%edx
  28128c:	75 ed                	jne    28127b <shtctl_init+0x30>
  {
    ctl->sheet[i].flags=0;
  }
  return ctl;
}
  28128e:	c9                   	leave  
  28128f:	c3                   	ret    

00281290 <sheet_alloc>:

SHEET * sheet_alloc(SHTCTL * ctl)
{
  281290:	55                   	push   %ebp
  SHEET *  sht;
  int i;
  for (i=0;i<MAX_SHEETS;i++)
  281291:	31 c0                	xor    %eax,%eax
  }
  return ctl;
}

SHEET * sheet_alloc(SHTCTL * ctl)
{
  281293:	89 e5                	mov    %esp,%ebp
  281295:	8b 55 08             	mov    0x8(%ebp),%edx
  281298:	89 c1                	mov    %eax,%ecx
  28129a:	c1 e1 05             	shl    $0x5,%ecx
  SHEET *  sht;
  int i;
  for (i=0;i<MAX_SHEETS;i++)
  {
    if (ctl->sheet[i].flags==0)
  28129d:	83 7c 0a 2c 00       	cmpl   $0x0,0x2c(%edx,%ecx,1)
  2812a2:	75 14                	jne    2812b8 <sheet_alloc+0x28>
    {
        sht=&ctl->sheet[i];
  2812a4:	8d 44 0a 10          	lea    0x10(%edx,%ecx,1),%eax
        sht->flags=1;
  2812a8:	c7 40 1c 01 00 00 00 	movl   $0x1,0x1c(%eax)
        sht->height=-1;
  2812af:	c7 40 18 ff ff ff ff 	movl   $0xffffffff,0x18(%eax)
        return sht;
  2812b6:	eb 0b                	jmp    2812c3 <sheet_alloc+0x33>

SHEET * sheet_alloc(SHTCTL * ctl)
{
  SHEET *  sht;
  int i;
  for (i=0;i<MAX_SHEETS;i++)
  2812b8:	40                   	inc    %eax
  2812b9:	3d 00 01 00 00       	cmp    $0x100,%eax
  2812be:	75 d8                	jne    281298 <sheet_alloc+0x8>
        sht->flags=1;
        sht->height=-1;
        return sht;
    }
  }
  return 0;
  2812c0:	66 31 c0             	xor    %ax,%ax
}
  2812c3:	5d                   	pop    %ebp
  2812c4:	c3                   	ret    

002812c5 <sheet_setbuf>:



void sheet_setbuf(SHEET * sht,unsigned char *buf,int xsize,int ysize,int col_inv)
{
  2812c5:	55                   	push   %ebp
  2812c6:	89 e5                	mov    %esp,%ebp
  2812c8:	8b 45 08             	mov    0x8(%ebp),%eax
  sht->buf=buf;
  2812cb:	8b 55 0c             	mov    0xc(%ebp),%edx
  2812ce:	89 10                	mov    %edx,(%eax)
  sht->bxsize=xsize;
  2812d0:	8b 55 10             	mov    0x10(%ebp),%edx
  2812d3:	89 50 04             	mov    %edx,0x4(%eax)
  sht->bysize=ysize;
  2812d6:	8b 55 14             	mov    0x14(%ebp),%edx
  2812d9:	89 50 08             	mov    %edx,0x8(%eax)
  sht->col_inv=col_inv;
  2812dc:	8b 55 18             	mov    0x18(%ebp),%edx
  2812df:	89 50 14             	mov    %edx,0x14(%eax)
  return ;
}
  2812e2:	5d                   	pop    %ebp
  2812e3:	c3                   	ret    

002812e4 <sheet_refreshsub>:
 return;
}


void sheet_refreshsub(SHTCTL *ctl,int vx0,int vy0,int vx1,int vy1)
{
  2812e4:	55                   	push   %ebp
  2812e5:	89 e5                	mov    %esp,%ebp
  2812e7:	57                   	push   %edi
unsigned char *buf,*vram=ctl->vram;
unsigned char c;


SHEET *sht;
for (h=0;h<ctl->top;h++)
  2812e8:	31 ff                	xor    %edi,%edi
 return;
}


void sheet_refreshsub(SHTCTL *ctl,int vx0,int vy0,int vx1,int vy1)
{
  2812ea:	56                   	push   %esi
  2812eb:	53                   	push   %ebx
  2812ec:	83 ec 14             	sub    $0x14,%esp
int h,bx,by,vx,vy;
unsigned char *buf,*vram=ctl->vram;
  2812ef:	8b 45 08             	mov    0x8(%ebp),%eax
  2812f2:	8b 00                	mov    (%eax),%eax
  2812f4:	89 45 e4             	mov    %eax,-0x1c(%ebp)
unsigned char c;


SHEET *sht;
for (h=0;h<ctl->top;h++)
  2812f7:	8b 45 08             	mov    0x8(%ebp),%eax
  2812fa:	3b 78 0c             	cmp    0xc(%eax),%edi
  2812fd:	0f 8d 84 00 00 00    	jge    281387 <sheet_refreshsub+0xa3>
{
  sht=ctl->sheets[h];
  281303:	8b 45 08             	mov    0x8(%ebp),%eax
  buf=sht->buf;
  for(by=0;by<sht->bysize;by++)
  281306:	c7 45 f0 00 00 00 00 	movl   $0x0,-0x10(%ebp)


SHEET *sht;
for (h=0;h<ctl->top;h++)
{
  sht=ctl->sheets[h];
  28130d:	8b 84 b8 10 20 00 00 	mov    0x2010(%eax,%edi,4),%eax
  buf=sht->buf;
  281314:	8b 10                	mov    (%eax),%edx
  281316:	89 55 e0             	mov    %edx,-0x20(%ebp)
  for(by=0;by<sht->bysize;by++)
  281319:	8b 4d f0             	mov    -0x10(%ebp),%ecx
  28131c:	3b 48 08             	cmp    0x8(%eax),%ecx
  28131f:	7d 60                	jge    281381 <sheet_refreshsub+0x9d>
  {
    vy=sht->vy0+by;
  281321:	8b 5d f0             	mov    -0x10(%ebp),%ebx
    for(bx=0;bx<sht->bxsize;bx++)
  281324:	31 c9                	xor    %ecx,%ecx
{
  sht=ctl->sheets[h];
  buf=sht->buf;
  for(by=0;by<sht->bysize;by++)
  {
    vy=sht->vy0+by;
  281326:	03 58 10             	add    0x10(%eax),%ebx
  281329:	89 5d ec             	mov    %ebx,-0x14(%ebp)
    for(bx=0;bx<sht->bxsize;bx++)
  28132c:	8b 58 04             	mov    0x4(%eax),%ebx
  28132f:	39 d9                	cmp    %ebx,%ecx
  281331:	7d 49                	jge    28137c <sheet_refreshsub+0x98>
    {
        vx=sht->vx0+bx;
  281333:	8b 70 0c             	mov    0xc(%eax),%esi
  281336:	01 ce                	add    %ecx,%esi
        if(vx0<=vx && vx <vx1 && vy>=vy0 && vy<vy1)
  281338:	39 75 0c             	cmp    %esi,0xc(%ebp)
  for(by=0;by<sht->bysize;by++)
  {
    vy=sht->vy0+by;
    for(bx=0;bx<sht->bxsize;bx++)
    {
        vx=sht->vx0+bx;
  28133b:	89 75 e8             	mov    %esi,-0x18(%ebp)
        if(vx0<=vx && vx <vx1 && vy>=vy0 && vy<vy1)
  28133e:	7f 39                	jg     281379 <sheet_refreshsub+0x95>
  281340:	3b 75 14             	cmp    0x14(%ebp),%esi
  281343:	7d 34                	jge    281379 <sheet_refreshsub+0x95>
  281345:	8b 75 ec             	mov    -0x14(%ebp),%esi
  281348:	3b 75 10             	cmp    0x10(%ebp),%esi
  28134b:	7c 2c                	jl     281379 <sheet_refreshsub+0x95>
  28134d:	3b 75 18             	cmp    0x18(%ebp),%esi
  281350:	7d 27                	jge    281379 <sheet_refreshsub+0x95>
        {
            c=buf[by*sht->bxsize+bx];
  281352:	8b 75 e0             	mov    -0x20(%ebp),%esi
  281355:	0f af 5d f0          	imul   -0x10(%ebp),%ebx
  281359:	01 ce                	add    %ecx,%esi
  28135b:	8a 14 1e             	mov    (%esi,%ebx,1),%dl
            if(c!=sht->col_inv)
  28135e:	0f b6 f2             	movzbl %dl,%esi
  281361:	3b 70 14             	cmp    0x14(%eax),%esi
  281364:	74 13                	je     281379 <sheet_refreshsub+0x95>
            {
                vram[vy*ctl->xsize+vx]=c;
  281366:	8b 5d 08             	mov    0x8(%ebp),%ebx
  281369:	8b 75 ec             	mov    -0x14(%ebp),%esi
  28136c:	0f af 73 04          	imul   0x4(%ebx),%esi
  281370:	8b 5d e8             	mov    -0x18(%ebp),%ebx
  281373:	03 5d e4             	add    -0x1c(%ebp),%ebx
  281376:	88 14 33             	mov    %dl,(%ebx,%esi,1)
  sht=ctl->sheets[h];
  buf=sht->buf;
  for(by=0;by<sht->bysize;by++)
  {
    vy=sht->vy0+by;
    for(bx=0;bx<sht->bxsize;bx++)
  281379:	41                   	inc    %ecx
  28137a:	eb b0                	jmp    28132c <sheet_refreshsub+0x48>
SHEET *sht;
for (h=0;h<ctl->top;h++)
{
  sht=ctl->sheets[h];
  buf=sht->buf;
  for(by=0;by<sht->bysize;by++)
  28137c:	ff 45 f0             	incl   -0x10(%ebp)
  28137f:	eb 98                	jmp    281319 <sheet_refreshsub+0x35>
unsigned char *buf,*vram=ctl->vram;
unsigned char c;


SHEET *sht;
for (h=0;h<ctl->top;h++)
  281381:	47                   	inc    %edi
  281382:	e9 70 ff ff ff       	jmp    2812f7 <sheet_refreshsub+0x13>
    }
  }
}
return;

}
  281387:	83 c4 14             	add    $0x14,%esp
  28138a:	5b                   	pop    %ebx
  28138b:	5e                   	pop    %esi
  28138c:	5f                   	pop    %edi
  28138d:	5d                   	pop    %ebp
  28138e:	c3                   	ret    

0028138f <sheet_updown>:
  return ;
}


void sheet_updown(SHTCTL * ctl,SHEET * sht,int height)
{
  28138f:	55                   	push   %ebp
  281390:	89 e5                	mov    %esp,%ebp
  281392:	57                   	push   %edi
  281393:	56                   	push   %esi
  281394:	53                   	push   %ebx
  281395:	50                   	push   %eax
  281396:	8b 45 08             	mov    0x8(%ebp),%eax
  281399:	8b 4d 0c             	mov    0xc(%ebp),%ecx
  28139c:	8b 7d 10             	mov    0x10(%ebp),%edi
 int h ,old=sht->height;
 if(height>ctl->top+1)
  28139f:	8b 58 0c             	mov    0xc(%eax),%ebx
}


void sheet_updown(SHTCTL * ctl,SHEET * sht,int height)
{
 int h ,old=sht->height;
  2813a2:	8b 51 18             	mov    0x18(%ecx),%edx
 if(height>ctl->top+1)
  2813a5:	8d 73 01             	lea    0x1(%ebx),%esi
  2813a8:	39 f7                	cmp    %esi,%edi
  2813aa:	0f 4f fe             	cmovg  %esi,%edi
  2813ad:	89 75 f0             	mov    %esi,-0x10(%ebp)
  2813b0:	83 ce ff             	or     $0xffffffff,%esi
  2813b3:	85 ff                	test   %edi,%edi
  2813b5:	0f 49 f7             	cmovns %edi,%esi
 {
  height=-1;
 }
 sht->height=height;

 if(old>height)
  2813b8:	39 f2                	cmp    %esi,%edx

 if(height<-1)
 {
  height=-1;
 }
 sht->height=height;
  2813ba:	89 71 18             	mov    %esi,0x18(%ecx)

 if(old>height)
  2813bd:	7e 4f                	jle    28140e <sheet_updown+0x7f>
 {
   if(height>=0)
  2813bf:	85 f6                	test   %esi,%esi
  2813c1:	78 25                	js     2813e8 <sheet_updown+0x59>
   {
        for(h=old;h>height;h--)
        {
            ctl->sheets[h]=ctl->sheets[h-1];
  2813c3:	8d 5a ff             	lea    -0x1(%edx),%ebx
  2813c6:	8b bc 98 10 20 00 00 	mov    0x2010(%eax,%ebx,4),%edi

 if(old>height)
 {
   if(height>=0)
   {
        for(h=old;h>height;h--)
  2813cd:	39 f3                	cmp    %esi,%ebx
        {
            ctl->sheets[h]=ctl->sheets[h-1];
  2813cf:	89 bc 98 14 20 00 00 	mov    %edi,0x2014(%eax,%ebx,4)
            ctl->sheets[h]->height=h;
  2813d6:	89 57 18             	mov    %edx,0x18(%edi)

 if(old>height)
 {
   if(height>=0)
   {
        for(h=old;h>height;h--)
  2813d9:	74 04                	je     2813df <sheet_updown+0x50>
  2813db:	89 da                	mov    %ebx,%edx
  2813dd:	eb e4                	jmp    2813c3 <sheet_updown+0x34>
        {
            ctl->sheets[h]=ctl->sheets[h-1];
            ctl->sheets[h]->height=h;
        }
        ctl->sheets[height]=sht;
  2813df:	89 8c 90 0c 20 00 00 	mov    %ecx,0x200c(%eax,%edx,4)
  2813e6:	eb 79                	jmp    281461 <sheet_updown+0xd2>
   }
   else
   {
        if(ctl->top>old)
  2813e8:	39 d3                	cmp    %edx,%ebx
  2813ea:	7f 06                	jg     2813f2 <sheet_updown+0x63>
                ctl->sheets[h]=ctl->sheets[h+1];
                ctl->sheets[h]->height=h;
            }

        }
        ctl->top--;
  2813ec:	4b                   	dec    %ebx
  2813ed:	89 58 0c             	mov    %ebx,0xc(%eax)
  2813f0:	eb 6f                	jmp    281461 <sheet_updown+0xd2>
   {
        if(ctl->top>old)
        {
            for(h=old;h<ctl->top;h++)
            {
                ctl->sheets[h]=ctl->sheets[h+1];
  2813f2:	8d 72 01             	lea    0x1(%edx),%esi
  2813f5:	8b bc b0 10 20 00 00 	mov    0x2010(%eax,%esi,4),%edi
   }
   else
   {
        if(ctl->top>old)
        {
            for(h=old;h<ctl->top;h++)
  2813fc:	39 de                	cmp    %ebx,%esi
            {
                ctl->sheets[h]=ctl->sheets[h+1];
  2813fe:	89 bc b0 0c 20 00 00 	mov    %edi,0x200c(%eax,%esi,4)
                ctl->sheets[h]->height=h;
  281405:	89 57 18             	mov    %edx,0x18(%edi)
   }
   else
   {
        if(ctl->top>old)
        {
            for(h=old;h<ctl->top;h++)
  281408:	74 e2                	je     2813ec <sheet_updown+0x5d>
  28140a:	89 f2                	mov    %esi,%edx
  28140c:	eb e4                	jmp    2813f2 <sheet_updown+0x63>
        }
        ctl->top--;
   }
  sheet_refreshsub(ctl,sht->vx0,sht->vy0,sht->vx0+sht->bxsize,sht->vy0+sht->bysize);
 }
 else if(old<height)
  28140e:	7d 6e                	jge    28147e <sheet_updown+0xef>
 {

    if(old>0)
  281410:	85 d2                	test   %edx,%edx
  281412:	7e 25                	jle    281439 <sheet_updown+0xaa>
    {

        for(h=old;h<height;h++)
        {
         ctl->sheets[h]=ctl->sheets[h+1];
  281414:	8d 5a 01             	lea    0x1(%edx),%ebx
  281417:	8b bc 98 10 20 00 00 	mov    0x2010(%eax,%ebx,4),%edi
 {

    if(old>0)
    {

        for(h=old;h<height;h++)
  28141e:	39 f3                	cmp    %esi,%ebx
        {
         ctl->sheets[h]=ctl->sheets[h+1];
  281420:	89 bc 98 0c 20 00 00 	mov    %edi,0x200c(%eax,%ebx,4)
         ctl->sheets[h]->height=h;
  281427:	89 57 18             	mov    %edx,0x18(%edi)
 {

    if(old>0)
    {

        for(h=old;h<height;h++)
  28142a:	74 04                	je     281430 <sheet_updown+0xa1>
  28142c:	89 da                	mov    %ebx,%edx
  28142e:	eb e4                	jmp    281414 <sheet_updown+0x85>
        {
         ctl->sheets[h]=ctl->sheets[h+1];
         ctl->sheets[h]->height=h;
        }
        ctl->sheets[height]=sht;
  281430:	89 8c 90 14 20 00 00 	mov    %ecx,0x2014(%eax,%edx,4)
  281437:	eb 28                	jmp    281461 <sheet_updown+0xd2>
    }
    else
    {

        for(h=ctl->top;h>=height;h--)
  281439:	39 f3                	cmp    %esi,%ebx
  28143b:	7c 17                	jl     281454 <sheet_updown+0xc5>
        {
            ctl->sheets[h+1]=ctl->sheets[h];
  28143d:	8b 94 98 10 20 00 00 	mov    0x2010(%eax,%ebx,4),%edx
  281444:	8d 7b 01             	lea    0x1(%ebx),%edi
  281447:	89 94 98 14 20 00 00 	mov    %edx,0x2014(%eax,%ebx,4)
        ctl->sheets[height]=sht;
    }
    else
    {

        for(h=ctl->top;h>=height;h--)
  28144e:	4b                   	dec    %ebx
  28144f:	89 7a 18             	mov    %edi,0x18(%edx)
  281452:	eb e5                	jmp    281439 <sheet_updown+0xaa>
        {
            ctl->sheets[h+1]=ctl->sheets[h];
            ctl->sheets[h+1]->height=h+1;
        }
        ctl->sheets[height]=sht;
        ctl->top++;
  281454:	8b 7d f0             	mov    -0x10(%ebp),%edi
        for(h=ctl->top;h>=height;h--)
        {
            ctl->sheets[h+1]=ctl->sheets[h];
            ctl->sheets[h+1]->height=h+1;
        }
        ctl->sheets[height]=sht;
  281457:	89 8c b0 10 20 00 00 	mov    %ecx,0x2010(%eax,%esi,4)
        ctl->top++;
  28145e:	89 78 0c             	mov    %edi,0xc(%eax)

    }
      sheet_refreshsub(ctl,sht->vx0,sht->vy0,sht->vx0+sht->bxsize,sht->vy0+sht->bysize);
  281461:	8b 59 10             	mov    0x10(%ecx),%ebx
  281464:	8b 71 08             	mov    0x8(%ecx),%esi
  281467:	8b 51 0c             	mov    0xc(%ecx),%edx
  28146a:	01 de                	add    %ebx,%esi
  28146c:	56                   	push   %esi
  28146d:	8b 79 04             	mov    0x4(%ecx),%edi
  281470:	01 d7                	add    %edx,%edi
  281472:	57                   	push   %edi
  281473:	53                   	push   %ebx
  281474:	52                   	push   %edx
  281475:	50                   	push   %eax
  281476:	e8 69 fe ff ff       	call   2812e4 <sheet_refreshsub>
  28147b:	83 c4 14             	add    $0x14,%esp
 }

}
  28147e:	8d 65 f4             	lea    -0xc(%ebp),%esp
  281481:	5b                   	pop    %ebx
  281482:	5e                   	pop    %esi
  281483:	5f                   	pop    %edi
  281484:	5d                   	pop    %ebp
  281485:	c3                   	ret    

00281486 <sheet_refresh>:

void sheet_refresh(SHTCTL *ctl,SHEET * sht,int bx0,int by0,int bx1,int by1)
{
  281486:	55                   	push   %ebp
  281487:	89 e5                	mov    %esp,%ebp
  281489:	57                   	push   %edi
  28148a:	56                   	push   %esi
  28148b:	53                   	push   %ebx
  28148c:	51                   	push   %ecx
  28148d:	8b 45 0c             	mov    0xc(%ebp),%eax
  281490:	8b 5d 10             	mov    0x10(%ebp),%ebx
  281493:	8b 75 18             	mov    0x18(%ebp),%esi
  281496:	8b 7d 1c             	mov    0x1c(%ebp),%edi
if (sht->height>=0)
  281499:	83 78 18 00          	cmpl   $0x0,0x18(%eax)
 }

}

void sheet_refresh(SHTCTL *ctl,SHEET * sht,int bx0,int by0,int bx1,int by1)
{
  28149d:	89 5d f0             	mov    %ebx,-0x10(%ebp)
  2814a0:	8b 5d 14             	mov    0x14(%ebp),%ebx
if (sht->height>=0)
  2814a3:	78 25                	js     2814ca <sheet_refresh+0x44>
    sheet_refreshsub(ctl,sht->vx0+bx0,sht->vy0+by0,
    sht->vx0+bx1,sht->vy0+by1);
  2814a5:	8b 50 10             	mov    0x10(%eax),%edx
  2814a8:	8b 40 0c             	mov    0xc(%eax),%eax
}

void sheet_refresh(SHTCTL *ctl,SHEET * sht,int bx0,int by0,int bx1,int by1)
{
if (sht->height>=0)
    sheet_refreshsub(ctl,sht->vx0+bx0,sht->vy0+by0,
  2814ab:	01 d7                	add    %edx,%edi
  2814ad:	01 da                	add    %ebx,%edx
  2814af:	01 c6                	add    %eax,%esi
  2814b1:	03 45 f0             	add    -0x10(%ebp),%eax
  2814b4:	89 7d 18             	mov    %edi,0x18(%ebp)
  2814b7:	89 75 14             	mov    %esi,0x14(%ebp)
  2814ba:	89 55 10             	mov    %edx,0x10(%ebp)
  2814bd:	89 45 0c             	mov    %eax,0xc(%ebp)
    sht->vx0+bx1,sht->vy0+by1);
return ;
}
  2814c0:	5a                   	pop    %edx
  2814c1:	5b                   	pop    %ebx
  2814c2:	5e                   	pop    %esi
  2814c3:	5f                   	pop    %edi
  2814c4:	5d                   	pop    %ebp
}

void sheet_refresh(SHTCTL *ctl,SHEET * sht,int bx0,int by0,int bx1,int by1)
{
if (sht->height>=0)
    sheet_refreshsub(ctl,sht->vx0+bx0,sht->vy0+by0,
  2814c5:	e9 1a fe ff ff       	jmp    2812e4 <sheet_refreshsub>
    sht->vx0+bx1,sht->vy0+by1);
return ;
}
  2814ca:	58                   	pop    %eax
  2814cb:	5b                   	pop    %ebx
  2814cc:	5e                   	pop    %esi
  2814cd:	5f                   	pop    %edi
  2814ce:	5d                   	pop    %ebp
  2814cf:	c3                   	ret    

002814d0 <sheet_move>:

void sheet_move(SHTCTL * ctl,SHEET * sht,int vx0,int vy0)
{
  2814d0:	55                   	push   %ebp
  2814d1:	89 e5                	mov    %esp,%ebp
  2814d3:	57                   	push   %edi
  2814d4:	8b 7d 14             	mov    0x14(%ebp),%edi
  2814d7:	56                   	push   %esi
  2814d8:	8b 75 10             	mov    0x10(%ebp),%esi
  2814db:	53                   	push   %ebx
  2814dc:	8b 5d 0c             	mov    0xc(%ebp),%ebx
 int old_vx0=sht->vx0;
 int old_vy0=sht->vy0;
 sht->vx0=vx0;
 sht->vy0=vy0;
 if(sht->height>=0)
  2814df:	83 7b 18 00          	cmpl   $0x0,0x18(%ebx)
return ;
}

void sheet_move(SHTCTL * ctl,SHEET * sht,int vx0,int vy0)
{
 int old_vx0=sht->vx0;
  2814e3:	8b 43 0c             	mov    0xc(%ebx),%eax
 int old_vy0=sht->vy0;
  2814e6:	8b 53 10             	mov    0x10(%ebx),%edx
 sht->vx0=vx0;
  2814e9:	89 73 0c             	mov    %esi,0xc(%ebx)
 sht->vy0=vy0;
  2814ec:	89 7b 10             	mov    %edi,0x10(%ebx)
 if(sht->height>=0)
  2814ef:	78 2f                	js     281520 <sheet_move+0x50>
 {
    //sheet_refresh(ctl);
    sheet_refreshsub(ctl,old_vx0,old_vy0,old_vx0+sht->bxsize,old_vy0+sht->bysize);
  2814f1:	8b 4b 08             	mov    0x8(%ebx),%ecx
  2814f4:	01 d1                	add    %edx,%ecx
  2814f6:	51                   	push   %ecx
  2814f7:	8b 4b 04             	mov    0x4(%ebx),%ecx
  2814fa:	01 c1                	add    %eax,%ecx
  2814fc:	51                   	push   %ecx
  2814fd:	52                   	push   %edx
  2814fe:	50                   	push   %eax
  2814ff:	ff 75 08             	pushl  0x8(%ebp)
  281502:	e8 dd fd ff ff       	call   2812e4 <sheet_refreshsub>
    sheet_refreshsub(ctl,vx0,vy0,vx0+sht->bxsize,vy0+sht->bysize);
  281507:	8b 43 08             	mov    0x8(%ebx),%eax
  28150a:	01 f8                	add    %edi,%eax
  28150c:	50                   	push   %eax
  28150d:	8b 43 04             	mov    0x4(%ebx),%eax
  281510:	01 f0                	add    %esi,%eax
  281512:	50                   	push   %eax
  281513:	57                   	push   %edi
  281514:	56                   	push   %esi
  281515:	ff 75 08             	pushl  0x8(%ebp)
  281518:	e8 c7 fd ff ff       	call   2812e4 <sheet_refreshsub>
  28151d:	83 c4 28             	add    $0x28,%esp
 }
 return;
}
  281520:	8d 65 f4             	lea    -0xc(%ebp),%esp
  281523:	5b                   	pop    %ebx
  281524:	5e                   	pop    %esi
  281525:	5f                   	pop    %edi
  281526:	5d                   	pop    %ebp
  281527:	c3                   	ret    
