
cobj.out:     file format elf32-i386


Disassembly of section .text:

00280000 <bootmain>:
#define black 0
#define red   1
#define green 2

void bootmain(void)
{
  280000:	55                   	push   %ebp
  280001:	89 e5                	mov    %esp,%ebp
  280003:	57                   	push   %edi
  280004:	56                   	push   %esi
  280005:	53                   	push   %ebx
  280006:	81 ec 08 02 00 00    	sub    $0x208,%esp

struct boot_info *bootp=(struct boot_info *)ADDR_BOOT;
  clear_screen(40);   	//red
  28000c:	6a 28                	push   $0x28
  28000e:	e8 4a 03 00 00       	call   28035d <clear_screen>
  init_screen((struct boot_info * )bootp);
  280013:	c7 04 24 f0 0f 00 00 	movl   $0xff0,(%esp)
  28001a:	e8 90 05 00 00       	call   2805af <init_screen>
  init_palette();  //color table from 0 to 15
  28001f:	e8 a2 03 00 00       	call   2803c6 <init_palette>
  draw_window();
  280024:	e8 25 04 00 00       	call   28044e <draw_window>
int mx,my;//mouse position
mx=30;
my=30;
//display mouse logo
char mousepic[16*16];     //mouse logo buffer
init_mouse(mousepic,7);	//7　means background color:white
  280029:	59                   	pop    %ecx
  28002a:	5b                   	pop    %ebx
  28002b:	8d 9d e8 fe ff ff    	lea    -0x118(%ebp),%ebx
  280031:	6a 07                	push   $0x7
  280033:	53                   	push   %ebx
  280034:	e8 95 05 00 00       	call   2805ce <init_mouse>
display_mouse(bootp->vram,bootp->xsize,16,16,mx,my,mousepic,16);
  280039:	6a 10                	push   $0x10
  28003b:	53                   	push   %ebx
  28003c:	6a 1e                	push   $0x1e
  28003e:	6a 1e                	push   $0x1e
  280040:	6a 10                	push   $0x10
  280042:	6a 10                	push   $0x10
  280044:	0f bf 05 f4 0f 00 00 	movswl 0xff4,%eax
  28004b:	50                   	push   %eax
  28004c:	ff 35 f8 0f 00 00    	pushl  0xff8
  280052:	e8 c7 05 00 00       	call   28061e <display_mouse>

static __inline void
cli(void)
{

	__asm __volatile("cli");
  280057:	fa                   	cli    
cli();

//set gdt idt
init_gdtidt();
  280058:	83 c4 30             	add    $0x30,%esp
  28005b:	e8 71 09 00 00       	call   2809d1 <init_gdtidt>

//remap irq 0-15
init_pic();		//函数中：　irq 1(keyboard)对应设置中断号int0x21,    irq　12(mouse)对应的中断号是int0x2c 要写中断服务程序了。
  280060:	e8 cc 0a 00 00       	call   280b31 <init_pic>
unsigned char s[40];		//sprintf buffer
unsigned char keybuf[32];	//keyfifo
unsigned char mousebuf[128];	//mousefifo
unsigned char data;		//temp variable to get fifo data
int count=0;
fifo8_init(&keyfifo ,32,keybuf);//keyfifo是一个global data defined in int.c
  280065:	8d 85 20 fe ff ff    	lea    -0x1e0(%ebp),%eax
  28006b:	56                   	push   %esi
  28006c:	50                   	push   %eax
  28006d:	6a 20                	push   $0x20
  28006f:	68 bc 30 28 00       	push   $0x2830bc
  280074:	e8 c3 0b 00 00       	call   280c3c <fifo8_init>
fifo8_init(&mousefifo,128,mousebuf);
  280079:	83 c4 0c             	add    $0xc,%esp
  28007c:	8d 85 68 fe ff ff    	lea    -0x198(%ebp),%eax
  280082:	50                   	push   %eax
  280083:	68 80 00 00 00       	push   $0x80
  280088:	68 d4 30 28 00       	push   $0x2830d4
  28008d:	e8 aa 0b 00 00       	call   280c3c <fifo8_init>
// out:write a data to a port
static __inline void
outb(int port, uint8_t data)
{
  //data是变量0%0 , port是变量word１%w1
	__asm __volatile("outb %0,%w1" : : "a" (data), "d" (port));
  280092:	ba 21 00 00 00       	mov    $0x21,%edx
  280097:	b0 f9                	mov    $0xf9,%al
  280099:	ee                   	out    %al,(%dx)
  28009a:	b0 ef                	mov    $0xef,%al
  28009c:	b2 a1                	mov    $0xa1,%dl
  28009e:	ee                   	out    %al,(%dx)
//enable keyboard and mouse
outb(PIC0_IMR, 0xf9);	//1111 1001  irq 1 2打开 因为keyboard是irq 1 /// enable pic slave and keyboard interrupt
outb(PIC1_IMR, 0xef);	//1110 1111  irq 12打开　mouse是irq 12  所以要把pic 1 pic 2的芯片中断响应位打开。 //enable mouse interrupt

//初始化　鼠标按键控制电路
init_keyboard();
  28009f:	e8 23 0b 00 00       	call   280bc7 <init_keyboard>

static __inline void
sti(void)
{

	__asm __volatile("sti");
  2800a4:	fb                   	sti    


//day8

struct MOUSE_DEC mdec;
enable_mouse(&mdec); //这里会产生一个mouse interrupt
  2800a5:	8d 85 10 fe ff ff    	lea    -0x1f0(%ebp),%eax
  2800ab:	89 04 24             	mov    %eax,(%esp)
  2800ae:	e8 35 0c 00 00       	call   280ce8 <enable_mouse>

unsigned int memtotal;
memtotal=memtest(0x400000,0xffffffff);
  2800b3:	5f                   	pop    %edi
  2800b4:	58                   	pop    %eax
memman_init(memman);
//memman_free(memman,0x1000,0x9e000);
memman_free(memman,0x400000,memtotal-0x400000);
//memman_free(memman,0x600000,0x400000);
//memman_free(memman,0xb00000,0x400000);
sprintf(s,"memory:%dMB,free:%dMB,%d",memtotal>>20
  2800b5:	8d bd 40 fe ff ff    	lea    -0x1c0(%ebp),%edi

struct MOUSE_DEC mdec;
enable_mouse(&mdec); //这里会产生一个mouse interrupt

unsigned int memtotal;
memtotal=memtest(0x400000,0xffffffff);
  2800bb:	6a ff                	push   $0xffffffff
  2800bd:	68 00 00 40 00       	push   $0x400000
  2800c2:	e8 12 0d 00 00       	call   280dd9 <memtest>
//mem=mem>>20;
//sprintf(s,"memory:%dMbytes",mem);
//puts8((char *)bootp->vram ,bootp->xsize,0,100,0,s);
Memman * memman=(Memman *)0x3c0000;
memman_init(memman);
  2800c7:	c7 04 24 00 00 3c 00 	movl   $0x3c0000,(%esp)

struct MOUSE_DEC mdec;
enable_mouse(&mdec); //这里会产生一个mouse interrupt

unsigned int memtotal;
memtotal=memtest(0x400000,0xffffffff);
  2800ce:	89 c3                	mov    %eax,%ebx
//mem=mem>>20;
//sprintf(s,"memory:%dMbytes",mem);
//puts8((char *)bootp->vram ,bootp->xsize,0,100,0,s);
Memman * memman=(Memman *)0x3c0000;
memman_init(memman);
  2800d0:	e8 52 0d 00 00       	call   280e27 <memman_init>
//memman_free(memman,0x1000,0x9e000);
memman_free(memman,0x400000,memtotal-0x400000);
  2800d5:	83 c4 0c             	add    $0xc,%esp
  2800d8:	8d 83 00 00 c0 ff    	lea    -0x400000(%ebx),%eax
  2800de:	50                   	push   %eax
  2800df:	68 00 00 40 00       	push   $0x400000
  2800e4:	68 00 00 3c 00       	push   $0x3c0000
  2800e9:	e8 d2 0d 00 00       	call   280ec0 <memman_free>
//memman_free(memman,0x600000,0x400000);
//memman_free(memman,0xb00000,0x400000);
sprintf(s,"memory:%dMB,free:%dMB,%d",memtotal>>20
  2800ee:	8b 35 00 00 3c 00    	mov    0x3c0000,%esi
  2800f4:	c1 eb 14             	shr    $0x14,%ebx
,memman_avail(memman)>>20,memman->cellnum);
  2800f7:	c7 04 24 00 00 3c 00 	movl   $0x3c0000,(%esp)
  2800fe:	e8 47 0d 00 00       	call   280e4a <memman_avail>
memman_init(memman);
//memman_free(memman,0x1000,0x9e000);
memman_free(memman,0x400000,memtotal-0x400000);
//memman_free(memman,0x600000,0x400000);
//memman_free(memman,0xb00000,0x400000);
sprintf(s,"memory:%dMB,free:%dMB,%d",memtotal>>20
  280103:	89 34 24             	mov    %esi,(%esp)
  init_palette();  //color table from 0 to 15
  draw_window();

int mx,my;//mouse position
mx=30;
my=30;
  280106:	be 1e 00 00 00       	mov    $0x1e,%esi
memman_init(memman);
//memman_free(memman,0x1000,0x9e000);
memman_free(memman,0x400000,memtotal-0x400000);
//memman_free(memman,0x600000,0x400000);
//memman_free(memman,0xb00000,0x400000);
sprintf(s,"memory:%dMB,free:%dMB,%d",memtotal>>20
  28010b:	c1 e8 14             	shr    $0x14,%eax
  28010e:	50                   	push   %eax
  28010f:	53                   	push   %ebx
  init_screen((struct boot_info * )bootp);
  init_palette();  //color table from 0 to 15
  draw_window();

int mx,my;//mouse position
mx=30;
  280110:	bb 1e 00 00 00       	mov    $0x1e,%ebx
memman_init(memman);
//memman_free(memman,0x1000,0x9e000);
memman_free(memman,0x400000,memtotal-0x400000);
//memman_free(memman,0x600000,0x400000);
//memman_free(memman,0xb00000,0x400000);
sprintf(s,"memory:%dMB,free:%dMB,%d",memtotal>>20
  280115:	68 ac 2a 28 00       	push   $0x282aac
  28011a:	57                   	push   %edi
  28011b:	e8 fb 05 00 00       	call   28071b <sprintf>
,memman_avail(memman)>>20,memman->cellnum);
puts8((char *)bootp->vram ,bootp->xsize,0,100,0,s);
  280120:	83 c4 18             	add    $0x18,%esp
  280123:	57                   	push   %edi
  280124:	6a 00                	push   $0x0
  280126:	6a 64                	push   $0x64
  280128:	6a 00                	push   $0x0
  28012a:	0f bf 05 f4 0f 00 00 	movswl 0xff4,%eax
  280131:	50                   	push   %eax
  280132:	ff 35 f8 0f 00 00    	pushl  0xff8
  280138:	e8 d9 06 00 00       	call   280816 <puts8>
  28013d:	83 c4 20             	add    $0x20,%esp

static __inline void
cli(void)
{

	__asm __volatile("cli");
  280140:	fa                   	cli    

 while(1)
 {
   cli();//disable cpu interrupt

   if(fifo8_status(&keyfifo) +fifo8_status(&mousefifo) == 0)//no data in keyfifo and mousefifo
  280141:	83 ec 0c             	sub    $0xc,%esp
  280144:	68 bc 30 28 00       	push   $0x2830bc
  280149:	e8 8c 0b 00 00       	call   280cda <fifo8_status>
  28014e:	c7 04 24 d4 30 28 00 	movl   $0x2830d4,(%esp)
  280155:	89 85 04 fe ff ff    	mov    %eax,-0x1fc(%ebp)
  28015b:	e8 7a 0b 00 00       	call   280cda <fifo8_status>
  280160:	83 c4 10             	add    $0x10,%esp
  280163:	03 85 04 fe ff ff    	add    -0x1fc(%ebp),%eax
  280169:	85 c0                	test   %eax,%eax
  28016b:	75 04                	jne    280171 <bootmain+0x171>

static __inline void
sti(void)
{

	__asm __volatile("sti");
  28016d:	fb                   	sti    

static __inline void
hlt(void)
{

	__asm __volatile("hlt");
  28016e:	f4                   	hlt    
  28016f:	eb cf                	jmp    280140 <bootmain+0x140>
    sti();
    hlt();
   }
   else
   {
      if(fifo8_status(&keyfifo) != 0)
  280171:	83 ec 0c             	sub    $0xc,%esp
  280174:	68 bc 30 28 00       	push   $0x2830bc
  280179:	e8 5c 0b 00 00       	call   280cda <fifo8_status>
  28017e:	83 c4 10             	add    $0x10,%esp
  280181:	85 c0                	test   %eax,%eax
  280183:	74 63                	je     2801e8 <bootmain+0x1e8>
      {

	data=fifo8_read(&keyfifo);
  280185:	83 ec 0c             	sub    $0xc,%esp
  280188:	68 bc 30 28 00       	push   $0x2830bc
  28018d:	e8 13 0b 00 00       	call   280ca5 <fifo8_read>
  280192:	89 85 04 fe ff ff    	mov    %eax,-0x1fc(%ebp)

static __inline void
sti(void)
{

	__asm __volatile("sti");
  280198:	fb                   	sti    
	sti();

	boxfill(0,0,0,13*8-1,15);//一个黑色的小box
  280199:	c7 04 24 0f 00 00 00 	movl   $0xf,(%esp)
  2801a0:	6a 67                	push   $0x67
  2801a2:	6a 00                	push   $0x0
  2801a4:	6a 00                	push   $0x0
  2801a6:	6a 00                	push   $0x0
  2801a8:	e8 79 02 00 00       	call   280426 <boxfill>
	sprintf(s,"%d key:%x",count,data);
  2801ad:	8b 85 04 fe ff ff    	mov    -0x1fc(%ebp),%eax
  2801b3:	83 c4 20             	add    $0x20,%esp
  2801b6:	0f b6 c0             	movzbl %al,%eax
  2801b9:	50                   	push   %eax
  2801ba:	6a 00                	push   $0x0
  2801bc:	68 c5 2a 28 00       	push   $0x282ac5
  2801c1:	57                   	push   %edi
  2801c2:	e8 54 05 00 00       	call   28071b <sprintf>
	puts8((char *)bootp->vram ,bootp->xsize,0,0,7,s);//display e0
  2801c7:	58                   	pop    %eax
  2801c8:	5a                   	pop    %edx
  2801c9:	57                   	push   %edi
  2801ca:	6a 07                	push   $0x7
  2801cc:	6a 00                	push   $0x0
  2801ce:	6a 00                	push   $0x0
  2801d0:	0f bf 05 f4 0f 00 00 	movswl 0xff4,%eax
  2801d7:	50                   	push   %eax
  2801d8:	ff 35 f8 0f 00 00    	pushl  0xff8
  2801de:	e8 33 06 00 00       	call   280816 <puts8>
  2801e3:	e9 6d 01 00 00       	jmp    280355 <bootmain+0x355>
	// hlt();//这个hlt()和上面的count变量是观察右ctrl发生了几次中断。
      }
      else if(fifo8_status(&mousefifo) != 0)//we have mouse interrupt data to process
  2801e8:	83 ec 0c             	sub    $0xc,%esp
  2801eb:	68 d4 30 28 00       	push   $0x2830d4
  2801f0:	e8 e5 0a 00 00       	call   280cda <fifo8_status>
  2801f5:	83 c4 10             	add    $0x10,%esp
  2801f8:	85 c0                	test   %eax,%eax
  2801fa:	0f 84 40 ff ff ff    	je     280140 <bootmain+0x140>
      {
	data=fifo8_read(&mousefifo);
  280200:	83 ec 0c             	sub    $0xc,%esp
  280203:	68 d4 30 28 00       	push   $0x2830d4
  280208:	e8 98 0a 00 00       	call   280ca5 <fifo8_read>
  28020d:	fb                   	sti    
	sti();

	if(mouse_decode(&mdec,data))
  28020e:	5a                   	pop    %edx
  28020f:	0f b6 c0             	movzbl %al,%eax
  280212:	59                   	pop    %ecx
  280213:	50                   	push   %eax
  280214:	8d 85 10 fe ff ff    	lea    -0x1f0(%ebp),%eax
  28021a:	50                   	push   %eax
  28021b:	e8 f1 0a 00 00       	call   280d11 <mouse_decode>
  280220:	83 c4 10             	add    $0x10,%esp
  280223:	85 c0                	test   %eax,%eax
  280225:	0f 84 15 ff ff ff    	je     280140 <bootmain+0x140>
	{
	      //3个字节都得到了
	      sprintf(s,"[lmr:%d %d]",mdec.x,mdec.y);
  28022b:	ff b5 18 fe ff ff    	pushl  -0x1e8(%ebp)
  280231:	ff b5 14 fe ff ff    	pushl  -0x1ec(%ebp)
  280237:	68 cf 2a 28 00       	push   $0x282acf
  28023c:	57                   	push   %edi
  28023d:	e8 d9 04 00 00       	call   28071b <sprintf>
	      switch (mdec.button)
  280242:	8b 85 1c fe ff ff    	mov    -0x1e4(%ebp),%eax
  280248:	83 c4 10             	add    $0x10,%esp
  28024b:	83 f8 02             	cmp    $0x2,%eax
  28024e:	74 11                	je     280261 <bootmain+0x261>
  280250:	83 f8 04             	cmp    $0x4,%eax
  280253:	74 15                	je     28026a <bootmain+0x26a>
  280255:	48                   	dec    %eax
  280256:	75 19                	jne    280271 <bootmain+0x271>
	      {
		case 1:s[1]='L';break;
  280258:	c6 85 41 fe ff ff 4c 	movb   $0x4c,-0x1bf(%ebp)
  28025f:	eb 10                	jmp    280271 <bootmain+0x271>
		case 2:s[3]='R';break;
  280261:	c6 85 43 fe ff ff 52 	movb   $0x52,-0x1bd(%ebp)
  280268:	eb 07                	jmp    280271 <bootmain+0x271>
		case 4:s[2]='M';break;
  28026a:	c6 85 42 fe ff ff 4d 	movb   $0x4d,-0x1be(%ebp)

	      }
	      boxfill(0,32,16,32+20*8-1,31);//一个黑色的小box
  280271:	83 ec 0c             	sub    $0xc,%esp
  280274:	6a 1f                	push   $0x1f
  280276:	68 bf 00 00 00       	push   $0xbf
  28027b:	6a 10                	push   $0x10
  28027d:	6a 20                	push   $0x20
  28027f:	6a 00                	push   $0x0
  280281:	e8 a0 01 00 00       	call   280426 <boxfill>
	      puts8((char *)bootp->vram ,bootp->xsize,32,16,7,s);//display e0
  280286:	83 c4 18             	add    $0x18,%esp
  280289:	57                   	push   %edi
  28028a:	6a 07                	push   $0x7
  28028c:	6a 10                	push   $0x10
  28028e:	6a 20                	push   $0x20
  280290:	0f bf 05 f4 0f 00 00 	movswl 0xff4,%eax
  280297:	50                   	push   %eax
  280298:	ff 35 f8 0f 00 00    	pushl  0xff8
  28029e:	e8 73 05 00 00       	call   280816 <puts8>
    #define white 7
	      boxfill(white,mx,my,mx+15,my+15);//用背景色把鼠标原来的color填充，这样不会看到鼠标移动的path
  2802a3:	83 c4 14             	add    $0x14,%esp
  2802a6:	8d 46 0f             	lea    0xf(%esi),%eax
  2802a9:	50                   	push   %eax
  2802aa:	8d 43 0f             	lea    0xf(%ebx),%eax
  2802ad:	50                   	push   %eax
  2802ae:	56                   	push   %esi
  2802af:	53                   	push   %ebx
  2802b0:	6a 07                	push   $0x7
  2802b2:	e8 6f 01 00 00       	call   280426 <boxfill>
  2802b7:	83 c4 20             	add    $0x20,%esp
  2802ba:	31 c0                	xor    %eax,%eax
  2802bc:	03 9d 14 fe ff ff    	add    -0x1ec(%ebp),%ebx
  2802c2:	0f 48 d8             	cmovs  %eax,%ebx
  2802c5:	03 b5 18 fe ff ff    	add    -0x1e8(%ebp),%esi
  2802cb:	0f 48 f0             	cmovs  %eax,%esi
	      {
		my=0;
	      }


	      if(mx>bootp->xsize-16)
  2802ce:	0f bf 05 f4 0f 00 00 	movswl 0xff4,%eax
  2802d5:	8d 50 f1             	lea    -0xf(%eax),%edx
	      {
		mx=bootp->xsize-16;
  2802d8:	83 e8 10             	sub    $0x10,%eax
  2802db:	39 da                	cmp    %ebx,%edx
  2802dd:	0f 4e d8             	cmovle %eax,%ebx
	      }

	      if(my>bootp->ysize-16)
  2802e0:	0f bf 05 f6 0f 00 00 	movswl 0xff6,%eax
  2802e7:	8d 50 f1             	lea    -0xf(%eax),%edx
	      {
		my=bootp->ysize-16;
  2802ea:	83 e8 10             	sub    $0x10,%eax
  2802ed:	39 f2                	cmp    %esi,%edx
  2802ef:	0f 4e f0             	cmovle %eax,%esi
	      }
	      sprintf(s,"(%d, %d)",mx,my);
  2802f2:	56                   	push   %esi
  2802f3:	53                   	push   %ebx
  2802f4:	68 db 2a 28 00       	push   $0x282adb
  2802f9:	57                   	push   %edi
  2802fa:	e8 1c 04 00 00       	call   28071b <sprintf>
	      boxfill(0,0,0,79,15);//坐标的背景色
  2802ff:	c7 04 24 0f 00 00 00 	movl   $0xf,(%esp)
  280306:	6a 4f                	push   $0x4f
  280308:	6a 00                	push   $0x0
  28030a:	6a 00                	push   $0x0
  28030c:	6a 00                	push   $0x0
  28030e:	e8 13 01 00 00       	call   280426 <boxfill>
	      puts8((char *)bootp->vram ,bootp->xsize,0,0,7,s);//显示坐标
  280313:	83 c4 18             	add    $0x18,%esp
  280316:	57                   	push   %edi
  280317:	6a 07                	push   $0x7
  280319:	6a 00                	push   $0x0
  28031b:	6a 00                	push   $0x0
  28031d:	0f bf 05 f4 0f 00 00 	movswl 0xff4,%eax
  280324:	50                   	push   %eax
  280325:	ff 35 f8 0f 00 00    	pushl  0xff8
  28032b:	e8 e6 04 00 00       	call   280816 <puts8>


	      display_mouse(bootp->vram,bootp->xsize,16,16,mx,my,mousepic,16);//根据新的mx,my重绘屏幕鼠标指针
  280330:	83 c4 20             	add    $0x20,%esp
  280333:	6a 10                	push   $0x10
  280335:	8d 85 e8 fe ff ff    	lea    -0x118(%ebp),%eax
  28033b:	50                   	push   %eax
  28033c:	56                   	push   %esi
  28033d:	53                   	push   %ebx
  28033e:	6a 10                	push   $0x10
  280340:	6a 10                	push   $0x10
  280342:	0f bf 05 f4 0f 00 00 	movswl 0xff4,%eax
  280349:	50                   	push   %eax
  28034a:	ff 35 f8 0f 00 00    	pushl  0xff8
  280350:	e8 c9 02 00 00       	call   28061e <display_mouse>
  280355:	83 c4 20             	add    $0x20,%esp
  280358:	e9 e3 fd ff ff       	jmp    280140 <bootmain+0x140>

0028035d <clear_screen>:
#include<header.h>

void clear_screen(char color) //15:pure white
{
  28035d:	55                   	push   %ebp
  int i;
  for(i=0xa0000;i<0xaffff;i++)
  28035e:	b8 00 00 0a 00       	mov    $0xa0000,%eax
#include<header.h>

void clear_screen(char color) //15:pure white
{
  280363:	89 e5                	mov    %esp,%ebp
  280365:	8a 55 08             	mov    0x8(%ebp),%dl
  int i;
  for(i=0xa0000;i<0xaffff;i++)
  {
  write_mem8(i,color);  //if we write 15 ,all pixels color will be white,15 mens pure white ,so the screen changes into white
  280368:	88 10                	mov    %dl,(%eax)
#include<header.h>

void clear_screen(char color) //15:pure white
{
  int i;
  for(i=0xa0000;i<0xaffff;i++)
  28036a:	40                   	inc    %eax
  28036b:	3d ff ff 0a 00       	cmp    $0xaffff,%eax
  280370:	75 f6                	jne    280368 <clear_screen+0xb>
  {
  write_mem8(i,color);  //if we write 15 ,all pixels color will be white,15 mens pure white ,so the screen changes into white

  }
}
  280372:	5d                   	pop    %ebp
  280373:	c3                   	ret    

00280374 <color_screen>:

void color_screen(char color) //15:pure white
{
  280374:	55                   	push   %ebp
  int i;
  color=color;
  for(i=0xa0000;i<0xaffff;i++)
  280375:	b8 00 00 0a 00       	mov    $0xa0000,%eax

  }
}

void color_screen(char color) //15:pure white
{
  28037a:	89 e5                	mov    %esp,%ebp
  int i;
  color=color;
  for(i=0xa0000;i<0xaffff;i++)
  {
  write_mem8(i,i);  //if we write 15 ,all pixels color will be white,15 mens pure white ,so the screen changes into white
  28037c:	88 00                	mov    %al,(%eax)

void color_screen(char color) //15:pure white
{
  int i;
  color=color;
  for(i=0xa0000;i<0xaffff;i++)
  28037e:	40                   	inc    %eax
  28037f:	3d ff ff 0a 00       	cmp    $0xaffff,%eax
  280384:	75 f6                	jne    28037c <color_screen+0x8>
  {
  write_mem8(i,i);  //if we write 15 ,all pixels color will be white,15 mens pure white ,so the screen changes into white

  }
}
  280386:	5d                   	pop    %ebp
  280387:	c3                   	ret    

00280388 <set_palette>:
   set_palette(0,255,table_rgb);
}

//设置调色板，  只用到了16个color,后面的都没有用到。
void set_palette(int start,int end, unsigned char *rgb)
{
  280388:	55                   	push   %ebp
  280389:	89 e5                	mov    %esp,%ebp
  28038b:	56                   	push   %esi
  28038c:	8b 4d 10             	mov    0x10(%ebp),%ecx
  28038f:	53                   	push   %ebx
  280390:	8b 5d 08             	mov    0x8(%ebp),%ebx
//read eflags and write_eflags
static __inline uint32_t
read_eflags(void)
{
        uint32_t eflags;
        __asm __volatile("pushfl; popl %0" : "=r" (eflags));
  280393:	9c                   	pushf  
  280394:	5e                   	pop    %esi

static __inline void
cli(void)
{

	__asm __volatile("cli");
  280395:	fa                   	cli    
// out:write a data to a port
static __inline void
outb(int port, uint8_t data)
{
  //data是变量0%0 , port是变量word１%w1
	__asm __volatile("outb %0,%w1" : : "a" (data), "d" (port));
  280396:	ba c8 03 00 00       	mov    $0x3c8,%edx

  cli(); // disable interrupt
  //为什么写port 0x03c8

  //rgb=rgb+;
  outb(0x03c8,start);
  28039b:	0f b6 c3             	movzbl %bl,%eax
  28039e:	ee                   	out    %al,(%dx)
  28039f:	b2 c9                	mov    $0xc9,%dl
  for(i=start;i<=end;i++)
  2803a1:	3b 5d 0c             	cmp    0xc(%ebp),%ebx
  2803a4:	7f 1a                	jg     2803c0 <set_palette+0x38>
  {
    outb(0x03c9,*(rgb)/4);    //outb函数是往指定的设备，送数据。
  2803a6:	8a 01                	mov    (%ecx),%al
  2803a8:	c0 e8 02             	shr    $0x2,%al
  2803ab:	ee                   	out    %al,(%dx)
    outb(0x03c9,*(rgb+1)/4);
  2803ac:	8a 41 01             	mov    0x1(%ecx),%al
  2803af:	c0 e8 02             	shr    $0x2,%al
  2803b2:	ee                   	out    %al,(%dx)
    outb(0x03c9,*(rgb+2)/4);
  2803b3:	8a 41 02             	mov    0x2(%ecx),%al
  2803b6:	c0 e8 02             	shr    $0x2,%al
  2803b9:	ee                   	out    %al,(%dx)
    rgb=rgb+3;
  2803ba:	83 c1 03             	add    $0x3,%ecx
  cli(); // disable interrupt
  //为什么写port 0x03c8

  //rgb=rgb+;
  outb(0x03c8,start);
  for(i=start;i<=end;i++)
  2803bd:	43                   	inc    %ebx
  2803be:	eb e1                	jmp    2803a1 <set_palette+0x19>
}

static __inline void
write_eflags(uint32_t eflags)
{
        __asm __volatile("pushl %0; popfl" : : "r" (eflags));
  2803c0:	56                   	push   %esi
  2803c1:	9d                   	popf   
  }

write_eflags(eflag);  //恢复从前的cpsr
  return;

}
  2803c2:	5b                   	pop    %ebx
  2803c3:	5e                   	pop    %esi
  2803c4:	5d                   	pop    %ebp
  2803c5:	c3                   	ret    

002803c6 <init_palette>:
}

//初始化调色板，table_rgb[]保存了16种color的编码。
//什么调色板是这样进行设置，这个与x86的port 0x03c8 0x03c9
void init_palette(void)
{
  2803c6:	55                   	push   %ebp
  //16种color，每个color三个字节。
unsigned char table_rgb[16*3]={
  2803c7:	b9 0c 00 00 00       	mov    $0xc,%ecx
}

//初始化调色板，table_rgb[]保存了16种color的编码。
//什么调色板是这样进行设置，这个与x86的port 0x03c8 0x03c9
void init_palette(void)
{
  2803cc:	89 e5                	mov    %esp,%ebp
  2803ce:	57                   	push   %edi
  2803cf:	56                   	push   %esi
  //16种color，每个color三个字节。
unsigned char table_rgb[16*3]={
  2803d0:	be 7c 29 28 00       	mov    $0x28297c,%esi
}

//初始化调色板，table_rgb[]保存了16种color的编码。
//什么调色板是这样进行设置，这个与x86的port 0x03c8 0x03c9
void init_palette(void)
{
  2803d5:	83 ec 30             	sub    $0x30,%esp
    0x00,0x00,0x84,   /*12:dark 青*/
    0x84,0x00,0x84,   /*13:dark purper*/
    0x00,0x84,0x84,   /*14:light blue*/
    0x84,0x84,0x84,   /*15:dark gray*/
  };
   set_palette(0,255,table_rgb);
  2803d8:	8d 45 c8             	lea    -0x38(%ebp),%eax
//初始化调色板，table_rgb[]保存了16种color的编码。
//什么调色板是这样进行设置，这个与x86的port 0x03c8 0x03c9
void init_palette(void)
{
  //16种color，每个color三个字节。
unsigned char table_rgb[16*3]={
  2803db:	8d 7d c8             	lea    -0x38(%ebp),%edi
  2803de:	f3 a5                	rep movsl %ds:(%esi),%es:(%edi)
    0x00,0x00,0x84,   /*12:dark 青*/
    0x84,0x00,0x84,   /*13:dark purper*/
    0x00,0x84,0x84,   /*14:light blue*/
    0x84,0x84,0x84,   /*15:dark gray*/
  };
   set_palette(0,255,table_rgb);
  2803e0:	50                   	push   %eax
  2803e1:	68 ff 00 00 00       	push   $0xff
  2803e6:	6a 00                	push   $0x0
  2803e8:	e8 9b ff ff ff       	call   280388 <set_palette>
  2803ed:	83 c4 0c             	add    $0xc,%esp
}
  2803f0:	8d 65 f8             	lea    -0x8(%ebp),%esp
  2803f3:	5e                   	pop    %esi
  2803f4:	5f                   	pop    %edi
  2803f5:	5d                   	pop    %ebp
  2803f6:	c3                   	ret    

002803f7 <boxfill8>:
  return;

}

void boxfill8(unsigned char *vram,int xsize,unsigned char color,int x0,int y0,int x1,int y1)
{
  2803f7:	55                   	push   %ebp
  2803f8:	89 e5                	mov    %esp,%ebp
  2803fa:	8b 4d 18             	mov    0x18(%ebp),%ecx
  2803fd:	8b 45 0c             	mov    0xc(%ebp),%eax
  280400:	53                   	push   %ebx
  280401:	8a 5d 10             	mov    0x10(%ebp),%bl
  280404:	0f af c1             	imul   %ecx,%eax
  280407:	03 45 08             	add    0x8(%ebp),%eax
 int x,y;
 for(y=y0;y<=y1;y++)
  28040a:	3b 4d 20             	cmp    0x20(%ebp),%ecx
  28040d:	7f 14                	jg     280423 <boxfill8+0x2c>
  28040f:	8b 55 14             	mov    0x14(%ebp),%edx
 {
   for(x=x0;x<=x1;x++)
  280412:	3b 55 1c             	cmp    0x1c(%ebp),%edx
  280415:	7f 06                	jg     28041d <boxfill8+0x26>
   {
      vram[y*xsize+x]=color;
  280417:	88 1c 10             	mov    %bl,(%eax,%edx,1)
void boxfill8(unsigned char *vram,int xsize,unsigned char color,int x0,int y0,int x1,int y1)
{
 int x,y;
 for(y=y0;y<=y1;y++)
 {
   for(x=x0;x<=x1;x++)
  28041a:	42                   	inc    %edx
  28041b:	eb f5                	jmp    280412 <boxfill8+0x1b>
}

void boxfill8(unsigned char *vram,int xsize,unsigned char color,int x0,int y0,int x1,int y1)
{
 int x,y;
 for(y=y0;y<=y1;y++)
  28041d:	41                   	inc    %ecx
  28041e:	03 45 0c             	add    0xc(%ebp),%eax
  280421:	eb e7                	jmp    28040a <boxfill8+0x13>
   {
      vram[y*xsize+x]=color;
   }
 }

}
  280423:	5b                   	pop    %ebx
  280424:	5d                   	pop    %ebp
  280425:	c3                   	ret    

00280426 <boxfill>:
void boxfill(unsigned char color,int x0,int y0,int x1,int y1)
{
  280426:	55                   	push   %ebp
  280427:	89 e5                	mov    %esp,%ebp
  boxfill8((unsigned char *)VRAM,320,color,x0,y0,x1,y1);
  280429:	ff 75 18             	pushl  0x18(%ebp)
  28042c:	ff 75 14             	pushl  0x14(%ebp)
  28042f:	ff 75 10             	pushl  0x10(%ebp)
  280432:	ff 75 0c             	pushl  0xc(%ebp)
  280435:	0f b6 45 08          	movzbl 0x8(%ebp),%eax
  280439:	50                   	push   %eax
  28043a:	68 40 01 00 00       	push   $0x140
  28043f:	68 00 00 0a 00       	push   $0xa0000
  280444:	e8 ae ff ff ff       	call   2803f7 <boxfill8>
  280449:	83 c4 1c             	add    $0x1c,%esp
}
  28044c:	c9                   	leave  
  28044d:	c3                   	ret    

0028044e <draw_window>:

void draw_window()
{
  28044e:	55                   	push   %ebp
  28044f:	89 e5                	mov    %esp,%ebp
  int x=320,y=200;
    p=(unsigned char*)VRAM;
//     boxfill8(p,320,110,20,20,250,150);

    //draw a window
    boxfill(7 ,0, 0   ,x-1,y-29);
  280451:	68 ab 00 00 00       	push   $0xab
  280456:	68 3f 01 00 00       	push   $0x13f
  28045b:	6a 00                	push   $0x0
  28045d:	6a 00                	push   $0x0
  28045f:	6a 07                	push   $0x7
  280461:	e8 c0 ff ff ff       	call   280426 <boxfill>
//task button
    boxfill(8  ,0, y-28,x-1,y-28);
  280466:	68 ac 00 00 00       	push   $0xac
  28046b:	68 3f 01 00 00       	push   $0x13f
  280470:	68 ac 00 00 00       	push   $0xac
  280475:	6a 00                	push   $0x0
  280477:	6a 08                	push   $0x8
  280479:	e8 a8 ff ff ff       	call   280426 <boxfill>
    boxfill(7  ,0, y-27,x-1,y-27);
  28047e:	83 c4 28             	add    $0x28,%esp
  280481:	68 ad 00 00 00       	push   $0xad
  280486:	68 3f 01 00 00       	push   $0x13f
  28048b:	68 ad 00 00 00       	push   $0xad
  280490:	6a 00                	push   $0x0
  280492:	6a 07                	push   $0x7
  280494:	e8 8d ff ff ff       	call   280426 <boxfill>
    boxfill(8  ,0, y-26,x-1,y-1);
  280499:	68 c7 00 00 00       	push   $0xc7
  28049e:	68 3f 01 00 00       	push   $0x13f
  2804a3:	68 ae 00 00 00       	push   $0xae
  2804a8:	6a 00                	push   $0x0
  2804aa:	6a 08                	push   $0x8
  2804ac:	e8 75 ff ff ff       	call   280426 <boxfill>


//left button
    boxfill(7, 3,  y-24, 59,  y-24);
  2804b1:	83 c4 28             	add    $0x28,%esp
  2804b4:	68 b0 00 00 00       	push   $0xb0
  2804b9:	6a 3b                	push   $0x3b
  2804bb:	68 b0 00 00 00       	push   $0xb0
  2804c0:	6a 03                	push   $0x3
  2804c2:	6a 07                	push   $0x7
  2804c4:	e8 5d ff ff ff       	call   280426 <boxfill>
    boxfill(7, 2,  y-24, 2 ,  y-4);
  2804c9:	68 c4 00 00 00       	push   $0xc4
  2804ce:	6a 02                	push   $0x2
  2804d0:	68 b0 00 00 00       	push   $0xb0
  2804d5:	6a 02                	push   $0x2
  2804d7:	6a 07                	push   $0x7
  2804d9:	e8 48 ff ff ff       	call   280426 <boxfill>
    boxfill(15, 3,  y-4,  59,  y-4);
  2804de:	83 c4 28             	add    $0x28,%esp
  2804e1:	68 c4 00 00 00       	push   $0xc4
  2804e6:	6a 3b                	push   $0x3b
  2804e8:	68 c4 00 00 00       	push   $0xc4
  2804ed:	6a 03                	push   $0x3
  2804ef:	6a 0f                	push   $0xf
  2804f1:	e8 30 ff ff ff       	call   280426 <boxfill>
    boxfill(15, 59, y-23, 59,  y-5);
  2804f6:	68 c3 00 00 00       	push   $0xc3
  2804fb:	6a 3b                	push   $0x3b
  2804fd:	68 b1 00 00 00       	push   $0xb1
  280502:	6a 3b                	push   $0x3b
  280504:	6a 0f                	push   $0xf
  280506:	e8 1b ff ff ff       	call   280426 <boxfill>
    boxfill(0, 2,  y-3,  59,  y-3);
  28050b:	83 c4 28             	add    $0x28,%esp
  28050e:	68 c5 00 00 00       	push   $0xc5
  280513:	6a 3b                	push   $0x3b
  280515:	68 c5 00 00 00       	push   $0xc5
  28051a:	6a 02                	push   $0x2
  28051c:	6a 00                	push   $0x0
  28051e:	e8 03 ff ff ff       	call   280426 <boxfill>
    boxfill(0, 60, y-24, 60,  y-3);
  280523:	68 c5 00 00 00       	push   $0xc5
  280528:	6a 3c                	push   $0x3c
  28052a:	68 b0 00 00 00       	push   $0xb0
  28052f:	6a 3c                	push   $0x3c
  280531:	6a 00                	push   $0x0
  280533:	e8 ee fe ff ff       	call   280426 <boxfill>

//
//right button
    boxfill(15, x-47, y-24,x-4,y-24);
  280538:	83 c4 28             	add    $0x28,%esp
  28053b:	68 b0 00 00 00       	push   $0xb0
  280540:	68 3c 01 00 00       	push   $0x13c
  280545:	68 b0 00 00 00       	push   $0xb0
  28054a:	68 11 01 00 00       	push   $0x111
  28054f:	6a 0f                	push   $0xf
  280551:	e8 d0 fe ff ff       	call   280426 <boxfill>
    boxfill(15, x-47, y-23,x-47,y-4);
  280556:	68 c4 00 00 00       	push   $0xc4
  28055b:	68 11 01 00 00       	push   $0x111
  280560:	68 b1 00 00 00       	push   $0xb1
  280565:	68 11 01 00 00       	push   $0x111
  28056a:	6a 0f                	push   $0xf
  28056c:	e8 b5 fe ff ff       	call   280426 <boxfill>
    boxfill(7, x-47, y-3,x-4,y-3);
  280571:	83 c4 28             	add    $0x28,%esp
  280574:	68 c5 00 00 00       	push   $0xc5
  280579:	68 3c 01 00 00       	push   $0x13c
  28057e:	68 c5 00 00 00       	push   $0xc5
  280583:	68 11 01 00 00       	push   $0x111
  280588:	6a 07                	push   $0x7
  28058a:	e8 97 fe ff ff       	call   280426 <boxfill>
    boxfill(7, x-3, y-24,x-3,y-3);
  28058f:	68 c5 00 00 00       	push   $0xc5
  280594:	68 3d 01 00 00       	push   $0x13d
  280599:	68 b0 00 00 00       	push   $0xb0
  28059e:	68 3d 01 00 00       	push   $0x13d
  2805a3:	6a 07                	push   $0x7
  2805a5:	e8 7c fe ff ff       	call   280426 <boxfill>
  2805aa:	83 c4 28             	add    $0x28,%esp
}
  2805ad:	c9                   	leave  
  2805ae:	c3                   	ret    

002805af <init_screen>:


void init_screen(struct boot_info * bootp)
{
  2805af:	55                   	push   %ebp
  2805b0:	89 e5                	mov    %esp,%ebp
  2805b2:	8b 45 08             	mov    0x8(%ebp),%eax
  bootp->vram=(char *)VRAM;
  2805b5:	c7 40 08 00 00 0a 00 	movl   $0xa0000,0x8(%eax)
  bootp->color_mode=8;
  2805bc:	c6 40 02 08          	movb   $0x8,0x2(%eax)
  bootp->xsize=320;
  2805c0:	66 c7 40 04 40 01    	movw   $0x140,0x4(%eax)
  bootp->ysize=200;
  2805c6:	66 c7 40 06 c8 00    	movw   $0xc8,0x6(%eax)

}
  2805cc:	5d                   	pop    %ebp
  2805cd:	c3                   	ret    

002805ce <init_mouse>:

///关于mouse的函数
void init_mouse(char *mouse,char bg)
{
  2805ce:	55                   	push   %ebp
  2805cf:	31 c9                	xor    %ecx,%ecx
  2805d1:	89 e5                	mov    %esp,%ebp
  2805d3:	8a 45 0c             	mov    0xc(%ebp),%al
  2805d6:	8b 55 08             	mov    0x8(%ebp),%edx
  2805d9:	56                   	push   %esi
  2805da:	53                   	push   %ebx
  2805db:	89 c6                	mov    %eax,%esi
  2805dd:	31 c0                	xor    %eax,%eax
	int x,y;
	for(y=0;y<16;y++)
	{
	  for(x=0;x<16;x++)
	  {
	    switch (cursor[y][x])
  2805df:	8a 9c 01 ac 29 28 00 	mov    0x2829ac(%ecx,%eax,1),%bl
  2805e6:	80 fb 2e             	cmp    $0x2e,%bl
  2805e9:	74 10                	je     2805fb <init_mouse+0x2d>
  2805eb:	80 fb 4f             	cmp    $0x4f,%bl
  2805ee:	74 12                	je     280602 <init_mouse+0x34>
  2805f0:	80 fb 2a             	cmp    $0x2a,%bl
  2805f3:	75 11                	jne    280606 <init_mouse+0x38>
	    {
	      case '.':mouse[x+16*y]=bg;break;  //background
	      case '*':mouse[x+16*y]=outline;break;   //outline
  2805f5:	c6 04 02 00          	movb   $0x0,(%edx,%eax,1)
  2805f9:	eb 0b                	jmp    280606 <init_mouse+0x38>
	{
	  for(x=0;x<16;x++)
	  {
	    switch (cursor[y][x])
	    {
	      case '.':mouse[x+16*y]=bg;break;  //background
  2805fb:	89 f3                	mov    %esi,%ebx
  2805fd:	88 1c 02             	mov    %bl,(%edx,%eax,1)
  280600:	eb 04                	jmp    280606 <init_mouse+0x38>
	      case '*':mouse[x+16*y]=outline;break;   //outline
	      case 'O':mouse[x+16*y]=inside;break;  //inside
  280602:	c6 04 02 02          	movb   $0x2,(%edx,%eax,1)
		".............***"
	};
	int x,y;
	for(y=0;y<16;y++)
	{
	  for(x=0;x<16;x++)
  280606:	40                   	inc    %eax
  280607:	83 f8 10             	cmp    $0x10,%eax
  28060a:	75 d3                	jne    2805df <init_mouse+0x11>
  28060c:	83 c1 10             	add    $0x10,%ecx
  28060f:	83 c2 10             	add    $0x10,%edx
		"*..........*OOO*",
		"............*OO*",
		".............***"
	};
	int x,y;
	for(y=0;y<16;y++)
  280612:	81 f9 00 01 00 00    	cmp    $0x100,%ecx
  280618:	75 c3                	jne    2805dd <init_mouse+0xf>

	  }

	}

}
  28061a:	5b                   	pop    %ebx
  28061b:	5e                   	pop    %esi
  28061c:	5d                   	pop    %ebp
  28061d:	c3                   	ret    

0028061e <display_mouse>:

void display_mouse(char *vram,int xsize,int pxsize,int pysize,int px0,int py0,char *buf,int bxsize)
{
  28061e:	55                   	push   %ebp
  28061f:	89 e5                	mov    %esp,%ebp
  280621:	8b 45 1c             	mov    0x1c(%ebp),%eax
  280624:	56                   	push   %esi
  int x,y;
  for(y=0;y<pysize;y++)
  280625:	31 f6                	xor    %esi,%esi
	}

}

void display_mouse(char *vram,int xsize,int pxsize,int pysize,int px0,int py0,char *buf,int bxsize)
{
  280627:	53                   	push   %ebx
  280628:	8b 5d 20             	mov    0x20(%ebp),%ebx
  28062b:	0f af 45 0c          	imul   0xc(%ebp),%eax
  28062f:	03 45 18             	add    0x18(%ebp),%eax
  280632:	03 45 08             	add    0x8(%ebp),%eax
  int x,y;
  for(y=0;y<pysize;y++)
  280635:	3b 75 14             	cmp    0x14(%ebp),%esi
  280638:	7d 19                	jge    280653 <display_mouse+0x35>
  28063a:	31 d2                	xor    %edx,%edx
  {
    for(x=0;x<pxsize;x++)
  28063c:	3b 55 10             	cmp    0x10(%ebp),%edx
  28063f:	7d 09                	jge    28064a <display_mouse+0x2c>
    {
     vram[(py0+y)*xsize+(px0+x)]=buf[y*bxsize+x];
  280641:	8a 0c 13             	mov    (%ebx,%edx,1),%cl
  280644:	88 0c 10             	mov    %cl,(%eax,%edx,1)
void display_mouse(char *vram,int xsize,int pxsize,int pysize,int px0,int py0,char *buf,int bxsize)
{
  int x,y;
  for(y=0;y<pysize;y++)
  {
    for(x=0;x<pxsize;x++)
  280647:	42                   	inc    %edx
  280648:	eb f2                	jmp    28063c <display_mouse+0x1e>
}

void display_mouse(char *vram,int xsize,int pxsize,int pysize,int px0,int py0,char *buf,int bxsize)
{
  int x,y;
  for(y=0;y<pysize;y++)
  28064a:	46                   	inc    %esi
  28064b:	03 5d 24             	add    0x24(%ebp),%ebx
  28064e:	03 45 0c             	add    0xc(%ebp),%eax
  280651:	eb e2                	jmp    280635 <display_mouse+0x17>
    {
     vram[(py0+y)*xsize+(px0+x)]=buf[y*bxsize+x];
    }
  }

}
  280653:	5b                   	pop    %ebx
  280654:	5e                   	pop    %esi
  280655:	5d                   	pop    %ebp
  280656:	c3                   	ret    

00280657 <itoa>:
sprintf(font,"Debug:var=%x" ,i);
puts8((char *)VRAM ,320,x,150,1,font);

}

void itoa(int value,char *buf){
  280657:	55                   	push   %ebp
    char tmp_buf[10] = {0};
  280658:	31 c0                	xor    %eax,%eax
sprintf(font,"Debug:var=%x" ,i);
puts8((char *)VRAM ,320,x,150,1,font);

}

void itoa(int value,char *buf){
  28065a:	89 e5                	mov    %esp,%ebp
    char tmp_buf[10] = {0};
  28065c:	b9 0a 00 00 00       	mov    $0xa,%ecx
sprintf(font,"Debug:var=%x" ,i);
puts8((char *)VRAM ,320,x,150,1,font);

}

void itoa(int value,char *buf){
  280661:	57                   	push   %edi
  280662:	56                   	push   %esi
  280663:	53                   	push   %ebx
  280664:	83 ec 10             	sub    $0x10,%esp
  280667:	8b 55 08             	mov    0x8(%ebp),%edx
    char tmp_buf[10] = {0};
  28066a:	8d 7d ea             	lea    -0x16(%ebp),%edi
sprintf(font,"Debug:var=%x" ,i);
puts8((char *)VRAM ,320,x,150,1,font);

}

void itoa(int value,char *buf){
  28066d:	8b 5d 0c             	mov    0xc(%ebp),%ebx
    char tmp_buf[10] = {0};
  280670:	f3 aa                	rep stos %al,%es:(%edi)
  280672:	8d 7d ea             	lea    -0x16(%ebp),%edi
    char *tbp = tmp_buf;
    if((value >> 31) & 0x1)
  280675:	85 d2                	test   %edx,%edx
  280677:	79 06                	jns    28067f <itoa+0x28>
    { /* neg num */
        *buf++ = '-';//得到负号
  280679:	c6 03 2d             	movb   $0x2d,(%ebx)
        value = ~value + 1; //将负数变为正数
  28067c:	f7 da                	neg    %edx
void itoa(int value,char *buf){
    char tmp_buf[10] = {0};
    char *tbp = tmp_buf;
    if((value >> 31) & 0x1)
    { /* neg num */
        *buf++ = '-';//得到负号
  28067e:	43                   	inc    %ebx
  28067f:	89 f9                	mov    %edi,%ecx



    do
    {
        *tbp++ = ('0' + (char)(value % 10));//得到低位数字
  280681:	be 0a 00 00 00       	mov    $0xa,%esi
  280686:	89 d0                	mov    %edx,%eax
  280688:	41                   	inc    %ecx
  280689:	99                   	cltd   
  28068a:	f7 fe                	idiv   %esi
  28068c:	83 c2 30             	add    $0x30,%edx
        value /= 10;
    }while(value);
  28068f:	85 c0                	test   %eax,%eax



    do
    {
        *tbp++ = ('0' + (char)(value % 10));//得到低位数字
  280691:	88 51 ff             	mov    %dl,-0x1(%ecx)
        value /= 10;
  280694:	89 c2                	mov    %eax,%edx
    }while(value);
  280696:	75 ee                	jne    280686 <itoa+0x2f>



    do
    {
        *tbp++ = ('0' + (char)(value % 10));//得到低位数字
  280698:	89 ce                	mov    %ecx,%esi
  28069a:	89 d8                	mov    %ebx,%eax
        value /= 10;
    }while(value);


    while(tmp_buf != tbp)
  28069c:	39 f9                	cmp    %edi,%ecx
  28069e:	74 09                	je     2806a9 <itoa+0x52>
    {
      tbp--;
  2806a0:	49                   	dec    %ecx
      *buf++ = *tbp;
  2806a1:	8a 11                	mov    (%ecx),%dl
  2806a3:	40                   	inc    %eax
  2806a4:	88 50 ff             	mov    %dl,-0x1(%eax)
  2806a7:	eb f3                	jmp    28069c <itoa+0x45>
  2806a9:	89 f0                	mov    %esi,%eax
  2806ab:	29 c8                	sub    %ecx,%eax

    }
    *buf='\0';
  2806ad:	c6 04 03 00          	movb   $0x0,(%ebx,%eax,1)


}
  2806b1:	83 c4 10             	add    $0x10,%esp
  2806b4:	5b                   	pop    %ebx
  2806b5:	5e                   	pop    %esi
  2806b6:	5f                   	pop    %edi
  2806b7:	5d                   	pop    %ebp
  2806b8:	c3                   	ret    

002806b9 <xtoa>:
    else
        value = value + 48;
    return value;
}

void xtoa(unsigned int value,char *buf){
  2806b9:	55                   	push   %ebp
    char tmp_buf[30] = {0};
  2806ba:	31 c0                	xor    %eax,%eax
    else
        value = value + 48;
    return value;
}

void xtoa(unsigned int value,char *buf){
  2806bc:	89 e5                	mov    %esp,%ebp
    char tmp_buf[30] = {0};
  2806be:	b9 1e 00 00 00       	mov    $0x1e,%ecx
    else
        value = value + 48;
    return value;
}

void xtoa(unsigned int value,char *buf){
  2806c3:	57                   	push   %edi
  2806c4:	56                   	push   %esi
  2806c5:	53                   	push   %ebx
  2806c6:	83 ec 20             	sub    $0x20,%esp
  2806c9:	8b 55 0c             	mov    0xc(%ebp),%edx
    char tmp_buf[30] = {0};
  2806cc:	8d 7d d6             	lea    -0x2a(%ebp),%edi
  2806cf:	f3 aa                	rep stos %al,%es:(%edi)
    char *tbp = tmp_buf;
  2806d1:	8d 45 d6             	lea    -0x2a(%ebp),%eax

    *buf++='0';
  2806d4:	c6 02 30             	movb   $0x30,(%edx)
    *buf++='x';
  2806d7:	8d 72 02             	lea    0x2(%edx),%esi
  2806da:	c6 42 01 78          	movb   $0x78,0x1(%edx)

    do
    {
        // *tbp++ = ('0' + (char)(value % 16));//得到低位数字
	*tbp++=fourbtoc(value&0x0000000f);
  2806de:	8b 5d 08             	mov    0x8(%ebp),%ebx
  2806e1:	40                   	inc    %eax
  2806e2:	83 e3 0f             	and    $0xf,%ebx


}
static  inline char fourbtoc(int value){
    if(value >= 10)
        value = value - 10 + 65;
  2806e5:	83 fb 0a             	cmp    $0xa,%ebx
  2806e8:	8d 4b 37             	lea    0x37(%ebx),%ecx
  2806eb:	8d 7b 30             	lea    0x30(%ebx),%edi
  2806ee:	0f 4c cf             	cmovl  %edi,%ecx
        // *tbp++ = ('0' + (char)(value % 16));//得到低位数字
	*tbp++=fourbtoc(value&0x0000000f);

        //*tbp++ = ((value % 16)>9)?('A' + (char)(value % 16-10)):('0' + (char)(value % 16));//得到低位数字
        value >>= 4;
    }while(value);
  2806f1:	c1 6d 08 04          	shrl   $0x4,0x8(%ebp)
static  inline char fourbtoc(int value){
    if(value >= 10)
        value = value - 10 + 65;
    else
        value = value + 48;
    return value;
  2806f5:	88 48 ff             	mov    %cl,-0x1(%eax)
        // *tbp++ = ('0' + (char)(value % 16));//得到低位数字
	*tbp++=fourbtoc(value&0x0000000f);

        //*tbp++ = ((value % 16)>9)?('A' + (char)(value % 16-10)):('0' + (char)(value % 16));//得到低位数字
        value >>= 4;
    }while(value);
  2806f8:	75 e4                	jne    2806de <xtoa+0x25>
    *buf++='x';

    do
    {
        // *tbp++ = ('0' + (char)(value % 16));//得到低位数字
	*tbp++=fourbtoc(value&0x0000000f);
  2806fa:	89 c3                	mov    %eax,%ebx
        //*tbp++ = ((value % 16)>9)?('A' + (char)(value % 16-10)):('0' + (char)(value % 16));//得到低位数字
        value >>= 4;
    }while(value);


    while(tmp_buf != tbp)
  2806fc:	8d 7d d6             	lea    -0x2a(%ebp),%edi
  2806ff:	39 f8                	cmp    %edi,%eax
  280701:	74 09                	je     28070c <xtoa+0x53>
    {
      tbp--;
  280703:	48                   	dec    %eax
      *buf++ = *tbp;
  280704:	8a 08                	mov    (%eax),%cl
  280706:	46                   	inc    %esi
  280707:	88 4e ff             	mov    %cl,-0x1(%esi)
  28070a:	eb f0                	jmp    2806fc <xtoa+0x43>
  28070c:	29 c3                	sub    %eax,%ebx

    }
    *buf='\0';
  28070e:	c6 44 1a 02 00       	movb   $0x0,0x2(%edx,%ebx,1)


}
  280713:	83 c4 20             	add    $0x20,%esp
  280716:	5b                   	pop    %ebx
  280717:	5e                   	pop    %esi
  280718:	5f                   	pop    %edi
  280719:	5d                   	pop    %ebp
  28071a:	c3                   	ret    

0028071b <sprintf>:



//实现可变参数的打印，主要是为了观察打印的变量。
void sprintf(char *str,char *format ,...)
{
  28071b:	55                   	push   %ebp
  28071c:	89 e5                	mov    %esp,%ebp
  28071e:	57                   	push   %edi
  28071f:	56                   	push   %esi
  280720:	53                   	push   %ebx
  280721:	83 ec 10             	sub    $0x10,%esp
  280724:	8b 5d 08             	mov    0x8(%ebp),%ebx

   int *var=(int *)(&format)+1; //得到第一个可变参数的地址
  280727:	8d 75 10             	lea    0x10(%ebp),%esi
   char buffer[10];
   char *buf=buffer;
  while(*format)
  28072a:	8b 7d 0c             	mov    0xc(%ebp),%edi
  28072d:	8a 07                	mov    (%edi),%al
  28072f:	84 c0                	test   %al,%al
  280731:	0f 84 83 00 00 00    	je     2807ba <sprintf+0x9f>
  280737:	8d 4f 01             	lea    0x1(%edi),%ecx
  {
      if(*format!='%')
  28073a:	3c 25                	cmp    $0x25,%al
      {
	*str++=*format++;
  28073c:	89 4d 0c             	mov    %ecx,0xc(%ebp)
   int *var=(int *)(&format)+1; //得到第一个可变参数的地址
   char buffer[10];
   char *buf=buffer;
  while(*format)
  {
      if(*format!='%')
  28073f:	74 05                	je     280746 <sprintf+0x2b>
      {
	*str++=*format++;
  280741:	88 03                	mov    %al,(%ebx)
  280743:	43                   	inc    %ebx
	continue;
  280744:	eb e4                	jmp    28072a <sprintf+0xf>
      }
      else
      {
	format++;
	switch (*format)
  280746:	8a 47 01             	mov    0x1(%edi),%al
  280749:	3c 73                	cmp    $0x73,%al
  28074b:	74 46                	je     280793 <sprintf+0x78>
  28074d:	3c 78                	cmp    $0x78,%al
  28074f:	74 23                	je     280774 <sprintf+0x59>
  280751:	3c 64                	cmp    $0x64,%al
  280753:	75 53                	jne    2807a8 <sprintf+0x8d>
	{
	  case 'd':itoa(*var,buf);while(*buf){*str++=*buf++;};break;
  280755:	8d 45 ea             	lea    -0x16(%ebp),%eax
  280758:	50                   	push   %eax
  280759:	ff 36                	pushl  (%esi)
  28075b:	e8 f7 fe ff ff       	call   280657 <itoa>
  280760:	59                   	pop    %ecx
  280761:	8d 4d ea             	lea    -0x16(%ebp),%ecx
  280764:	58                   	pop    %eax
  280765:	89 d8                	mov    %ebx,%eax
  280767:	8a 19                	mov    (%ecx),%bl
  280769:	84 db                	test   %bl,%bl
  28076b:	74 3d                	je     2807aa <sprintf+0x8f>
  28076d:	40                   	inc    %eax
  28076e:	41                   	inc    %ecx
  28076f:	88 58 ff             	mov    %bl,-0x1(%eax)
  280772:	eb f3                	jmp    280767 <sprintf+0x4c>
	  case 'x':xtoa(*var,buf);while(*buf){*str++=*buf++;};break;
  280774:	8d 45 ea             	lea    -0x16(%ebp),%eax
  280777:	50                   	push   %eax
  280778:	ff 36                	pushl  (%esi)
  28077a:	e8 3a ff ff ff       	call   2806b9 <xtoa>
  28077f:	8d 4d ea             	lea    -0x16(%ebp),%ecx
  280782:	58                   	pop    %eax
  280783:	89 d8                	mov    %ebx,%eax
  280785:	5a                   	pop    %edx
  280786:	8a 19                	mov    (%ecx),%bl
  280788:	84 db                	test   %bl,%bl
  28078a:	74 1e                	je     2807aa <sprintf+0x8f>
  28078c:	40                   	inc    %eax
  28078d:	41                   	inc    %ecx
  28078e:	88 58 ff             	mov    %bl,-0x1(%eax)
  280791:	eb f3                	jmp    280786 <sprintf+0x6b>
	  case 's':buf=(char*)(*var);while(*buf){*str++=*buf++;};break;
  280793:	8b 16                	mov    (%esi),%edx
  280795:	89 d8                	mov    %ebx,%eax
  280797:	89 c1                	mov    %eax,%ecx
  280799:	29 d9                	sub    %ebx,%ecx
  28079b:	8a 0c 11             	mov    (%ecx,%edx,1),%cl
  28079e:	84 c9                	test   %cl,%cl
  2807a0:	74 08                	je     2807aa <sprintf+0x8f>
  2807a2:	40                   	inc    %eax
  2807a3:	88 48 ff             	mov    %cl,-0x1(%eax)
  2807a6:	eb ef                	jmp    280797 <sprintf+0x7c>
	continue;
      }
      else
      {
	format++;
	switch (*format)
  2807a8:	89 d8                	mov    %ebx,%eax
	  case 's':buf=(char*)(*var);while(*buf){*str++=*buf++;};break;

	}
	buf=buffer;
	var++;
	format++;
  2807aa:	83 c7 02             	add    $0x2,%edi
	  case 'x':xtoa(*var,buf);while(*buf){*str++=*buf++;};break;
	  case 's':buf=(char*)(*var);while(*buf){*str++=*buf++;};break;

	}
	buf=buffer;
	var++;
  2807ad:	83 c6 04             	add    $0x4,%esi
	format++;
  2807b0:	89 7d 0c             	mov    %edi,0xc(%ebp)
  2807b3:	89 c3                	mov    %eax,%ebx
  2807b5:	e9 70 ff ff ff       	jmp    28072a <sprintf+0xf>

      }

  }
  *str='\0';
  2807ba:	c6 03 00             	movb   $0x0,(%ebx)

}
  2807bd:	8d 65 f4             	lea    -0xc(%ebp),%esp
  2807c0:	5b                   	pop    %ebx
  2807c1:	5e                   	pop    %esi
  2807c2:	5f                   	pop    %edi
  2807c3:	5d                   	pop    %ebp
  2807c4:	c3                   	ret    

002807c5 <putfont8>:
}

}

void putfont8(char *vram ,int xsize,int x,int y,char color,char *font)//x=0 311 y=0 183
{
  2807c5:	55                   	push   %ebp
  int row,col;
  char d;
  for(row=0;row<16;row++)
  2807c6:	31 d2                	xor    %edx,%edx
}

}

void putfont8(char *vram ,int xsize,int x,int y,char color,char *font)//x=0 311 y=0 183
{
  2807c8:	89 e5                	mov    %esp,%ebp
  2807ca:	57                   	push   %edi
  for(row=0;row<16;row++)
  {
    d=font[row];
    for(col=0;col<8;col++)
    {
      if(d&(0x80>>col))
  2807cb:	bf 80 00 00 00       	mov    $0x80,%edi
}

}

void putfont8(char *vram ,int xsize,int x,int y,char color,char *font)//x=0 311 y=0 183
{
  2807d0:	56                   	push   %esi
  2807d1:	53                   	push   %ebx
  2807d2:	83 ec 01             	sub    $0x1,%esp
  2807d5:	8a 45 18             	mov    0x18(%ebp),%al
  2807d8:	88 45 f3             	mov    %al,-0xd(%ebp)
  2807db:	8b 45 14             	mov    0x14(%ebp),%eax
  2807de:	0f af 45 0c          	imul   0xc(%ebp),%eax
  2807e2:	03 45 10             	add    0x10(%ebp),%eax
  2807e5:	03 45 08             	add    0x8(%ebp),%eax
  for(row=0;row<16;row++)
  {
    d=font[row];
    for(col=0;col<8;col++)
    {
      if(d&(0x80>>col))
  2807e8:	8b 75 1c             	mov    0x1c(%ebp),%esi
  int row,col;
  char d;
  for(row=0;row<16;row++)
  {
    d=font[row];
    for(col=0;col<8;col++)
  2807eb:	31 c9                	xor    %ecx,%ecx
    {
      if(d&(0x80>>col))
  2807ed:	0f be 34 16          	movsbl (%esi,%edx,1),%esi
  2807f1:	89 fb                	mov    %edi,%ebx
  2807f3:	d3 fb                	sar    %cl,%ebx
  2807f5:	85 f3                	test   %esi,%ebx
  2807f7:	74 06                	je     2807ff <putfont8+0x3a>
      {
	vram[(y+row)*xsize+x+col]=color;
  2807f9:	8a 5d f3             	mov    -0xd(%ebp),%bl
  2807fc:	88 1c 08             	mov    %bl,(%eax,%ecx,1)
  int row,col;
  char d;
  for(row=0;row<16;row++)
  {
    d=font[row];
    for(col=0;col<8;col++)
  2807ff:	41                   	inc    %ecx
  280800:	83 f9 08             	cmp    $0x8,%ecx
  280803:	75 ec                	jne    2807f1 <putfont8+0x2c>

void putfont8(char *vram ,int xsize,int x,int y,char color,char *font)//x=0 311 y=0 183
{
  int row,col;
  char d;
  for(row=0;row<16;row++)
  280805:	42                   	inc    %edx
  280806:	03 45 0c             	add    0xc(%ebp),%eax
  280809:	83 fa 10             	cmp    $0x10,%edx
  28080c:	75 da                	jne    2807e8 <putfont8+0x23>
    }

  }
  return;

}
  28080e:	83 c4 01             	add    $0x1,%esp
  280811:	5b                   	pop    %ebx
  280812:	5e                   	pop    %esi
  280813:	5f                   	pop    %edi
  280814:	5d                   	pop    %ebp
  280815:	c3                   	ret    

00280816 <puts8>:
  *str='\0';

}

void puts8(char *vram ,int xsize,int x,int y,char color,char *font)//x=0 311 y=0 183
{
  280816:	55                   	push   %ebp
  280817:	89 e5                	mov    %esp,%ebp
  280819:	57                   	push   %edi
  28081a:	8b 7d 14             	mov    0x14(%ebp),%edi
  28081d:	56                   	push   %esi
      y=y+16;

    }
    else
    {
    putfont8((char *)vram ,xsize,x,y,color,(char *)(Font8x16+(*font)*16));
  28081e:	0f be 75 18          	movsbl 0x18(%ebp),%esi
  *str='\0';

}

void puts8(char *vram ,int xsize,int x,int y,char color,char *font)//x=0 311 y=0 183
{
  280822:	53                   	push   %ebx
  280823:	8b 5d 10             	mov    0x10(%ebp),%ebx

 while(*font)
  280826:	8b 45 1c             	mov    0x1c(%ebp),%eax
  280829:	0f be 00             	movsbl (%eax),%eax
  28082c:	84 c0                	test   %al,%al
  28082e:	74 42                	je     280872 <puts8+0x5c>
 {
    if(*font=='\n')
  280830:	3c 0a                	cmp    $0xa,%al
  280832:	75 05                	jne    280839 <puts8+0x23>
    {
      x=0;
      y=y+16;
  280834:	83 c7 10             	add    $0x10,%edi
  280837:	eb 32                	jmp    28086b <puts8+0x55>

    }
    else
    {
    putfont8((char *)vram ,xsize,x,y,color,(char *)(Font8x16+(*font)*16));
  280839:	c1 e0 04             	shl    $0x4,%eax
  28083c:	05 ac 0f 28 00       	add    $0x280fac,%eax
  280841:	50                   	push   %eax
  280842:	56                   	push   %esi
  280843:	57                   	push   %edi
  280844:	53                   	push   %ebx
    x+=8;
  280845:	83 c3 08             	add    $0x8,%ebx
      y=y+16;

    }
    else
    {
    putfont8((char *)vram ,xsize,x,y,color,(char *)(Font8x16+(*font)*16));
  280848:	ff 75 0c             	pushl  0xc(%ebp)
  28084b:	ff 75 08             	pushl  0x8(%ebp)
  28084e:	e8 72 ff ff ff       	call   2807c5 <putfont8>
    x+=8;
    if(x>312)
  280853:	83 c4 18             	add    $0x18,%esp
  280856:	81 fb 38 01 00 00    	cmp    $0x138,%ebx
  28085c:	7e 0f                	jle    28086d <puts8+0x57>
       {
	  x=0;
	  y+=16;
  28085e:	83 c7 10             	add    $0x10,%edi
	  if(y>183)
  280861:	81 ff b7 00 00 00    	cmp    $0xb7,%edi
  280867:	7e 02                	jle    28086b <puts8+0x55>
	  {
	    x=0;
	    y=0;
  280869:	31 ff                	xor    %edi,%edi
       {
	  x=0;
	  y+=16;
	  if(y>183)
	  {
	    x=0;
  28086b:	31 db                	xor    %ebx,%ebx

	  }
        }
    }

    font++;
  28086d:	ff 45 1c             	incl   0x1c(%ebp)
  280870:	eb b4                	jmp    280826 <puts8+0x10>
}

}
  280872:	8d 65 f4             	lea    -0xc(%ebp),%esp
  280875:	5b                   	pop    %ebx
  280876:	5e                   	pop    %esi
  280877:	5f                   	pop    %edi
  280878:	5d                   	pop    %ebp
  280879:	c3                   	ret    

0028087a <printdebug>:
#include<header.h>


void printdebug(unsigned int i,unsigned int x)
{
  28087a:	55                   	push   %ebp
  28087b:	89 e5                	mov    %esp,%ebp
  28087d:	53                   	push   %ebx
  28087e:	83 ec 20             	sub    $0x20,%esp
char font[30];
sprintf(font,"Debug:var=%x" ,i);
  280881:	ff 75 08             	pushl  0x8(%ebp)
  280884:	8d 5d de             	lea    -0x22(%ebp),%ebx
  280887:	68 e4 2a 28 00       	push   $0x282ae4
  28088c:	53                   	push   %ebx
  28088d:	e8 89 fe ff ff       	call   28071b <sprintf>
puts8((char *)VRAM ,320,x,150,1,font);
  280892:	53                   	push   %ebx
  280893:	6a 01                	push   $0x1
  280895:	68 96 00 00 00       	push   $0x96
  28089a:	ff 75 0c             	pushl  0xc(%ebp)
  28089d:	68 40 01 00 00       	push   $0x140
  2808a2:	68 00 00 0a 00       	push   $0xa0000
  2808a7:	e8 6a ff ff ff       	call   280816 <puts8>
  2808ac:	83 c4 24             	add    $0x24,%esp

}
  2808af:	8b 5d fc             	mov    -0x4(%ebp),%ebx
  2808b2:	c9                   	leave  
  2808b3:	c3                   	ret    

002808b4 <putfont16>:

  }

}
void putfont16(char *vram ,int xsize,int x,int y,char color,unsigned short *font)//x=0 311 y=0 183
{
  2808b4:	55                   	push   %ebp
  2808b5:	31 c9                	xor    %ecx,%ecx
  2808b7:	89 e5                	mov    %esp,%ebp
  2808b9:	57                   	push   %edi
  2808ba:	56                   	push   %esi
  2808bb:	53                   	push   %ebx
  2808bc:	52                   	push   %edx
  2808bd:	8b 55 14             	mov    0x14(%ebp),%edx
  2808c0:	0f af 55 0c          	imul   0xc(%ebp),%edx
  2808c4:	8b 45 10             	mov    0x10(%ebp),%eax
  2808c7:	03 45 08             	add    0x8(%ebp),%eax
  2808ca:	8a 5d 18             	mov    0x18(%ebp),%bl
  2808cd:	01 d0                	add    %edx,%eax
  int row,col;
  unsigned short  d;
  unsigned short *pt=(unsigned short *)(font-32*24);
  for(row=0;row<24;row++)
  2808cf:	31 d2                	xor    %edx,%edx
  2808d1:	89 45 f0             	mov    %eax,-0x10(%ebp)
  {
    d=pt[row];
    for(col=0;col<16;col++)
    {
       if( (d&(1 << col) ))
  2808d4:	8b 7d 1c             	mov    0x1c(%ebp),%edi
  2808d7:	8b 45 f0             	mov    -0x10(%ebp),%eax
  2808da:	0f b7 bc 57 00 fa ff 	movzwl -0x600(%edi,%edx,2),%edi
  2808e1:	ff 
  2808e2:	8d 34 01             	lea    (%ecx,%eax,1),%esi
  unsigned short  d;
  unsigned short *pt=(unsigned short *)(font-32*24);
  for(row=0;row<24;row++)
  {
    d=pt[row];
    for(col=0;col<16;col++)
  2808e5:	31 c0                	xor    %eax,%eax
    {
       if( (d&(1 << col) ))
  2808e7:	0f a3 c7             	bt     %eax,%edi
  2808ea:	73 03                	jae    2808ef <putfont16+0x3b>
     // if((d<<col)&0x0001)
      {
	vram[(y+row)*xsize+x+col]=color;
  2808ec:	88 1c 06             	mov    %bl,(%esi,%eax,1)
  unsigned short  d;
  unsigned short *pt=(unsigned short *)(font-32*24);
  for(row=0;row<24;row++)
  {
    d=pt[row];
    for(col=0;col<16;col++)
  2808ef:	40                   	inc    %eax
  2808f0:	83 f8 10             	cmp    $0x10,%eax
  2808f3:	75 f2                	jne    2808e7 <putfont16+0x33>
void putfont16(char *vram ,int xsize,int x,int y,char color,unsigned short *font)//x=0 311 y=0 183
{
  int row,col;
  unsigned short  d;
  unsigned short *pt=(unsigned short *)(font-32*24);
  for(row=0;row<24;row++)
  2808f5:	42                   	inc    %edx
  2808f6:	03 4d 0c             	add    0xc(%ebp),%ecx
  2808f9:	83 fa 18             	cmp    $0x18,%edx
  2808fc:	75 d6                	jne    2808d4 <putfont16+0x20>
    }

  }
  return;

}
  2808fe:	58                   	pop    %eax
  2808ff:	5b                   	pop    %ebx
  280900:	5e                   	pop    %esi
  280901:	5f                   	pop    %edi
  280902:	5d                   	pop    %ebp
  280903:	c3                   	ret    

00280904 <puts16>:
  return;

}
//print string: big string
void puts16(char *vram ,int xsize,int x,int y,char color,char *font)
{
  280904:	55                   	push   %ebp
  280905:	89 e5                	mov    %esp,%ebp
  280907:	57                   	push   %edi
  280908:	8b 7d 10             	mov    0x10(%ebp),%edi
  28090b:	56                   	push   %esi
  28090c:	8b 75 14             	mov    0x14(%ebp),%esi
  28090f:	53                   	push   %ebx

    }
    else
    {
	pt=(unsigned short *)((*font)*24+ASCII_Table);
	putfont16(vram ,xsize,x,y,color,pt);
  280910:	0f be 5d 18          	movsbl 0x18(%ebp),%ebx
}
//print string: big string
void puts16(char *vram ,int xsize,int x,int y,char color,char *font)
{
  unsigned short  *pt;
  while(*font)
  280914:	8b 45 1c             	mov    0x1c(%ebp),%eax
  280917:	0f be 00             	movsbl (%eax),%eax
  28091a:	84 c0                	test   %al,%al
  28091c:	74 2d                	je     28094b <puts16+0x47>
  {
    if(*font=='\n')
  28091e:	3c 0a                	cmp    $0xa,%al
  280920:	75 07                	jne    280929 <puts16+0x25>
    {
      x=0;
      y=y+24;
  280922:	83 c6 18             	add    $0x18,%esi
  unsigned short  *pt;
  while(*font)
  {
    if(*font=='\n')
    {
      x=0;
  280925:	31 ff                	xor    %edi,%edi
  280927:	eb 1d                	jmp    280946 <puts16+0x42>
      y=y+24;

    }
    else
    {
	pt=(unsigned short *)((*font)*24+ASCII_Table);
  280929:	6b c0 30             	imul   $0x30,%eax,%eax
  28092c:	05 ac 17 28 00       	add    $0x2817ac,%eax
	putfont16(vram ,xsize,x,y,color,pt);
  280931:	50                   	push   %eax
  280932:	53                   	push   %ebx
  280933:	56                   	push   %esi
  280934:	57                   	push   %edi
	x=x+16;
  280935:	83 c7 10             	add    $0x10,%edi

    }
    else
    {
	pt=(unsigned short *)((*font)*24+ASCII_Table);
	putfont16(vram ,xsize,x,y,color,pt);
  280938:	ff 75 0c             	pushl  0xc(%ebp)
  28093b:	ff 75 08             	pushl  0x8(%ebp)
  28093e:	e8 71 ff ff ff       	call   2808b4 <putfont16>
	x=x+16;
  280943:	83 c4 18             	add    $0x18,%esp


    }

     font++;
  280946:	ff 45 1c             	incl   0x1c(%ebp)
  280949:	eb c9                	jmp    280914 <puts16+0x10>

  }

}
  28094b:	8d 65 f4             	lea    -0xc(%ebp),%esp
  28094e:	5b                   	pop    %ebx
  28094f:	5e                   	pop    %esi
  280950:	5f                   	pop    %edi
  280951:	5d                   	pop    %ebp
  280952:	c3                   	ret    

00280953 <setgdt>:
#include<header.h>



void setgdt(struct GDT *sd ,unsigned int limit,int base,int access)//sd: selector describe
{
  280953:	55                   	push   %ebp
  280954:	89 e5                	mov    %esp,%ebp
  280956:	8b 55 0c             	mov    0xc(%ebp),%edx
  280959:	57                   	push   %edi
  28095a:	8b 45 08             	mov    0x8(%ebp),%eax
  28095d:	56                   	push   %esi
  28095e:	8b 7d 14             	mov    0x14(%ebp),%edi
  280961:	53                   	push   %ebx
  280962:	8b 5d 10             	mov    0x10(%ebp),%ebx
  if(limit>0xffff)
  280965:	81 fa ff ff 00 00    	cmp    $0xffff,%edx
  28096b:	76 09                	jbe    280976 <setgdt+0x23>
  {
    access|=0x8000;
  28096d:	81 cf 00 80 00 00    	or     $0x8000,%edi
    limit /=0x1000;
  280973:	c1 ea 0c             	shr    $0xc,%edx
  }
  sd->limit_low=limit&0xffff;
  sd->base_low=base &0xffff;
  sd->base_mid=(base>>16)&0xff;
  280976:	89 de                	mov    %ebx,%esi
  280978:	c1 fe 10             	sar    $0x10,%esi
  28097b:	89 f1                	mov    %esi,%ecx
  28097d:	88 48 04             	mov    %cl,0x4(%eax)
  sd->access_right=access&0xff;
  280980:	89 f9                	mov    %edi,%ecx
  sd->limit_high=((limit>>16)&0x0f)|((access>>8)&0xf0);//低４位是limt的高位，高４位是访问的权限设置。
  280982:	c1 ff 08             	sar    $0x8,%edi
    limit /=0x1000;
  }
  sd->limit_low=limit&0xffff;
  sd->base_low=base &0xffff;
  sd->base_mid=(base>>16)&0xff;
  sd->access_right=access&0xff;
  280985:	88 48 05             	mov    %cl,0x5(%eax)
  sd->limit_high=((limit>>16)&0x0f)|((access>>8)&0xf0);//低４位是limt的高位，高４位是访问的权限设置。
  280988:	89 f9                	mov    %edi,%ecx
  if(limit>0xffff)
  {
    access|=0x8000;
    limit /=0x1000;
  }
  sd->limit_low=limit&0xffff;
  28098a:	66 89 10             	mov    %dx,(%eax)
  sd->base_low=base &0xffff;
  sd->base_mid=(base>>16)&0xff;
  sd->access_right=access&0xff;
  sd->limit_high=((limit>>16)&0x0f)|((access>>8)&0xf0);//低４位是limt的高位，高４位是访问的权限设置。
  28098d:	83 e1 f0             	and    $0xfffffff0,%ecx
  280990:	c1 ea 10             	shr    $0x10,%edx
  {
    access|=0x8000;
    limit /=0x1000;
  }
  sd->limit_low=limit&0xffff;
  sd->base_low=base &0xffff;
  280993:	66 89 58 02          	mov    %bx,0x2(%eax)
  sd->base_mid=(base>>16)&0xff;
  sd->access_right=access&0xff;
  sd->limit_high=((limit>>16)&0x0f)|((access>>8)&0xf0);//低４位是limt的高位，高４位是访问的权限设置。
  280997:	09 d1                	or     %edx,%ecx
  sd->base_high=(base>>24)&0xff;
  280999:	c1 eb 18             	shr    $0x18,%ebx
  }
  sd->limit_low=limit&0xffff;
  sd->base_low=base &0xffff;
  sd->base_mid=(base>>16)&0xff;
  sd->access_right=access&0xff;
  sd->limit_high=((limit>>16)&0x0f)|((access>>8)&0xf0);//低４位是limt的高位，高４位是访问的权限设置。
  28099c:	88 48 06             	mov    %cl,0x6(%eax)
  sd->base_high=(base>>24)&0xff;
  28099f:	88 58 07             	mov    %bl,0x7(%eax)

}
  2809a2:	5b                   	pop    %ebx
  2809a3:	5e                   	pop    %esi
  2809a4:	5f                   	pop    %edi
  2809a5:	5d                   	pop    %ebp
  2809a6:	c3                   	ret    

002809a7 <setidt>:

void setidt(struct IDT *gd,int offset,int selector,int access)//gd: gate describe
{
  2809a7:	55                   	push   %ebp
  2809a8:	89 e5                	mov    %esp,%ebp
  2809aa:	8b 45 08             	mov    0x8(%ebp),%eax
  2809ad:	8b 4d 0c             	mov    0xc(%ebp),%ecx
  2809b0:	8b 55 14             	mov    0x14(%ebp),%edx
  //idt中有32位的offset address
  gd->offset_low=offset & 0xffff;
  2809b3:	66 89 08             	mov    %cx,(%eax)
  gd->offset_high=(offset>>16)&0xffff;
  2809b6:	c1 e9 10             	shr    $0x10,%ecx
  2809b9:	66 89 48 06          	mov    %cx,0x6(%eax)

  //16位的selector决定了base address
  gd->selector=selector;
  2809bd:	8b 4d 10             	mov    0x10(%ebp),%ecx

  gd->dw_count=(access>>8)&0xff;
  gd->access_right=(char)(access&0xff);//晕倒啊，是不是啊，天啊，访问权限是一个非常重要的量，错一点都不行的
  2809c0:	88 50 05             	mov    %dl,0x5(%eax)
  //idt中有32位的offset address
  gd->offset_low=offset & 0xffff;
  gd->offset_high=(offset>>16)&0xffff;

  //16位的selector决定了base address
  gd->selector=selector;
  2809c3:	66 89 48 02          	mov    %cx,0x2(%eax)

  gd->dw_count=(access>>8)&0xff;
  2809c7:	89 d1                	mov    %edx,%ecx
  2809c9:	c1 f9 08             	sar    $0x8,%ecx
  2809cc:	88 48 04             	mov    %cl,0x4(%eax)
  gd->access_right=(char)(access&0xff);//晕倒啊，是不是啊，天啊，访问权限是一个非常重要的量，错一点都不行的


}
  2809cf:	5d                   	pop    %ebp
  2809d0:	c3                   	ret    

002809d1 <init_gdtidt>:



void  init_gdtidt()
{
  2809d1:	55                   	push   %ebp
  2809d2:	89 e5                	mov    %esp,%ebp
  2809d4:	53                   	push   %ebx
  2809d5:	53                   	push   %ebx
  2809d6:	bb 00 00 27 00       	mov    $0x270000,%ebx
  struct GDT *gdt=(struct GDT *)(0x00270000);
  struct IDT *idt=(struct IDT *)(0x0026f800);
  int i;
  for(i=0;i<8192;i++)
  {
    setgdt(gdt+i,0,0,0);
  2809db:	6a 00                	push   $0x0
  2809dd:	6a 00                	push   $0x0
  2809df:	6a 00                	push   $0x0
  2809e1:	53                   	push   %ebx
  2809e2:	83 c3 08             	add    $0x8,%ebx
  2809e5:	e8 69 ff ff ff       	call   280953 <setgdt>
void  init_gdtidt()
{
  struct GDT *gdt=(struct GDT *)(0x00270000);
  struct IDT *idt=(struct IDT *)(0x0026f800);
  int i;
  for(i=0;i<8192;i++)
  2809ea:	83 c4 10             	add    $0x10,%esp
  2809ed:	81 fb 00 00 28 00    	cmp    $0x280000,%ebx
  2809f3:	75 e6                	jne    2809db <init_gdtidt+0xa>
  {
    setgdt(gdt+i,0,0,0);
  }
  setgdt(gdt+1,0xffffffff   ,0x00000000,0x4092);//entry.s main.c data 4GB空间的数据都能访问
  2809f5:	68 92 40 00 00       	push   $0x4092
  2809fa:	6a 00                	push   $0x0
  2809fc:	6a ff                	push   $0xffffffff
  2809fe:	68 08 00 27 00       	push   $0x270008
  280a03:	e8 4b ff ff ff       	call   280953 <setgdt>
  setgdt(gdt+2,0x000fffff   ,0x00000000,0x409a);//entry.S code
  280a08:	68 9a 40 00 00       	push   $0x409a
  280a0d:	6a 00                	push   $0x0
  280a0f:	68 ff ff 0f 00       	push   $0xfffff
  280a14:	68 10 00 27 00       	push   $0x270010
  280a19:	e8 35 ff ff ff       	call   280953 <setgdt>
  setgdt(gdt+3,0x000fffff   ,0x00280000,0x409a);  //main.c code　 0x7ffff=512kB
  280a1e:	83 c4 20             	add    $0x20,%esp
  280a21:	68 9a 40 00 00       	push   $0x409a
  280a26:	68 00 00 28 00       	push   $0x280000
  280a2b:	68 ff ff 0f 00       	push   $0xfffff
  280a30:	68 18 00 27 00       	push   $0x270018
  280a35:	e8 19 ff ff ff       	call   280953 <setgdt>

   load_gdtr(0xfff,0X00270000);//this is right
  280a3a:	5a                   	pop    %edx
  280a3b:	59                   	pop    %ecx
  280a3c:	68 00 00 27 00       	push   $0x270000
  280a41:	68 ff 0f 00 00       	push   $0xfff
  280a46:	e8 d1 01 00 00       	call   280c1c <load_gdtr>
  280a4b:	83 c4 10             	add    $0x10,%esp
  280a4e:	31 c0                	xor    %eax,%eax
}

void setidt(struct IDT *gd,int offset,int selector,int access)//gd: gate describe
{
  //idt中有32位的offset address
  gd->offset_low=offset & 0xffff;
  280a50:	66 c7 80 00 f8 26 00 	movw   $0x0,0x26f800(%eax)
  280a57:	00 00 
  280a59:	83 c0 08             	add    $0x8,%eax
  gd->offset_high=(offset>>16)&0xffff;
  280a5c:	66 c7 80 fe f7 26 00 	movw   $0x0,0x26f7fe(%eax)
  280a63:	00 00 

  //16位的selector决定了base address
  gd->selector=selector;
  280a65:	66 c7 80 fa f7 26 00 	movw   $0x0,0x26f7fa(%eax)
  280a6c:	00 00 

  gd->dw_count=(access>>8)&0xff;
  280a6e:	c6 80 fc f7 26 00 00 	movb   $0x0,0x26f7fc(%eax)
  gd->access_right=(char)(access&0xff);//晕倒啊，是不是啊，天啊，访问权限是一个非常重要的量，错一点都不行的
  280a75:	c6 80 fd f7 26 00 00 	movb   $0x0,0x26f7fd(%eax)
  setgdt(gdt+2,0x000fffff   ,0x00000000,0x409a);//entry.S code
  setgdt(gdt+3,0x000fffff   ,0x00280000,0x409a);  //main.c code　 0x7ffff=512kB

   load_gdtr(0xfff,0X00270000);//this is right

  for(i=0;i<256;i++)
  280a7c:	3d 00 08 00 00       	cmp    $0x800,%eax
  280a81:	75 cd                	jne    280a50 <init_gdtidt+0x7f>

void setidt(struct IDT *gd,int offset,int selector,int access)//gd: gate describe
{
  //idt中有32位的offset address
  gd->offset_low=offset & 0xffff;
  gd->offset_high=(offset>>16)&0xffff;
  280a83:	ba e6 0b 28 00       	mov    $0x280be6,%edx
  280a88:	66 31 c0             	xor    %ax,%ax
  280a8b:	c1 ea 10             	shr    $0x10,%edx
}

void setidt(struct IDT *gd,int offset,int selector,int access)//gd: gate describe
{
  //idt中有32位的offset address
  gd->offset_low=offset & 0xffff;
  280a8e:	b9 e6 0b 28 00       	mov    $0x280be6,%ecx
  280a93:	66 89 88 00 f8 26 00 	mov    %cx,0x26f800(%eax)
  280a9a:	83 c0 08             	add    $0x8,%eax
  gd->offset_high=(offset>>16)&0xffff;
  280a9d:	66 89 90 fe f7 26 00 	mov    %dx,0x26f7fe(%eax)

  //16位的selector决定了base address
  gd->selector=selector;
  280aa4:	66 c7 80 fa f7 26 00 	movw   $0x18,0x26f7fa(%eax)
  280aab:	18 00 

  gd->dw_count=(access>>8)&0xff;
  280aad:	c6 80 fc f7 26 00 00 	movb   $0x0,0x26f7fc(%eax)
  gd->access_right=(char)(access&0xff);//晕倒啊，是不是啊，天啊，访问权限是一个非常重要的量，错一点都不行的
  280ab4:	c6 80 fd f7 26 00 8e 	movb   $0x8e,0x26f7fd(%eax)
  for(i=0;i<256;i++)
  {
    setidt(idt+i,0,0,0);
  }

  for(i=0;i<256;i++)
  280abb:	3d 00 08 00 00       	cmp    $0x800,%eax
  280ac0:	75 d1                	jne    280a93 <init_gdtidt+0xc2>
  {
      setidt(idt+i,(int)asm_inthandler21,3*8,0x008e);//用printdebug显示之后，证明这一部分是写进去了

  }
  setidt(idt+0x21,(int)asm_inthandler21-0x280000,3*8,0x008e);//挂载keyboard interrupt service
  280ac2:	b8 e6 0b 00 00       	mov    $0xbe6,%eax
}

void setidt(struct IDT *gd,int offset,int selector,int access)//gd: gate describe
{
  //idt中有32位的offset address
  gd->offset_low=offset & 0xffff;
  280ac7:	66 a3 08 f9 26 00    	mov    %ax,0x26f908
  gd->offset_high=(offset>>16)&0xffff;
  280acd:	c1 e8 10             	shr    $0x10,%eax
  280ad0:	66 a3 0e f9 26 00    	mov    %ax,0x26f90e
  {
      setidt(idt+i,(int)asm_inthandler21,3*8,0x008e);//用printdebug显示之后，证明这一部分是写进去了

  }
  setidt(idt+0x21,(int)asm_inthandler21-0x280000,3*8,0x008e);//挂载keyboard interrupt service
  setidt(idt+0x2c,(int)asm_inthandler2c-0x280000,3*8,0x008e);//挂载mouse 　　interrupt service
  280ad6:	b8 01 0c 00 00       	mov    $0xc01,%eax
}

void setidt(struct IDT *gd,int offset,int selector,int access)//gd: gate describe
{
  //idt中有32位的offset address
  gd->offset_low=offset & 0xffff;
  280adb:	66 a3 60 f9 26 00    	mov    %ax,0x26f960
  gd->offset_high=(offset>>16)&0xffff;
  280ae1:	c1 e8 10             	shr    $0x10,%eax
  280ae4:	66 a3 66 f9 26 00    	mov    %ax,0x26f966

  //16位的selector决定了base address
  gd->selector=selector;
  280aea:	66 c7 05 0a f9 26 00 	movw   $0x18,0x26f90a
  280af1:	18 00 

  gd->dw_count=(access>>8)&0xff;
  280af3:	c6 05 0c f9 26 00 00 	movb   $0x0,0x26f90c
  gd->access_right=(char)(access&0xff);//晕倒啊，是不是啊，天啊，访问权限是一个非常重要的量，错一点都不行的
  280afa:	c6 05 0d f9 26 00 8e 	movb   $0x8e,0x26f90d
  //idt中有32位的offset address
  gd->offset_low=offset & 0xffff;
  gd->offset_high=(offset>>16)&0xffff;

  //16位的selector决定了base address
  gd->selector=selector;
  280b01:	66 c7 05 62 f9 26 00 	movw   $0x18,0x26f962
  280b08:	18 00 

  gd->dw_count=(access>>8)&0xff;
  280b0a:	c6 05 64 f9 26 00 00 	movb   $0x0,0x26f964
  gd->access_right=(char)(access&0xff);//晕倒啊，是不是啊，天啊，访问权限是一个非常重要的量，错一点都不行的
  280b11:	c6 05 65 f9 26 00 8e 	movb   $0x8e,0x26f965

 // setidt(idt+0x21,(int)asm_inthandler21,2*8,0x008e);//挂载keyboard interrupt service
 // setidt(idt+0x2c,(int)asm_inthandler2c,2*8,0x008e);//挂载mouse 　　interrupt serv
  //printdebug(asm_inthandler2c,0);

  load_idtr(0x7ff,0x0026f800);//this is right
  280b18:	50                   	push   %eax
  280b19:	50                   	push   %eax
  280b1a:	68 00 f8 26 00       	push   $0x26f800
  280b1f:	68 ff 07 00 00       	push   $0x7ff
  280b24:	e8 03 01 00 00       	call   280c2c <load_idtr>
  280b29:	83 c4 10             	add    $0x10,%esp



  return;

}
  280b2c:	8b 5d fc             	mov    -0x4(%ebp),%ebx
  280b2f:	c9                   	leave  
  280b30:	c3                   	ret    

00280b31 <init_pic>:
#define PIC1_ICW4		0x00a1
*/

//remap irq0-irq15到int 0x20到int 0x2f
void init_pic()
{
  280b31:	55                   	push   %ebp
// out:write a data to a port
static __inline void
outb(int port, uint8_t data)
{
  //data是变量0%0 , port是变量word１%w1
	__asm __volatile("outb %0,%w1" : : "a" (data), "d" (port));
  280b32:	ba 21 00 00 00       	mov    $0x21,%edx
  280b37:	89 e5                	mov    %esp,%ebp
  280b39:	b0 ff                	mov    $0xff,%al
  280b3b:	ee                   	out    %al,(%dx)
  280b3c:	b2 a1                	mov    $0xa1,%dl
  280b3e:	ee                   	out    %al,(%dx)
  280b3f:	b0 11                	mov    $0x11,%al
  280b41:	b2 20                	mov    $0x20,%dl
  280b43:	ee                   	out    %al,(%dx)
  280b44:	b0 20                	mov    $0x20,%al
  280b46:	b2 21                	mov    $0x21,%dl
  280b48:	ee                   	out    %al,(%dx)
  280b49:	b0 04                	mov    $0x4,%al
  280b4b:	ee                   	out    %al,(%dx)
  280b4c:	b0 01                	mov    $0x1,%al
  280b4e:	ee                   	out    %al,(%dx)
  280b4f:	b0 11                	mov    $0x11,%al
  280b51:	b2 a0                	mov    $0xa0,%dl
  280b53:	ee                   	out    %al,(%dx)
  280b54:	b0 28                	mov    $0x28,%al
  280b56:	b2 a1                	mov    $0xa1,%dl
  280b58:	ee                   	out    %al,(%dx)
  280b59:	b0 02                	mov    $0x2,%al
  280b5b:	ee                   	out    %al,(%dx)
  280b5c:	b0 01                	mov    $0x1,%al
  280b5e:	ee                   	out    %al,(%dx)
  280b5f:	b0 fb                	mov    $0xfb,%al
  280b61:	b2 21                	mov    $0x21,%dl
  280b63:	ee                   	out    %al,(%dx)
  280b64:	b0 ff                	mov    $0xff,%al
  280b66:	b2 a1                	mov    $0xa1,%dl
  280b68:	ee                   	out    %al,(%dx)

所以cpu发现是产生了int 0到int0x1f时，就知道是非常重要的中断产生了，是不可mask的，一定要执行的。

   */

}
  280b69:	5d                   	pop    %ebp
  280b6a:	c3                   	ret    

00280b6b <inthandler21>:
struct FIFO8 keyfifo;//a global data
//上面是一个全局变量

//interrupt service procedure for keyboard  中断服务程序，读取按键的键值。
void inthandler21(int *esp)
{
  280b6b:	55                   	push   %ebp
  280b6c:	ba 20 00 00 00       	mov    $0x20,%edx
  280b71:	89 e5                	mov    %esp,%ebp
  280b73:	b0 61                	mov    $0x61,%al
  280b75:	83 ec 10             	sub    $0x10,%esp
  280b78:	ee                   	out    %al,(%dx)
static __inline uint8_t
inb(int port)
{
  //read a byte from port
	uint8_t data;
	__asm __volatile("inb %w1,%0" : "=a" (data) : "d" (port));
  280b79:	b2 60                	mov    $0x60,%dl
  280b7b:	ec                   	in     (%dx),%al
  //struct  boot_info *binfo=(struct boot_info *)ADDR_BOOT;
  unsigned char data;
  outb(PIC0_OCW2,0X61);//0X61-->PIC0_OCW2 　告之pic0这个芯片，irq1中断(就是keyboard产生的中断)cpu已经处理，这样pic0才会响应　下一次的irq1中断
  //如果不告之pic0已经处理了这次中断，pico对已后的irq1中断就会响应了。这种cpu处理完了中断，对pic0的反馈机制是非常好的，不会漏掉任何数据。
  data=inb(PORT_KEYDAT);
  fifo8_write(&keyfifo,data);
  280b7c:	0f b6 c0             	movzbl %al,%eax
  280b7f:	50                   	push   %eax
  280b80:	68 bc 30 28 00       	push   $0x2830bc
  280b85:	e8 dd 00 00 00       	call   280c67 <fifo8_write>
  280b8a:	83 c4 10             	add    $0x10,%esp
  //puts8((char *)binfo->vram ,binfo->xsize,0,0,7,s);

  //while(1)
  //io_halt();
  
}
  280b8d:	c9                   	leave  
  280b8e:	c3                   	ret    

00280b8f <inthandler2c>:
//中断处理程序不应该有大量的处理部分，应该得到数据后，马上回去，在主函数中处理信息才是对的，与５１中是一个道理。isr尽量短小。

//interrupt service for mouse 
struct FIFO8 mousefifo;
void inthandler2c(int *esp)//可以看到一运行enable_后就，就产生了中断，进入了这个中断服务函数。
{
  280b8f:	55                   	push   %ebp
// out:write a data to a port
static __inline void
outb(int port, uint8_t data)
{
  //data是变量0%0 , port是变量word１%w1
	__asm __volatile("outb %0,%w1" : : "a" (data), "d" (port));
  280b90:	ba a0 00 00 00       	mov    $0xa0,%edx
  280b95:	89 e5                	mov    %esp,%ebp
  280b97:	b0 64                	mov    $0x64,%al
  280b99:	83 ec 10             	sub    $0x10,%esp
  280b9c:	ee                   	out    %al,(%dx)
  280b9d:	b0 62                	mov    $0x62,%al
  280b9f:	b2 20                	mov    $0x20,%dl
  280ba1:	ee                   	out    %al,(%dx)
static __inline uint8_t
inb(int port)
{
  //read a byte from port
	uint8_t data;
	__asm __volatile("inb %w1,%0" : "=a" (data) : "d" (port));
  280ba2:	b2 60                	mov    $0x60,%dl
  280ba4:	ec                   	in     (%dx),%al
  
  unsigned char data;
  outb(PIC1_OCW2,0X64);//cpu tell pic1　that I got IRQ12 
  outb(PIC0_OCW2,0X62);//cpu tell pic0  that I got IRQ2
  data = inb(PORT_KEYDAT);
  fifo8_write(&mousefifo,data);
  280ba5:	0f b6 c0             	movzbl %al,%eax
  280ba8:	50                   	push   %eax
  280ba9:	68 d4 30 28 00       	push   $0x2830d4
  280bae:	e8 b4 00 00 00       	call   280c67 <fifo8_write>
  280bb3:	83 c4 10             	add    $0x10,%esp
  puts8((char *)binfo->vram ,binfo->xsize,0,0,7,"int2c(IRQ-12):PS2/mouse");

 // while(1)
 // hlt();
 */
}
  280bb6:	c9                   	leave  
  280bb7:	c3                   	ret    

00280bb8 <wait_KBC_sendready>:
//for mouse and keyboard control circuit,鼠标，键盘控制电路的初始化。
//#define PORT_KEYDAT 		0X0060


void wait_KBC_sendready(void)				//send ready and wait keyboard control ready
{
  280bb8:	55                   	push   %ebp
  280bb9:	ba 64 00 00 00       	mov    $0x64,%edx
  280bbe:	89 e5                	mov    %esp,%ebp
  280bc0:	ec                   	in     (%dx),%al
  while(1)
  {
    /*等待按键控制电路准备完毕*/
    if( (inb(PORT_KEYSTA) & KEYSTA_SEND_NOTREADY) == 0)	//读port 0x0064 看bit1是否是为０/if 0 ready ,if 1 not ready　
  280bc1:	a8 02                	test   $0x2,%al
  280bc3:	75 fb                	jne    280bc0 <wait_KBC_sendready+0x8>
    {							//bit 1是０说明键盘控制电路是准备好的，可以接受cpu的指令了。
      break;
    }
  }
  
}
  280bc5:	5d                   	pop    %ebp
  280bc6:	c3                   	ret    

00280bc7 <init_keyboard>:

void init_keyboard(void)
{
  280bc7:	55                   	push   %ebp
  280bc8:	89 e5                	mov    %esp,%ebp
  /*这里才是真正的初始化按键电路*/
  wait_KBC_sendready();				//wait ready
  280bca:	e8 e9 ff ff ff       	call   280bb8 <wait_KBC_sendready>
// out:write a data to a port
static __inline void
outb(int port, uint8_t data)
{
  //data是变量0%0 , port是变量word１%w1
	__asm __volatile("outb %0,%w1" : : "a" (data), "d" (port));
  280bcf:	ba 64 00 00 00       	mov    $0x64,%edx
  280bd4:	b0 60                	mov    $0x60,%al
  280bd6:	ee                   	out    %al,(%dx)
  outb(PORT_KEYCMD,KEYCMD_WRITE_MODE);		//向port 0x0064写　0x60
  wait_KBC_sendready();				//保证能写入有效的数据到　port 0x0064
  280bd7:	e8 dc ff ff ff       	call   280bb8 <wait_KBC_sendready>
  280bdc:	ba 60 00 00 00       	mov    $0x60,%edx
  280be1:	b0 47                	mov    $0x47,%al
  280be3:	ee                   	out    %al,(%dx)
  outb(PORT_KEYDAT,KBC_MODE);			//向port 0x0060 写数据0x47
  return;
  
}
  280be4:	5d                   	pop    %ebp
  280be5:	c3                   	ret    

00280be6 <asm_inthandler21>:
.global load_idtr

.code32
#interrupt service about keyboad
asm_inthandler21:
  pushw %es
  280be6:	66 06                	pushw  %es
  pushw %ds
  280be8:	66 1e                	pushw  %ds
  pushal
  280bea:	60                   	pusha  
  movl %esp,%eax
  280beb:	89 e0                	mov    %esp,%eax
  pushl %eax
  280bed:	50                   	push   %eax
  movw %ss,%ax
  280bee:	66 8c d0             	mov    %ss,%ax
  movw %ax,%ds
  280bf1:	8e d8                	mov    %eax,%ds
  movw %ax,%es
  280bf3:	8e c0                	mov    %eax,%es
  call inthandler21
  280bf5:	e8 71 ff ff ff       	call   280b6b <inthandler21>
  
  popl %eax
  280bfa:	58                   	pop    %eax
  popal
  280bfb:	61                   	popa   
  popw %ds
  280bfc:	66 1f                	popw   %ds
  popW %es
  280bfe:	66 07                	popw   %es
  iretl
  280c00:	cf                   	iret   

00280c01 <asm_inthandler2c>:
  
#interrupt service about mouse
asm_inthandler2c:
  pushw %es
  280c01:	66 06                	pushw  %es
  pushw %ds
  280c03:	66 1e                	pushw  %ds
  pushal
  280c05:	60                   	pusha  
  movl %esp,%eax
  280c06:	89 e0                	mov    %esp,%eax
  pushl %eax
  280c08:	50                   	push   %eax
  movw %ss,%ax
  280c09:	66 8c d0             	mov    %ss,%ax
  movw %ax,%ds
  280c0c:	8e d8                	mov    %eax,%ds
  movw %ax,%es
  280c0e:	8e c0                	mov    %eax,%es
  call inthandler2c
  280c10:	e8 7a ff ff ff       	call   280b8f <inthandler2c>
  
  popl %eax
  280c15:	58                   	pop    %eax
  popal
  280c16:	61                   	popa   
  popw %ds
  280c17:	66 1f                	popw   %ds
  popW %es
  280c19:	66 07                	popw   %es
  iretl
  280c1b:	cf                   	iret   

00280c1c <load_gdtr>:
  #iret 与iretl有什么区别？？？
load_gdtr:		#; void load_gdtr(int limit, int addr);
  mov 4(%esp) ,%ax
  280c1c:	66 8b 44 24 04       	mov    0x4(%esp),%ax
  mov %ax,6(%esp)
  280c21:	66 89 44 24 06       	mov    %ax,0x6(%esp)
  lgdt 6(%esp)
  280c26:	0f 01 54 24 06       	lgdtl  0x6(%esp)
  ret
  280c2b:	c3                   	ret    

00280c2c <load_idtr>:


load_idtr:		#; void load_idtr(int limit, int addr);
  mov 4(%esp) ,%ax
  280c2c:	66 8b 44 24 04       	mov    0x4(%esp),%ax
  mov %ax,6(%esp)
  280c31:	66 89 44 24 06       	mov    %ax,0x6(%esp)
  lidt 6(%esp)
  280c36:	0f 01 5c 24 06       	lidtl  0x6(%esp)
  280c3b:	c3                   	ret    

00280c3c <fifo8_init>:
#include<header.h>

//初始化fifo8,是对一个结构体类型的变量进行初始化，这个结构体类型的变量就是一个fifo对象。
void fifo8_init(struct FIFO8 *fifo,int size ,unsigned char *buf)
{
  280c3c:	55                   	push   %ebp
  280c3d:	89 e5                	mov    %esp,%ebp
  280c3f:	8b 45 08             	mov    0x8(%ebp),%eax
  280c42:	8b 55 0c             	mov    0xc(%ebp),%edx
  fifo->buf=buf;
  280c45:	8b 4d 10             	mov    0x10(%ebp),%ecx
  fifo->size=size;
  fifo->free=size;
  fifo->nr=0;
  280c48:	c7 40 08 00 00 00 00 	movl   $0x0,0x8(%eax)

//初始化fifo8,是对一个结构体类型的变量进行初始化，这个结构体类型的变量就是一个fifo对象。
void fifo8_init(struct FIFO8 *fifo,int size ,unsigned char *buf)
{
  fifo->buf=buf;
  fifo->size=size;
  280c4f:	89 50 0c             	mov    %edx,0xc(%eax)
#include<header.h>

//初始化fifo8,是对一个结构体类型的变量进行初始化，这个结构体类型的变量就是一个fifo对象。
void fifo8_init(struct FIFO8 *fifo,int size ,unsigned char *buf)
{
  fifo->buf=buf;
  280c52:	89 08                	mov    %ecx,(%eax)
  fifo->size=size;
  fifo->free=size;
  280c54:	89 50 10             	mov    %edx,0x10(%eax)
  fifo->nr=0;
  fifo->nw=0;
  280c57:	c7 40 04 00 00 00 00 	movl   $0x0,0x4(%eax)
  fifo->flags=0;
  280c5e:	c7 40 14 00 00 00 00 	movl   $0x0,0x14(%eax)
}
  280c65:	5d                   	pop    %ebp
  280c66:	c3                   	ret    

00280c67 <fifo8_write>:


#define FLAGS_OVERRUN 0X0001
//下面的函数是对fifo类型的变量，写入数据。
int fifo8_write(struct FIFO8 *fifo,unsigned char data)
{
  280c67:	55                   	push   %ebp
  280c68:	89 e5                	mov    %esp,%ebp
  280c6a:	8b 45 08             	mov    0x8(%ebp),%eax
  280c6d:	53                   	push   %ebx
  280c6e:	8b 5d 0c             	mov    0xc(%ebp),%ebx
  if(fifo->free==0)//fifo is full ,no room for any data
  280c71:	83 78 10 00          	cmpl   $0x0,0x10(%eax)
  280c75:	75 09                	jne    280c80 <fifo8_write+0x19>
  {
    fifo->flags|=FLAGS_OVERRUN;//if fifo->flags is TRUE, fifo已经满了，不能再写了。
  280c77:	83 48 14 01          	orl    $0x1,0x14(%eax)
    return -1; //write error
  280c7b:	83 c8 ff             	or     $0xffffffff,%eax
  280c7e:	eb 22                	jmp    280ca2 <fifo8_write+0x3b>
  }
  
  
 fifo->buf[fifo->nw]=data;
  280c80:	8b 50 04             	mov    0x4(%eax),%edx
  280c83:	8b 08                	mov    (%eax),%ecx
  280c85:	88 1c 11             	mov    %bl,(%ecx,%edx,1)
 fifo->nw++;
  280c88:	8b 48 04             	mov    0x4(%eax),%ecx
  280c8b:	8d 51 01             	lea    0x1(%ecx),%edx
 if(fifo->nw==fifo->size)
  280c8e:	3b 50 0c             	cmp    0xc(%eax),%edx
    return -1; //write error
  }
  
  
 fifo->buf[fifo->nw]=data;
 fifo->nw++;
  280c91:	89 50 04             	mov    %edx,0x4(%eax)
 if(fifo->nw==fifo->size)
  280c94:	75 07                	jne    280c9d <fifo8_write+0x36>
 {
  fifo->nw=0;  
  280c96:	c7 40 04 00 00 00 00 	movl   $0x0,0x4(%eax)
 }
 fifo->free--;
  280c9d:	ff 48 10             	decl   0x10(%eax)
 return 0;//write sucessful
  280ca0:	31 c0                	xor    %eax,%eax
 
}
  280ca2:	5b                   	pop    %ebx
  280ca3:	5d                   	pop    %ebp
  280ca4:	c3                   	ret    

00280ca5 <fifo8_read>:
//只有写fifo 会有fifo full的情况，
//读fifo时，会有empty的情况。
int fifo8_read(struct FIFO8 *fifo)
{
  280ca5:	55                   	push   %ebp
  280ca6:	89 e5                	mov    %esp,%ebp
  280ca8:	8b 55 08             	mov    0x8(%ebp),%edx
  280cab:	57                   	push   %edi
  280cac:	56                   	push   %esi
  280cad:	53                   	push   %ebx
  int data;
  if(fifo->free==fifo->size)//fifo is empty ,no data is useful
  280cae:	8b 5a 10             	mov    0x10(%edx),%ebx
  280cb1:	8b 7a 0c             	mov    0xc(%edx),%edi
  280cb4:	39 fb                	cmp    %edi,%ebx
  280cb6:	74 1a                	je     280cd2 <fifo8_read+0x2d>
  {
    return -1;
  }
  
  data=fifo->buf[fifo->nr];
  280cb8:	8b 72 08             	mov    0x8(%edx),%esi
  fifo->nr++;
  280cbb:	31 c9                	xor    %ecx,%ecx
  if(fifo->free==fifo->size)//fifo is empty ,no data is useful
  {
    return -1;
  }
  
  data=fifo->buf[fifo->nr];
  280cbd:	8b 02                	mov    (%edx),%eax
  280cbf:	0f b6 04 30          	movzbl (%eax,%esi,1),%eax
  fifo->nr++;
  280cc3:	46                   	inc    %esi
  280cc4:	39 fe                	cmp    %edi,%esi
  280cc6:	0f 45 ce             	cmovne %esi,%ecx
  if(fifo->nr==fifo->size)
  {
    fifo->nr=0;
  }
  fifo->free++;
  280cc9:	43                   	inc    %ebx
  {
    return -1;
  }
  
  data=fifo->buf[fifo->nr];
  fifo->nr++;
  280cca:	89 4a 08             	mov    %ecx,0x8(%edx)
  if(fifo->nr==fifo->size)
  {
    fifo->nr=0;
  }
  fifo->free++;
  280ccd:	89 5a 10             	mov    %ebx,0x10(%edx)
  
  return data;
  280cd0:	eb 03                	jmp    280cd5 <fifo8_read+0x30>
int fifo8_read(struct FIFO8 *fifo)
{
  int data;
  if(fifo->free==fifo->size)//fifo is empty ,no data is useful
  {
    return -1;
  280cd2:	83 c8 ff             	or     $0xffffffff,%eax
  fifo->free++;
  
  return data;
  
  
}
  280cd5:	5b                   	pop    %ebx
  280cd6:	5e                   	pop    %esi
  280cd7:	5f                   	pop    %edi
  280cd8:	5d                   	pop    %ebp
  280cd9:	c3                   	ret    

00280cda <fifo8_status>:

int fifo8_status(struct FIFO8 *fifo)
{
  280cda:	55                   	push   %ebp
  280cdb:	89 e5                	mov    %esp,%ebp
  280cdd:	8b 55 08             	mov    0x8(%ebp),%edx
  return fifo->size-fifo->free;//总数－空的＝有多个data在fifo中。
  280ce0:	5d                   	pop    %ebp
  
}

int fifo8_status(struct FIFO8 *fifo)
{
  return fifo->size-fifo->free;//总数－空的＝有多个data在fifo中。
  280ce1:	8b 42 0c             	mov    0xc(%edx),%eax
  280ce4:	2b 42 10             	sub    0x10(%edx),%eax
  280ce7:	c3                   	ret    

00280ce8 <enable_mouse>:
#include<header.h>
//激活鼠标的指令　还是向键盘控制器发送指令
#define KEYCMD_SENDTO_MOUSE 	0XD4
#define MOUSECMD_ENABLE     	0XF4
void enable_mouse(struct MOUSE_DEC *mdec)
{
  280ce8:	55                   	push   %ebp
  280ce9:	89 e5                	mov    %esp,%ebp
  280ceb:	83 ec 08             	sub    $0x8,%esp
  wait_KBC_sendready();			//等待port 0x0060,0x0064可用
  280cee:	e8 c5 fe ff ff       	call   280bb8 <wait_KBC_sendready>
  280cf3:	ba 64 00 00 00       	mov    $0x64,%edx
  280cf8:	b0 d4                	mov    $0xd4,%al
  280cfa:	ee                   	out    %al,(%dx)
  outb(PORT_KEYCMD,KEYCMD_SENDTO_MOUSE);//向port 0x0064　写　0XD4命令  下面的命令发给mouse
  wait_KBC_sendready();			//等待port 0x0060,0x0064可用
  280cfb:	e8 b8 fe ff ff       	call   280bb8 <wait_KBC_sendready>
  280d00:	ba 60 00 00 00       	mov    $0x60,%edx
  280d05:	b0 f4                	mov    $0xf4,%al
  280d07:	ee                   	out    %al,(%dx)
  outb(PORT_KEYDAT,MOUSECMD_ENABLE); 	//向port 0x0060　写　0Xf4命令  给mouse发送enable命令
  
  mdec->phase=0;
  280d08:	8b 45 08             	mov    0x8(%ebp),%eax
  280d0b:	c6 40 03 00          	movb   $0x0,0x3(%eax)
  return ; 				//if sucessful ,will create an interrupt ,and return ０xfa(ACK),产生的这个0xfa是给cpu的答复信号
					//就算鼠标不动，也会产生这个中断，所以我们一调用enable_mouse，就会产生鼠标中断，必须有这个服务函数。  
}
  280d0f:	c9                   	leave  
  280d10:	c3                   	ret    

00280d11 <mouse_decode>:


int mouse_decode(struct MOUSE_DEC *mdec,unsigned char data)
{
  280d11:	55                   	push   %ebp
  280d12:	89 e5                	mov    %esp,%ebp
  280d14:	8b 55 08             	mov    0x8(%ebp),%edx
  280d17:	53                   	push   %ebx
  280d18:	8b 4d 0c             	mov    0xc(%ebp),%ecx
  if(mdec->phase==0)
  280d1b:	8a 42 03             	mov    0x3(%edx),%al
  280d1e:	84 c0                	test   %al,%al
  280d20:	75 0d                	jne    280d2f <mouse_decode+0x1e>
    if(data==0xfa)
    {
      mdec->phase = 1;
      
    }   
    return 0;
  280d22:	31 c0                	xor    %eax,%eax

int mouse_decode(struct MOUSE_DEC *mdec,unsigned char data)
{
  if(mdec->phase==0)
  {
    if(data==0xfa)
  280d24:	80 f9 fa             	cmp    $0xfa,%cl
  280d27:	75 73                	jne    280d9c <mouse_decode+0x8b>
    {
      mdec->phase = 1;
  280d29:	c6 42 03 01          	movb   $0x1,0x3(%edx)
  280d2d:	eb 6d                	jmp    280d9c <mouse_decode+0x8b>
      
    }   
    return 0;
  }
  else if(mdec->phase==1) 
  280d2f:	3c 01                	cmp    $0x1,%al
  280d31:	75 11                	jne    280d44 <mouse_decode+0x33>
  {
    //鼠标的第一字节的数据
    if( (data & 0xc8) == 0x08 )//如果第一个字节的数据正确  ,只要第一个字节的数据是正确的，后面两个phase的数据就是关于左移 和右移的数据
  280d33:	88 c8                	mov    %cl,%al
  280d35:	83 e0 c8             	and    $0xffffffc8,%eax
  280d38:	3c 08                	cmp    $0x8,%al
  280d3a:	75 5d                	jne    280d99 <mouse_decode+0x88>
    {
    mdec->buf[0] = data;
  280d3c:	88 0a                	mov    %cl,(%edx)
    mdec->phase  = 2;
  280d3e:	c6 42 03 02          	movb   $0x2,0x3(%edx)
  280d42:	eb 0b                	jmp    280d4f <mouse_decode+0x3e>
    return 0;
    }
  }
  else if(mdec->phase==2) 
  280d44:	3c 02                	cmp    $0x2,%al
  280d46:	75 0b                	jne    280d53 <mouse_decode+0x42>
  {
    mdec->buf[1] = data;
  280d48:	88 4a 01             	mov    %cl,0x1(%edx)
    mdec->phase  = 3;
  280d4b:	c6 42 03 03          	movb   $0x3,0x3(%edx)
    return 0;
  280d4f:	31 c0                	xor    %eax,%eax
  280d51:	eb 49                	jmp    280d9c <mouse_decode+0x8b>
  }
  else if(mdec->phase==3) 
  280d53:	3c 03                	cmp    $0x3,%al
  280d55:	75 42                	jne    280d99 <mouse_decode+0x88>
  {
    mdec->buf[2] = data;
    mdec->phase  = 1;
    
    
    mdec->button =mdec->buf[0] & 0x07;//0x07=0000 0111  没有按键时为8（1000）左按键是9(1001)，右按键是10(1010) 从buf0解读出lrbutton是否按下，left=1,right=2;
  280d57:	8a 02                	mov    (%edx),%al
    mdec->phase  = 3;
    return 0;
  }
  else if(mdec->phase==3) 
  {
    mdec->buf[2] = data;
  280d59:	88 4a 02             	mov    %cl,0x2(%edx)
    mdec->phase  = 1;
    
    
    mdec->button =mdec->buf[0] & 0x07;//0x07=0000 0111  没有按键时为8（1000）左按键是9(1001)，右按键是10(1010) 从buf0解读出lrbutton是否按下，left=1,right=2;
    mdec->x =mdec->buf[1];
    mdec->y =mdec->buf[2];
  280d5c:	0f b6 c9             	movzbl %cl,%ecx
    return 0;
  }
  else if(mdec->phase==3) 
  {
    mdec->buf[2] = data;
    mdec->phase  = 1;
  280d5f:	c6 42 03 01          	movb   $0x1,0x3(%edx)
    
    
    mdec->button =mdec->buf[0] & 0x07;//0x07=0000 0111  没有按键时为8（1000）左按键是9(1001)，右按键是10(1010) 从buf0解读出lrbutton是否按下，left=1,right=2;
    mdec->x =mdec->buf[1];
    mdec->y =mdec->buf[2];
  280d63:	89 4a 08             	mov    %ecx,0x8(%edx)
  {
    mdec->buf[2] = data;
    mdec->phase  = 1;
    
    
    mdec->button =mdec->buf[0] & 0x07;//0x07=0000 0111  没有按键时为8（1000）左按键是9(1001)，右按键是10(1010) 从buf0解读出lrbutton是否按下，left=1,right=2;
  280d66:	89 c3                	mov    %eax,%ebx
  280d68:	83 e3 07             	and    $0x7,%ebx
    mdec->x =mdec->buf[1];
    mdec->y =mdec->buf[2];
    
    //why do this 
    if( (mdec->buf[0] & 0x10) != 0)//bit4为1时 1
  280d6b:	a8 10                	test   $0x10,%al
  {
    mdec->buf[2] = data;
    mdec->phase  = 1;
    
    
    mdec->button =mdec->buf[0] & 0x07;//0x07=0000 0111  没有按键时为8（1000）左按键是9(1001)，右按键是10(1010) 从buf0解读出lrbutton是否按下，left=1,right=2;
  280d6d:	89 5a 0c             	mov    %ebx,0xc(%edx)
    mdec->x =mdec->buf[1];
  280d70:	0f b6 5a 01          	movzbl 0x1(%edx),%ebx
  280d74:	89 5a 04             	mov    %ebx,0x4(%edx)
    mdec->y =mdec->buf[2];
    
    //why do this 
    if( (mdec->buf[0] & 0x10) != 0)//bit4为1时 1
  280d77:	74 09                	je     280d82 <mouse_decode+0x71>
    {
      mdec->x |=0xffffff00;//-x 根据buf[0]的bit4为1时，确定鼠标的移动方向是负方向。
  280d79:	81 cb 00 ff ff ff    	or     $0xffffff00,%ebx
  280d7f:	89 5a 04             	mov    %ebx,0x4(%edx)
    }
    if( (mdec->buf[0] & 0x20) != 0)//bit5为1时 2
  280d82:	a8 20                	test   $0x20,%al
  280d84:	74 09                	je     280d8f <mouse_decode+0x7e>
    {
      mdec->y |=0xffffff00;//-y
  280d86:	81 c9 00 ff ff ff    	or     $0xffffff00,%ecx
  280d8c:	89 4a 08             	mov    %ecx,0x8(%edx)
    }
    
    mdec->y= - mdec->y;//鼠标的移动方向与屏幕的方向是相反的。
  280d8f:	f7 5a 08             	negl   0x8(%edx)


    return 1;
  280d92:	b8 01 00 00 00       	mov    $0x1,%eax
  280d97:	eb 03                	jmp    280d9c <mouse_decode+0x8b>
  }
  //buf0中的数据非常的重要，低四位与左右按键有关，高四位与方向有关。
  //高四位0－1－2－3，低四位8 9(left) a(right) b(both) c(middle)
   return -1;
  280d99:	83 c8 ff             	or     $0xffffffff,%eax
}
  280d9c:	5b                   	pop    %ebx
  280d9d:	5d                   	pop    %ebp
  280d9e:	c3                   	ret    

00280d9f <getmemorysize>:
#include<mm.h>


unsigned int getmemorysize(unsigned int start,unsigned int end)
{
  280d9f:	55                   	push   %ebp
  280da0:	89 e5                	mov    %esp,%ebp
  280da2:	8b 45 08             	mov    0x8(%ebp),%eax
  280da5:	53                   	push   %ebx
 unsigned int old;

 //下面的程度只能检测小于4GB的内存，而且 4GB的内存也只能检测为2488MB
 unsigned int pat0=0xaa55aa55;
 volatile unsigned int *p;//注意这里的volatile关键字,
 for(i=start;i<=end;i+=0x1000)
  280da6:	3b 45 0c             	cmp    0xc(%ebp),%eax
  280da9:	77 2b                	ja     280dd6 <getmemorysize+0x37>
 {
  p=(unsigned int *)i+0x200;
  old=*p;
  280dab:	8b 90 00 08 00 00    	mov    0x800(%eax),%edx
  *p=pat0;
  280db1:	c7 80 00 08 00 00 55 	movl   $0xaa55aa55,0x800(%eax)
  280db8:	aa 55 aa 
  if(*p!=pat0)
  280dbb:	8b 98 00 08 00 00    	mov    0x800(%eax),%ebx
  {
   *p=old;
  280dc1:	89 90 00 08 00 00    	mov    %edx,0x800(%eax)
 for(i=start;i<=end;i+=0x1000)
 {
  p=(unsigned int *)i+0x200;
  old=*p;
  *p=pat0;
  if(*p!=pat0)
  280dc7:	81 fb 55 aa 55 aa    	cmp    $0xaa55aa55,%ebx
  280dcd:	75 07                	jne    280dd6 <getmemorysize+0x37>
 unsigned int old;

 //下面的程度只能检测小于4GB的内存，而且 4GB的内存也只能检测为2488MB
 unsigned int pat0=0xaa55aa55;
 volatile unsigned int *p;//注意这里的volatile关键字,
 for(i=start;i<=end;i+=0x1000)
  280dcf:	05 00 10 00 00       	add    $0x1000,%eax
  280dd4:	eb d0                	jmp    280da6 <getmemorysize+0x7>
 }
 return i;//i就是得到的memory size



}
  280dd6:	5b                   	pop    %ebx
  280dd7:	5d                   	pop    %ebp
  280dd8:	c3                   	ret    

00280dd9 <memtest>:

unsigned int memtest(unsigned int start,unsigned int end)
{
  280dd9:	55                   	push   %ebp
  280dda:	89 e5                	mov    %esp,%ebp
  280ddc:	53                   	push   %ebx
//read eflags and write_eflags
static __inline uint32_t
read_eflags(void)
{
        uint32_t eflags;
        __asm __volatile("pushfl; popl %0" : "=r" (eflags));
  280ddd:	9c                   	pushf  
  280dde:	58                   	pop    %eax
 char flg486=0;
 unsigned int eflg,cr0,i;
 eflg=read_eflags();
 eflg|=EFLAGS_AC_BIT;
  280ddf:	0d 00 00 04 00       	or     $0x40000,%eax
}

static __inline void
write_eflags(uint32_t eflags)
{
        __asm __volatile("pushl %0; popfl" : : "r" (eflags));
  280de4:	50                   	push   %eax
  280de5:	9d                   	popf   
//read eflags and write_eflags
static __inline uint32_t
read_eflags(void)
{
        uint32_t eflags;
        __asm __volatile("pushfl; popl %0" : "=r" (eflags));
  280de6:	9c                   	pushf  
  280de7:	58                   	pop    %eax

}

unsigned int memtest(unsigned int start,unsigned int end)
{
 char flg486=0;
  280de8:	31 db                	xor    %ebx,%ebx
 eflg=read_eflags();
 eflg|=EFLAGS_AC_BIT;
 write_eflags(eflg);

 eflg=read_eflags();
 if((eflg&EFLAGS_AC_BIT)!=0)
  280dea:	a9 00 00 04 00       	test   $0x40000,%eax
  280def:	74 14                	je     280e05 <memtest+0x2c>
 {
  flg486=1;
  eflg&=~EFLAGS_AC_BIT;
  280df1:	25 ff ff fb ff       	and    $0xfffbffff,%eax
}

static __inline void
write_eflags(uint32_t eflags)
{
        __asm __volatile("pushl %0; popfl" : : "r" (eflags));
  280df6:	50                   	push   %eax
  280df7:	9d                   	popf   

static __inline uint32_t
rcr0(void)
{
	uint32_t val;
	__asm __volatile("movl %%cr0,%0" : "=r" (val));
  280df8:	0f 20 c0             	mov    %cr0,%eax
  write_eflags(eflg);
 }
 if(flg486)
 {
  cr0=rcr0();
  cr0|=CR0_CACHE_DISABLE;
  280dfb:	0d 00 00 00 60       	or     $0x60000000,%eax
}

static __inline void
lcr0(uint32_t val)
{
	__asm __volatile("movl %0,%%cr0" : : "r" (val));
  280e00:	0f 22 c0             	mov    %eax,%cr0
 write_eflags(eflg);

 eflg=read_eflags();
 if((eflg&EFLAGS_AC_BIT)!=0)
 {
  flg486=1;
  280e03:	b3 01                	mov    $0x1,%bl
  cr0|=CR0_CACHE_DISABLE;
  lcr0(cr0);
 }


i=getmemorysize(start,end);
  280e05:	ff 75 0c             	pushl  0xc(%ebp)
  280e08:	ff 75 08             	pushl  0x8(%ebp)
  280e0b:	e8 8f ff ff ff       	call   280d9f <getmemorysize>
//i=0x100000;

  if(flg486)
  280e10:	84 db                	test   %bl,%bl
  280e12:	5a                   	pop    %edx
  280e13:	59                   	pop    %ecx
  280e14:	74 0c                	je     280e22 <memtest+0x49>

static __inline uint32_t
rcr0(void)
{
	uint32_t val;
	__asm __volatile("movl %%cr0,%0" : "=r" (val));
  280e16:	0f 20 c2             	mov    %cr0,%edx
  {
  cr0=rcr0();
  cr0&=~CR0_CACHE_DISABLE;
  280e19:	81 e2 ff ff ff 9f    	and    $0x9fffffff,%edx
}

static __inline void
lcr0(uint32_t val)
{
	__asm __volatile("movl %0,%%cr0" : : "r" (val));
  280e1f:	0f 22 c2             	mov    %edx,%cr0
  lcr0(cr0);

  }

  return i;
}
  280e22:	8b 5d fc             	mov    -0x4(%ebp),%ebx
  280e25:	c9                   	leave  
  280e26:	c3                   	ret    

00280e27 <memman_init>:


void memman_init(Memman * man)
{
  280e27:	55                   	push   %ebp
  280e28:	89 e5                	mov    %esp,%ebp
  280e2a:	8b 45 08             	mov    0x8(%ebp),%eax
 man->cellnum=0;
  280e2d:	c7 00 00 00 00 00    	movl   $0x0,(%eax)
 man->maxcell=0;
  280e33:	c7 40 04 00 00 00 00 	movl   $0x0,0x4(%eax)
 man->lostsize=0;
  280e3a:	c7 40 08 00 00 00 00 	movl   $0x0,0x8(%eax)
 man->losts=0;
  280e41:	c7 40 0c 00 00 00 00 	movl   $0x0,0xc(%eax)
}
  280e48:	5d                   	pop    %ebp
  280e49:	c3                   	ret    

00280e4a <memman_avail>:
//get available memory
unsigned int memman_avail(Memman *man)
{
  280e4a:	55                   	push   %ebp
 unsigned int i;
 unsigned int freemem=0;
  280e4b:	31 c0                	xor    %eax,%eax
 man->lostsize=0;
 man->losts=0;
}
//get available memory
unsigned int memman_avail(Memman *man)
{
  280e4d:	89 e5                	mov    %esp,%ebp
 unsigned int i;
 unsigned int freemem=0;
 for (i=0;i<man->cellnum;i++)
  280e4f:	31 d2                	xor    %edx,%edx
 man->lostsize=0;
 man->losts=0;
}
//get available memory
unsigned int memman_avail(Memman *man)
{
  280e51:	8b 4d 08             	mov    0x8(%ebp),%ecx
  280e54:	53                   	push   %ebx
 unsigned int i;
 unsigned int freemem=0;
 for (i=0;i<man->cellnum;i++)
  280e55:	8b 19                	mov    (%ecx),%ebx
  280e57:	39 da                	cmp    %ebx,%edx
  280e59:	74 07                	je     280e62 <memman_avail+0x18>
 {
   freemem+=man->cell[i].size;
  280e5b:	03 44 d1 14          	add    0x14(%ecx,%edx,8),%eax
//get available memory
unsigned int memman_avail(Memman *man)
{
 unsigned int i;
 unsigned int freemem=0;
 for (i=0;i<man->cellnum;i++)
  280e5f:	42                   	inc    %edx
  280e60:	eb f5                	jmp    280e57 <memman_avail+0xd>
 {
   freemem+=man->cell[i].size;
 }
 return freemem;
}
  280e62:	5b                   	pop    %ebx
  280e63:	5d                   	pop    %ebp
  280e64:	c3                   	ret    

00280e65 <memman_alloc>:
//allocate some memory for you
 int memman_alloc(Memman *man,unsigned int size)
{
  280e65:	55                   	push   %ebp
    unsigned int i,a;
    for (i=0;i<man->cellnum;i++)
  280e66:	31 d2                	xor    %edx,%edx
 }
 return freemem;
}
//allocate some memory for you
 int memman_alloc(Memman *man,unsigned int size)
{
  280e68:	89 e5                	mov    %esp,%ebp
  280e6a:	8b 4d 08             	mov    0x8(%ebp),%ecx
  280e6d:	57                   	push   %edi
  280e6e:	56                   	push   %esi
  280e6f:	53                   	push   %ebx
    unsigned int i,a;
    for (i=0;i<man->cellnum;i++)
  280e70:	8b 39                	mov    (%ecx),%edi
  280e72:	39 fa                	cmp    %edi,%edx
  280e74:	74 43                	je     280eb9 <memman_alloc+0x54>
    {
        if(man->cell[i].size>size)
  280e76:	8b 45 0c             	mov    0xc(%ebp),%eax
  280e79:	39 44 d1 14          	cmp    %eax,0x14(%ecx,%edx,8)
  280e7d:	76 37                	jbe    280eb6 <memman_alloc+0x51>
  280e7f:	8d 34 d1             	lea    (%ecx,%edx,8),%esi
        {
            a=man->cell[i].address;
            man->cell[i].address+=size;
  280e82:	8b 5d 0c             	mov    0xc(%ebp),%ebx
    unsigned int i,a;
    for (i=0;i<man->cellnum;i++)
    {
        if(man->cell[i].size>size)
        {
            a=man->cell[i].address;
  280e85:	8b 46 10             	mov    0x10(%esi),%eax
            man->cell[i].address+=size;
  280e88:	01 c3                	add    %eax,%ebx
  280e8a:	89 5e 10             	mov    %ebx,0x10(%esi)
            man->cell[i].size-=size;
  280e8d:	8b 5e 14             	mov    0x14(%esi),%ebx
  280e90:	2b 5d 0c             	sub    0xc(%ebp),%ebx
            if(man->cell[i].size==0)
  280e93:	85 db                	test   %ebx,%ebx
    {
        if(man->cell[i].size>size)
        {
            a=man->cell[i].address;
            man->cell[i].address+=size;
            man->cell[i].size-=size;
  280e95:	89 5e 14             	mov    %ebx,0x14(%esi)
            if(man->cell[i].size==0)
  280e98:	75 21                	jne    280ebb <memman_alloc+0x56>
            {
                man->cellnum--;
  280e9a:	8d 5f ff             	lea    -0x1(%edi),%ebx
  280e9d:	89 19                	mov    %ebx,(%ecx)
                for(;i<man->cellnum;i++)
  280e9f:	39 da                	cmp    %ebx,%edx
  280ea1:	73 18                	jae    280ebb <memman_alloc+0x56>
                {
                    man->cell[i]=man->cell[i+1];
  280ea3:	42                   	inc    %edx
  280ea4:	8b 74 d1 10          	mov    0x10(%ecx,%edx,8),%esi
  280ea8:	8b 7c d1 14          	mov    0x14(%ecx,%edx,8),%edi
  280eac:	89 74 d1 08          	mov    %esi,0x8(%ecx,%edx,8)
  280eb0:	89 7c d1 0c          	mov    %edi,0xc(%ecx,%edx,8)
  280eb4:	eb e9                	jmp    280e9f <memman_alloc+0x3a>
}
//allocate some memory for you
 int memman_alloc(Memman *man,unsigned int size)
{
    unsigned int i,a;
    for (i=0;i<man->cellnum;i++)
  280eb6:	42                   	inc    %edx
  280eb7:	eb b9                	jmp    280e72 <memman_alloc+0xd>
            }

            return a;
        }
    }
    return 0; //no memory can be used
  280eb9:	31 c0                	xor    %eax,%eax
}
  280ebb:	5b                   	pop    %ebx
  280ebc:	5e                   	pop    %esi
  280ebd:	5f                   	pop    %edi
  280ebe:	5d                   	pop    %ebp
  280ebf:	c3                   	ret    

00280ec0 <memman_free>:

//return -1 means free memory failure
int memman_free(Memman *man,unsigned int addr,unsigned int size)
{
  280ec0:	55                   	push   %ebp
  int i,j;
  for (i=0;i<man->cellnum;i++)
  280ec1:	31 d2                	xor    %edx,%edx
    return 0; //no memory can be used
}

//return -1 means free memory failure
int memman_free(Memman *man,unsigned int addr,unsigned int size)
{
  280ec3:	89 e5                	mov    %esp,%ebp
  280ec5:	57                   	push   %edi
  280ec6:	56                   	push   %esi
  280ec7:	53                   	push   %ebx
  280ec8:	83 ec 08             	sub    $0x8,%esp
  280ecb:	8b 45 08             	mov    0x8(%ebp),%eax
  280ece:	8b 7d 10             	mov    0x10(%ebp),%edi
  int i,j;
  for (i=0;i<man->cellnum;i++)
  280ed1:	8b 18                	mov    (%eax),%ebx
  280ed3:	89 5d f0             	mov    %ebx,-0x10(%ebp)
  280ed6:	89 5d ec             	mov    %ebx,-0x14(%ebp)
  280ed9:	3b 55 f0             	cmp    -0x10(%ebp),%edx
  280edc:	74 09                	je     280ee7 <memman_free+0x27>
  {
    if(man->cell[i].address>addr)//这一步可以找到一个合适的i的地址范围
  280ede:	8b 5d 0c             	mov    0xc(%ebp),%ebx
  280ee1:	39 5c d0 10          	cmp    %ebx,0x10(%eax,%edx,8)
  280ee5:	76 06                	jbe    280eed <memman_free+0x2d>
    }
  }

  //man->cell[i-1].address<addr<man->cell[i].address
  //与前面空间合并
  if(i>0)  //
  280ee7:	85 d2                	test   %edx,%edx
  280ee9:	75 05                	jne    280ef0 <memman_free+0x30>
  280eeb:	eb 4c                	jmp    280f39 <memman_free+0x79>

//return -1 means free memory failure
int memman_free(Memman *man,unsigned int addr,unsigned int size)
{
  int i,j;
  for (i=0;i<man->cellnum;i++)
  280eed:	42                   	inc    %edx
  280eee:	eb e9                	jmp    280ed9 <memman_free+0x19>
  280ef0:	8d 5c d0 f8          	lea    -0x8(%eax,%edx,8),%ebx

  //man->cell[i-1].address<addr<man->cell[i].address
  //与前面空间合并
  if(i>0)  //
  {
    if(man->cell[i-1].address+man->cell[i-1].size==addr)
  280ef4:	8b 73 14             	mov    0x14(%ebx),%esi
  280ef7:	8b 4b 10             	mov    0x10(%ebx),%ecx
  280efa:	01 f1                	add    %esi,%ecx
  280efc:	3b 4d 0c             	cmp    0xc(%ebp),%ecx
  280eff:	75 38                	jne    280f39 <memman_free+0x79>
    {
        man->cell[i-1].size+=size;
  280f01:	01 fe                	add    %edi,%esi
        if(i<man->cellnum)
  280f03:	3b 55 f0             	cmp    -0x10(%ebp),%edx
  //与前面空间合并
  if(i>0)  //
  {
    if(man->cell[i-1].address+man->cell[i-1].size==addr)
    {
        man->cell[i-1].size+=size;
  280f06:	89 73 14             	mov    %esi,0x14(%ebx)
        if(i<man->cellnum)
  280f09:	73 49                	jae    280f54 <memman_free+0x94>
  280f0b:	8d 0c d0             	lea    (%eax,%edx,8),%ecx
        {
            if(addr+size==man->cell[i].address)
  280f0e:	03 7d 0c             	add    0xc(%ebp),%edi
  280f11:	3b 79 10             	cmp    0x10(%ecx),%edi
  280f14:	75 3e                	jne    280f54 <memman_free+0x94>
            {
                man->cell[i-1].size+=man->cell[i].size;
  280f16:	03 71 14             	add    0x14(%ecx),%esi
  280f19:	89 73 14             	mov    %esi,0x14(%ebx)
                man->cellnum--;
  280f1c:	8b 75 f0             	mov    -0x10(%ebp),%esi
  280f1f:	4e                   	dec    %esi
  280f20:	89 30                	mov    %esi,(%eax)

                for(;i<man->cellnum;i++)
  280f22:	39 f2                	cmp    %esi,%edx
  280f24:	73 2e                	jae    280f54 <memman_free+0x94>
                {
                man->cell[i]=man->cell[i+1];
  280f26:	42                   	inc    %edx
  280f27:	8b 4c d0 10          	mov    0x10(%eax,%edx,8),%ecx
  280f2b:	8b 5c d0 14          	mov    0x14(%eax,%edx,8),%ebx
  280f2f:	89 4c d0 08          	mov    %ecx,0x8(%eax,%edx,8)
  280f33:	89 5c d0 0c          	mov    %ebx,0xc(%eax,%edx,8)
  280f37:	eb e9                	jmp    280f22 <memman_free+0x62>
     //printdebug(200,100);

  }

  //与后面的空间合并
  if(i<man->cellnum)
  280f39:	3b 55 f0             	cmp    -0x10(%ebp),%edx
  280f3c:	73 1a                	jae    280f58 <memman_free+0x98>
  {
     if(addr+size==man->cell[i].address)
  280f3e:	8b 75 0c             	mov    0xc(%ebp),%esi
  280f41:	8d 1c d0             	lea    (%eax,%edx,8),%ebx
  280f44:	01 fe                	add    %edi,%esi
  280f46:	3b 73 10             	cmp    0x10(%ebx),%esi
  280f49:	75 0d                	jne    280f58 <memman_free+0x98>
     {
        man->cell[i].address=addr;
  280f4b:	8b 45 0c             	mov    0xc(%ebp),%eax
        man->cell[i].size+=size;
  280f4e:	01 7b 14             	add    %edi,0x14(%ebx)
  //与后面的空间合并
  if(i<man->cellnum)
  {
     if(addr+size==man->cell[i].address)
     {
        man->cell[i].address=addr;
  280f51:	89 43 10             	mov    %eax,0x10(%ebx)
        man->cell[i].size+=size;

        return 0;
  280f54:	31 c0                	xor    %eax,%eax
  280f56:	eb 4b                	jmp    280fa3 <memman_free+0xe3>
     }
  }

  if(man->cellnum<4090)
  280f58:	81 7d f0 f9 0f 00 00 	cmpl   $0xff9,-0x10(%ebp)
  280f5f:	77 39                	ja     280f9a <memman_free+0xda>
  {
        for(j=man->cellnum;j>i;j--)
  280f61:	39 55 ec             	cmp    %edx,-0x14(%ebp)
  280f64:	7e 18                	jle    280f7e <memman_free+0xbe>
        {
            man->cell[j]=man->cell[j-1];
  280f66:	ff 4d ec             	decl   -0x14(%ebp)
  280f69:	8b 4d ec             	mov    -0x14(%ebp),%ecx
  280f6c:	8b 5c c8 10          	mov    0x10(%eax,%ecx,8),%ebx
  280f70:	8b 74 c8 14          	mov    0x14(%eax,%ecx,8),%esi
  280f74:	89 5c c8 18          	mov    %ebx,0x18(%eax,%ecx,8)
  280f78:	89 74 c8 1c          	mov    %esi,0x1c(%eax,%ecx,8)
  280f7c:	eb e3                	jmp    280f61 <memman_free+0xa1>
        }

        man->cellnum++;
  280f7e:	8b 4d f0             	mov    -0x10(%ebp),%ecx
  280f81:	41                   	inc    %ecx
        if(man->maxcell<man->cellnum)
  280f82:	39 48 04             	cmp    %ecx,0x4(%eax)
        for(j=man->cellnum;j>i;j--)
        {
            man->cell[j]=man->cell[j-1];
        }

        man->cellnum++;
  280f85:	89 08                	mov    %ecx,(%eax)
        if(man->maxcell<man->cellnum)
  280f87:	73 03                	jae    280f8c <memman_free+0xcc>
        {
            man->maxcell=man->cellnum;
  280f89:	89 48 04             	mov    %ecx,0x4(%eax)
  280f8c:	8d 04 d0             	lea    (%eax,%edx,8),%eax
        }
        man->cell[i].address=addr;
  280f8f:	8b 55 0c             	mov    0xc(%ebp),%edx
        man->cell[i].size=size;
  280f92:	89 78 14             	mov    %edi,0x14(%eax)
        man->cellnum++;
        if(man->maxcell<man->cellnum)
        {
            man->maxcell=man->cellnum;
        }
        man->cell[i].address=addr;
  280f95:	89 50 10             	mov    %edx,0x10(%eax)
  280f98:	eb ba                	jmp    280f54 <memman_free+0x94>
       // printdebug(man->cellnum,100);
        return 0;
  }


  man->losts++;
  280f9a:	ff 40 0c             	incl   0xc(%eax)
  man->lostsize+=size;
  280f9d:	01 78 08             	add    %edi,0x8(%eax)

  return  -1;
  280fa0:	83 c8 ff             	or     $0xffffffff,%eax





}
  280fa3:	5a                   	pop    %edx
  280fa4:	59                   	pop    %ecx
  280fa5:	5b                   	pop    %ebx
  280fa6:	5e                   	pop    %esi
  280fa7:	5f                   	pop    %edi
  280fa8:	5d                   	pop    %ebp
  280fa9:	c3                   	ret    
